
DE2_115_Audio.elf:     file format elf32-littlenios2
DE2_115_Audio.elf
architecture: nios2, flags 0x00000112:
EXEC_P, HAS_SYMS, D_PAGED
start address 0x0a8001b4

Program Header:
    LOAD off    0x00001000 vaddr 0x0a800000 paddr 0x0a800000 align 2**12
         filesz 0x00000020 memsz 0x00000020 flags r-x
    LOAD off    0x00001020 vaddr 0x0a800020 paddr 0x0a800020 align 2**12
         filesz 0x00014184 memsz 0x00014184 flags r-x
    LOAD off    0x000151a4 vaddr 0x0a8141a4 paddr 0x0a815e18 align 2**12
         filesz 0x00001c74 memsz 0x00001c74 flags rw-
    LOAD off    0x00017a8c vaddr 0x0a817a8c paddr 0x0a817a8c align 2**12
         filesz 0x00000000 memsz 0x00000324 flags rw-

Sections:
Idx Name          Size      VMA       LMA       File off  Algn
  0 .entry        00000020  0a800000  0a800000  00001000  2**5
                  CONTENTS, ALLOC, LOAD, READONLY, CODE
  1 .exceptions   00000194  0a800020  0a800020  00001020  2**2
                  CONTENTS, ALLOC, LOAD, READONLY, CODE
  2 .text         00012e08  0a8001b4  0a8001b4  000011b4  2**2
                  CONTENTS, ALLOC, LOAD, READONLY, CODE
  3 .rodata       000011e8  0a812fbc  0a812fbc  00013fbc  2**2
                  CONTENTS, ALLOC, LOAD, READONLY, DATA
  4 .rwdata       00001c74  0a8141a4  0a815e18  000151a4  2**2
                  CONTENTS, ALLOC, LOAD, DATA, SMALL_DATA
  5 .bss          00000324  0a817a8c  0a817a8c  00017a8c  2**2
                  ALLOC, SMALL_DATA
  6 .comment      00000026  00000000  00000000  00016e18  2**0
                  CONTENTS, READONLY
  7 .debug_aranges 00000f78  00000000  00000000  00016e40  2**3
                  CONTENTS, READONLY, DEBUGGING
  8 .debug_pubnames 00001e69  00000000  00000000  00017db8  2**0
                  CONTENTS, READONLY, DEBUGGING
  9 .debug_info   0002f06d  00000000  00000000  00019c21  2**0
                  CONTENTS, READONLY, DEBUGGING
 10 .debug_abbrev 000099fa  00000000  00000000  00048c8e  2**0
                  CONTENTS, READONLY, DEBUGGING
 11 .debug_line   0001a01f  00000000  00000000  00052688  2**0
                  CONTENTS, READONLY, DEBUGGING
 12 .debug_frame  0000265c  00000000  00000000  0006c6a8  2**2
                  CONTENTS, READONLY, DEBUGGING
 13 .debug_str    00002895  00000000  00000000  0006ed04  2**0
                  CONTENTS, READONLY, DEBUGGING
 14 .debug_loc    0000d9cb  00000000  00000000  00071599  2**0
                  CONTENTS, READONLY, DEBUGGING
 15 .debug_alt_sim_info 00000060  00000000  00000000  0007ef64  2**2
                  CONTENTS, READONLY, DEBUGGING
 16 .debug_ranges 00000990  00000000  00000000  0007efc8  2**3
                  CONTENTS, READONLY, DEBUGGING
 17 .thread_model 00000003  00000000  00000000  00083be7  2**0
                  CONTENTS, READONLY
 18 .cpu          00000003  00000000  00000000  00083bea  2**0
                  CONTENTS, READONLY
 19 .qsys         00000001  00000000  00000000  00083bed  2**0
                  CONTENTS, READONLY
 20 .simulation_enabled 00000001  00000000  00000000  00083bee  2**0
                  CONTENTS, READONLY
 21 .stderr_dev   00000009  00000000  00000000  00083bef  2**0
                  CONTENTS, READONLY
 22 .stdin_dev    00000009  00000000  00000000  00083bf8  2**0
                  CONTENTS, READONLY
 23 .stdout_dev   00000009  00000000  00000000  00083c01  2**0
                  CONTENTS, READONLY
 24 .sopc_system_name 0000000a  00000000  00000000  00083c0a  2**0
                  CONTENTS, READONLY
 25 .quartus_project_dir 00000010  00000000  00000000  00083c14  2**0
                  CONTENTS, READONLY
 26 .jdi          00004cb8  00000000  00000000  00083c24  2**0
                  CONTENTS, READONLY
 27 .sopcinfo     000bbee0  00000000  00000000  000888dc  2**0
                  CONTENTS, READONLY
SYMBOL TABLE:
0a800000 l    d  .entry	00000000 .entry
0a800020 l    d  .exceptions	00000000 .exceptions
0a8001b4 l    d  .text	00000000 .text
0a812fbc l    d  .rodata	00000000 .rodata
0a8141a4 l    d  .rwdata	00000000 .rwdata
0a817a8c l    d  .bss	00000000 .bss
00000000 l    d  .comment	00000000 .comment
00000000 l    d  .debug_aranges	00000000 .debug_aranges
00000000 l    d  .debug_pubnames	00000000 .debug_pubnames
00000000 l    d  .debug_info	00000000 .debug_info
00000000 l    d  .debug_abbrev	00000000 .debug_abbrev
00000000 l    d  .debug_line	00000000 .debug_line
00000000 l    d  .debug_frame	00000000 .debug_frame
00000000 l    d  .debug_str	00000000 .debug_str
00000000 l    d  .debug_loc	00000000 .debug_loc
00000000 l    d  .debug_alt_sim_info	00000000 .debug_alt_sim_info
00000000 l    d  .debug_ranges	00000000 .debug_ranges
0a8001fc l       .text	00000000 alt_after_alt_main
00000000 l    df *ABS*	00000000 alt_irq_handler.c
00000000 l    df *ABS*	00000000 AUDIO.c
0a817ad0 l     O .bss	00000028 reg_file
00000000 l    df *ABS*	00000000 I2C.c
00000000 l    df *ABS*	00000000 LCD.c
0a817a8c l     O .bss	00000004 fp
00000000 l    df *ABS*	00000000 LED.c
00000000 l    df *ABS*	00000000 SEG7.c
0a8141a4 l     O .rwdata	00000010 szMap
00000000 l    df *ABS*	00000000 debug.c
00000000 l    df *ABS*	00000000 main.c
0a817a90 l     O .bss	00000002 cnt.3913
0a817a94 l     O .bss	00000004 sum.3912
00000000 l    df *ABS*	00000000 lib2-divmod.c
0a8029dc l     F .text	0000007c udivmodsi4
00000000 l    df *ABS*	00000000 fclose.c
00000000 l    df *ABS*	00000000 fflush.c
00000000 l    df *ABS*	00000000 findfp.c
0a802e7c l     F .text	00000058 std
0a802f88 l     F .text	00000008 __fp_lock
0a802f90 l     F .text	00000008 __fp_unlock
00000000 l    df *ABS*	00000000 fopen.c
00000000 l    df *ABS*	00000000 mallocr.c
00000000 l    df *ABS*	00000000 fseek.c
00000000 l    df *ABS*	00000000 fstatr.c
00000000 l    df *ABS*	00000000 fwalk.c
00000000 l    df *ABS*	00000000 fwrite.c
00000000 l    df *ABS*	00000000 impure.c
0a8141b4 l     O .rwdata	00000400 impure_data
00000000 l    df *ABS*	00000000 int_errno.c
00000000 l    df *ABS*	00000000 makebuf.c
00000000 l    df *ABS*	00000000 mallocr.c
00000000 l    df *ABS*	00000000 memset.c
00000000 l    df *ABS*	00000000 openr.c
00000000 l    df *ABS*	00000000 printf.c
00000000 l    df *ABS*	00000000 puts.c
00000000 l    df *ABS*	00000000 refill.c
0a804a90 l     F .text	0000001c lflush
00000000 l    df *ABS*	00000000 sbrkr.c
00000000 l    df *ABS*	00000000 sprintf.c
00000000 l    df *ABS*	00000000 stdio.c
00000000 l    df *ABS*	00000000 strlen.c
00000000 l    df *ABS*	00000000 vfprintf.c
0a804db0 l     F .text	00000058 __sprint_r
0a813c3e l     O .rodata	00000010 blanks.3452
0a813c2e l     O .rodata	00000010 zeroes.3453
00000000 l    df *ABS*	00000000 vsnprintf.c
00000000 l    df *ABS*	00000000 writer.c
00000000 l    df *ABS*	00000000 wsetup.c
00000000 l    df *ABS*	00000000 closer.c
00000000 l    df *ABS*	00000000 dtoa.c
0a806ff0 l     F .text	00000218 quorem
00000000 l    df *ABS*	00000000 flags.c
00000000 l    df *ABS*	00000000 fvwrite.c
00000000 l    df *ABS*	00000000 isattyr.c
00000000 l    df *ABS*	00000000 locale.c
0a815ddc l     O .rwdata	00000004 charset
0a813c70 l     O .rodata	00000030 lconv
00000000 l    df *ABS*	00000000 lseekr.c
00000000 l    df *ABS*	00000000 memchr.c
00000000 l    df *ABS*	00000000 memcpy.c
00000000 l    df *ABS*	00000000 memmove.c
00000000 l    df *ABS*	00000000 mprec.c
0a813db8 l     O .rodata	0000000c p05.2458
00000000 l    df *ABS*	00000000 readr.c
00000000 l    df *ABS*	00000000 mallocr.c
00000000 l    df *ABS*	00000000 s_isinfd.c
00000000 l    df *ABS*	00000000 s_isnand.c
00000000 l    df *ABS*	00000000 strcmp.c
00000000 l    df *ABS*	00000000 mallocr.c
00000000 l    df *ABS*	00000000 libgcc2.c
00000000 l    df *ABS*	00000000 libgcc2.c
00000000 l    df *ABS*	00000000 dp-bit.c
0a80b4d4 l     F .text	00000410 _fpadd_parts
00000000 l    df *ABS*	00000000 dp-bit.c
00000000 l    df *ABS*	00000000 dp-bit.c
00000000 l    df *ABS*	00000000 dp-bit.c
00000000 l    df *ABS*	00000000 dp-bit.c
00000000 l    df *ABS*	00000000 dp-bit.c
00000000 l    df *ABS*	00000000 dp-bit.c
00000000 l    df *ABS*	00000000 dp-bit.c
00000000 l    df *ABS*	00000000 dp-bit.c
00000000 l    df *ABS*	00000000 dp-bit.c
00000000 l    df *ABS*	00000000 dp-bit.c
00000000 l    df *ABS*	00000000 dp-bit.c
00000000 l    df *ABS*	00000000 libgcc2.c
00000000 l    df *ABS*	00000000 libgcc2.c
00000000 l    df *ABS*	00000000 libgcc2.c
00000000 l    df *ABS*	00000000 dp-bit.c
00000000 l    df *ABS*	00000000 dp-bit.c
00000000 l    df *ABS*	00000000 dp-bit.c
00000000 l    df *ABS*	00000000 alt_close.c
0a80cd28 l     F .text	00000060 alt_get_errno
00000000 l    df *ABS*	00000000 alt_dev.c
0a80cd88 l     F .text	0000002c alt_dev_null_write
00000000 l    df *ABS*	00000000 alt_errno.c
00000000 l    df *ABS*	00000000 alt_fstat.c
0a80ce88 l     F .text	00000060 alt_get_errno
00000000 l    df *ABS*	00000000 alt_irq_register.c
00000000 l    df *ABS*	00000000 alt_irq_vars.c
00000000 l    df *ABS*	00000000 alt_isatty.c
0a80d168 l     F .text	00000060 alt_get_errno
00000000 l    df *ABS*	00000000 alt_load.c
0a80d248 l     F .text	0000006c alt_load_section
00000000 l    df *ABS*	00000000 alt_lseek.c
0a80d3a4 l     F .text	00000060 alt_get_errno
00000000 l    df *ABS*	00000000 alt_main.c
00000000 l    df *ABS*	00000000 alt_malloc_lock.c
00000000 l    df *ABS*	00000000 alt_open.c
0a80d4b0 l     F .text	000000dc alt_file_locked
0a80d714 l     F .text	00000060 alt_get_errno
00000000 l    df *ABS*	00000000 alt_read.c
0a80d894 l     F .text	00000060 alt_get_errno
00000000 l    df *ABS*	00000000 alt_release_fd.c
00000000 l    df *ABS*	00000000 alt_sbrk.c
0a815dfc l     O .rwdata	00000004 heap_end
00000000 l    df *ABS*	00000000 alt_usleep.c
00000000 l    df *ABS*	00000000 alt_write.c
0a80db60 l     F .text	00000060 alt_get_errno
00000000 l    df *ABS*	00000000 alt_sys_init.c
0a814b70 l     O .rwdata	000000d8 cfi_flash
0a814c48 l     O .rwdata	00001060 jtag_uart
0a815ca8 l     O .rwdata	00000120 lcd
0a80dc5c l     F .text	00000038 alt_dev_reg
00000000 l    df *ABS*	00000000 altera_avalon_cfi_flash.c
0a80dd30 l     F .text	00000038 alt_flash_device_register
00000000 l    df *ABS*	00000000 altera_avalon_cfi_flash_table.c
0a80eb20 l     F .text	0000007c alt_read_16bit_query_entry
00000000 l    df *ABS*	00000000 altera_avalon_jtag_uart_fd.c
00000000 l    df *ABS*	00000000 altera_avalon_jtag_uart_init.c
0a80fc0c l     F .text	00000228 altera_avalon_jtag_uart_irq
0a80fe34 l     F .text	000000b0 altera_avalon_jtag_uart_timeout
00000000 l    df *ABS*	00000000 altera_avalon_jtag_uart_ioctl.c
00000000 l    df *ABS*	00000000 altera_avalon_jtag_uart_read.c
00000000 l    df *ABS*	00000000 altera_avalon_jtag_uart_write.c
00000000 l    df *ABS*	00000000 altera_avalon_lcd_16207.c
0a815e00 l     O .rwdata	00000004 colstart
0a8104b0 l     F .text	000000b8 lcd_write_command
0a810568 l     F .text	000000d4 lcd_write_data
0a81063c l     F .text	000000c4 lcd_clear_screen
0a810700 l     F .text	000001ec lcd_repaint_screen
0a8108ec l     F .text	000000c8 lcd_scroll_up
0a8109b4 l     F .text	000002d0 lcd_handle_escape
0a811190 l     F .text	000000cc alt_lcd_16207_timeout
00000000 l    df *ABS*	00000000 altera_avalon_lcd_16207_fd.c
00000000 l    df *ABS*	00000000 alt_alarm_start.c
00000000 l    df *ABS*	00000000 alt_busy_sleep.c
00000000 l    df *ABS*	00000000 alt_dcache_flush.c
00000000 l    df *ABS*	00000000 alt_dcache_flush_all.c
00000000 l    df *ABS*	00000000 alt_dev_llist_insert.c
0a811800 l     F .text	00000060 alt_get_errno
00000000 l    df *ABS*	00000000 alt_do_ctors.c
00000000 l    df *ABS*	00000000 alt_do_dtors.c
00000000 l    df *ABS*	00000000 alt_find_dev.c
00000000 l    df *ABS*	00000000 alt_find_file.c
00000000 l    df *ABS*	00000000 alt_flash_dev.c
00000000 l    df *ABS*	00000000 alt_get_fd.c
00000000 l    df *ABS*	00000000 alt_icache_flush_all.c
00000000 l    df *ABS*	00000000 alt_iic.c
00000000 l    df *ABS*	00000000 alt_iic_isr_register.c
00000000 l    df *ABS*	00000000 alt_io_redirect.c
0a811f60 l     F .text	000000c4 alt_open_fd
00000000 l    df *ABS*	00000000 alt_tick.c
00000000 l    df *ABS*	00000000 altera_nios2_qsys_irq.c
00000000 l    df *ABS*	00000000 altera_avalon_cfi_flash_amd.c
0a812604 l     F .text	000000bc alt_write_word_amd
0a8124e0 l     F .text	00000124 alt_wait_for_command_to_complete_amd
00000000 l    df *ABS*	00000000 altera_avalon_cfi_flash_intel.c
0a8128b8 l     F .text	0000018c alt_unlock_block_intel
0a812a44 l     F .text	000000dc alt_write_word_intel
00000000 l    df *ABS*	00000000 alt_icache_flush.c
00000000 l    df *ABS*	00000000 atexit.c
00000000 l    df *ABS*	00000000 ctype_.c
0a814021 l     O .rodata	00000180 _ctype_b
00000000 l    df *ABS*	00000000 exit.c
00000000 l    df *ABS*	00000000 memcmp.c
00000000 l    df *ABS*	00000000 __atexit.c
00000000 l    df *ABS*	00000000 __call_atexit.c
0a812da4 l     F .text	00000004 register_fini
00000000 l    df *ABS*	00000000 alt_exit.c
0a812f58 l     F .text	00000040 alt_sim_halt
0a802178 g     F .text	0000004c display_time_elapsed
0a809514 g     F .text	00000094 _mprec_log10
0a801094 g     F .text	00000128 I2C_Read
0a809600 g     F .text	00000088 __any_on
0a808cf8 g     F .text	00000070 _isatty_r
0a813d90 g     O .rodata	00000028 __mprec_tinytens
0a80d404 g     F .text	0000006c alt_main
0a804818 g     F .text	000000a0 _puts_r
0a80e5e0 g     F .text	00000048 alt_read_query_entry_32bit
0a801f08 g     F .text	0000005c button_monitor_isr
0a817b20 g     O .bss	00000100 alt_irq
0a808e2c g     F .text	00000078 _lseek_r
0a80dd68 g     F .text	000002c0 alt_flash_cfi_write
0a815e18 g       *ABS*	00000000 __flash_rwdata_start
0a8087bc g     F .text	000000a0 __sflags
0a80bff4 g     F .text	00000088 __eqdf2
0a801d9c g     F .text	00000054 ui_is_mic_record
0a817db0 g       *ABS*	00000000 __alt_heap_start
0a800200 g     F .text	000001c4 AUDIO_Init
0a8047a0 g     F .text	00000044 printf
0a80047c g     F .text	00000078 AUDIO_AdcEnableHighPassFilter
0a800000 g       *ABS*	00000000 __alt_mem_sram
0a804bf8 g     F .text	00000068 __sseek
0a802ee4 g     F .text	000000a4 __sinit
0a808d8c g     F .text	00000084 _setlocale_r
0a802fe4 g     F .text	00000068 __sfmoreglue
0a80d490 g     F .text	00000020 __malloc_unlock
0a809028 g     F .text	000000e0 memmove
0a802fd4 g     F .text	00000010 _cleanup
0a800d4c g     F .text	000000fc aduio_RegWrite
0a800f6c g     F .text	0000002c AUDIO_FifoClear
0a809688 g     F .text	000000bc _Balloc
0a801898 g     F .text	0000002c LED_AllOff
0a80c104 g     F .text	00000088 __gtdf2
00000000  w      *UND*	00000000 __errno
0a800f18 g     F .text	00000054 AUDIO_AdcFifoGetData
0a80e76c g     F .text	00000048 alt_write_flash_command_32bit_device_16bit_mode
0a801440 g     F .text	00000124 i2c_write
0a800000 g     F .entry	0000001c __reset
0a8021c4 g     F .text	00000098 show_power
0a800020 g       *ABS*	00000000 __flash_exceptions_start
0a801770 g     F .text	00000088 LCD_Clear
0a803aec g     F .text	00000074 _fstat_r
0a80e284 g     F .text	000002d8 alt_flash_program_block
0a817a9c g     O .bss	00000004 errno
0a817ac0 g     O .bss	00000004 alt_argv
0a81ddc8 g       *ABS*	00000000 _gp
0a80da10 g     F .text	00000030 usleep
0a8023f0 g     F .text	00000064 show_menu
0a8149f0 g     O .rwdata	00000180 alt_fd_list
0a811928 g     F .text	00000094 alt_find_dev
0a808f88 g     F .text	000000a0 memcpy
0a801834 g     F .text	00000038 LED_Display
0a802fc8 g     F .text	0000000c _cleanup_r
0a80c29c g     F .text	000000f8 __floatsidf
0a801f64 g     F .text	00000088 button_monitor_start
0a812024 g     F .text	00000078 alt_io_redirect
0a80c214 g     F .text	00000088 __ltdf2
0a812fbc g       *ABS*	00000000 __DTOR_END__
0a8048b8 g     F .text	00000014 puts
0a809464 g     F .text	000000b0 __ratio
0a801fec g     F .text	0000018c init_audio
0a81004c g     F .text	00000224 altera_avalon_jtag_uart_read
00000000  w      *UND*	00000000 malloc
0a8047e4 g     F .text	00000034 _printf_r
0a802b18 g     F .text	00000008 __udivsi3
0a80d0a8 g     F .text	000000c0 isatty
0a800c34 g     F .text	0000008c AUDIO_EnableByPass
0a813ca0 g     O .rodata	000000c8 __mprec_tens
0a808d68 g     F .text	00000008 __locale_charset
0a806d8c g     F .text	00000040 vsnprintf
0a812b20 g     F .text	00000090 alt_icache_flush
0a8011bc g     F .text	00000184 I2C_MultipleRead
0a817aa0 g     O .bss	00000004 __malloc_top_pad
0a8009fc g     F .text	0000011c AUDIO_SetLineInVol
0a815dd8 g     O .rwdata	00000004 __mb_cur_max
0a808d70 g     F .text	0000000c _localeconv_r
0a809d80 g     F .text	0000003c __i2b
0a80885c g     F .text	0000049c __sfvwrite_r
0a801930 g     F .text	00000058 SEG7_Clear
0a804aac g     F .text	00000070 _sbrk_r
0a8126c0 g     F .text	00000084 alt_program_intel
0a801d18 g     F .text	00000084 myprintf_dword_array
0a80a0fc g     F .text	00000078 _read_r
0a811690 g     F .text	00000078 alt_dcache_flush
0a8149bc g     O .rwdata	0000000c __lc_ctype
0a815df0 g     O .rwdata	00000004 alt_max_fd
0a80e55c g     F .text	00000040 alt_read_query_entry_8bit
0a80ca2c g     F .text	00000138 __unpack_d
0a802b28 g     F .text	00000110 _fclose_r
0a812744 g     F .text	00000174 alt_erase_block_intel
0a802e48 g     F .text	00000034 fflush
0a8005ac g     F .text	000000e0 AUDIO_DacEnableZeroCross
0a817aa4 g     O .bss	00000004 __malloc_max_sbrked_mem
0a80170c g     F .text	00000064 LCD_TextOut
0a80cee8 g     F .text	000001c0 alt_irq_register
0a80b964 g     F .text	00000074 __adddf3
0a809344 g     F .text	00000120 __b2d
0a80af24 g     F .text	000005b0 __umoddi3
0a80d2b4 g     F .text	000000f0 lseek
0a815dcc g     O .rwdata	00000004 _global_impure_ptr
0a80a174 g     F .text	000005f4 _realloc_r
0a817db0 g       *ABS*	00000000 __bss_end
0a811e68 g     F .text	000000f8 alt_iic_isr_register
0a812134 g     F .text	0000010c alt_tick
0a80a948 g     F .text	000005dc __udivdi3
0a813d68 g     O .rodata	00000028 __mprec_bigtens
0a809fdc g     F .text	00000120 __s2b
0a80c46c g     F .text	00000194 __floatunsidf
0a800404 g     F .text	00000078 AUDIO_MicBoost
0a809264 g     F .text	00000060 __mcmp
0a815e14 g     O .rwdata	00000004 __ctype_ptr
0a802fb0 g     F .text	00000018 __fp_lock_all
0a811e20 g     F .text	00000048 alt_ic_irq_enabled
0a800f98 g     F .text	000000fc I2C_Write
0a8019e8 g     F .text	00000074 SEG7_Number
0a81209c g     F .text	00000098 alt_alarm_stop
0a8017f8 g     F .text	0000003c LCD_Close
0a817ab8 g     O .bss	00000004 alt_irq_active
0a8000ec g     F .exceptions	000000c8 alt_irq_handler
0a8149c8 g     O .rwdata	00000028 alt_dev_null
0a80ea74 g     F .text	000000ac alt_set_flash_algorithm_func
0a801340 g     F .text	00000088 i2c_start
0a811708 g     F .text	00000044 alt_dcache_flush_all
0a809130 g     F .text	00000070 __hi0bits
0a80c394 g     F .text	000000d8 __fixdfsi
0a80e628 g     F .text	0000003c alt_write_flash_command_8bit_device_8bit_mode
0a815e18 g       *ABS*	00000000 __ram_rwdata_end
0a815de8 g     O .rwdata	00000008 alt_dev_list
0a80da40 g     F .text	00000120 write
0a8141a4 g       *ABS*	00000000 __ram_rodata_end
0a80cdb4 g     F .text	000000d4 fstat
0a801c38 g     F .text	00000060 myprintf
0a80f928 g     F .text	000000dc alt_check_primary_table
0a809ebc g     F .text	00000120 __pow5mult
0a817aac g     O .bss	00000004 __nlocale_changed
0a802b20 g     F .text	00000008 __umodsi3
0a80e0b8 g     F .text	00000068 alt_flash_cfi_read
0a80e7fc g     F .text	00000034 alt_write_native_8bit
0a800cc0 g     F .text	0000008c AUDIO_EnableSiteTone
0a817db0 g       *ABS*	00000000 end
0a80e664 g     F .text	0000007c alt_write_flash_command_16bit_device_8bit_mode
0a80186c g     F .text	0000002c LED_AllOn
0a810c84 g     F .text	0000050c altera_avalon_lcd_16207_write
0a803ac8 g     F .text	00000024 fseek
0a80eb9c g     F .text	000005e0 alt_read_cfi_table
0a80fb4c g     F .text	000000c0 altera_avalon_jtag_uart_init
0a812fb8 g       *ABS*	00000000 __CTOR_LIST__
0a900000 g       *ABS*	00000000 __alt_stack_pointer
0a80c698 g     F .text	00000080 __clzsi2
0a810270 g     F .text	00000240 altera_avalon_jtag_uart_write
0a80dc94 g     F .text	0000009c alt_flash_cfi_init
0a802ed4 g     F .text	00000004 __sfp_lock_acquire
0a808ea4 g     F .text	000000e4 memchr
0a804e08 g     F .text	00001eac ___vfprintf_internal_r
0a804b90 g     F .text	00000060 _sprintf_r
0a803378 g     F .text	00000314 _free_r
0a812da8 g     F .text	000001b0 __call_exitprocs
0a817ab0 g     O .bss	00000004 __mlocale_changed
0a815dd4 g     O .rwdata	00000004 __malloc_sbrk_base
0a8001b4 g     F .text	0000004c _start
0a817ac8 g     O .bss	00000004 _alt_tick_rate
0a809a4c g     F .text	0000014c __lshift
0a817acc g     O .bss	00000004 _alt_nticks
0a80d774 g     F .text	00000120 read
0a80dbf4 g     F .text	00000068 alt_sys_init
0a804728 g     F .text	00000078 _open_r
0a812c70 g     F .text	00000134 __register_exitproc
0a80068c g     F .text	0000008c AUDIO_DacEnableSoftMute
0a80e59c g     F .text	00000044 alt_read_query_entry_16bit
0a809b98 g     F .text	000001e8 __multiply
0a80fee4 g     F .text	00000074 altera_avalon_jtag_uart_close
0a8141a4 g       *ABS*	00000000 __ram_rwdata_start
0a812fbc g       *ABS*	00000000 __ram_rodata_start
0a817af8 g     O .bss	00000028 __malloc_current_mallinfo
0a80e894 g     F .text	000001e0 alt_set_flash_width_func
0a809744 g     F .text	0000017c __d2b
0a801e28 g     F .text	00000038 ui_is_dac_zero_cross
0a80fa04 g     F .text	00000058 altera_avalon_jtag_uart_read_fd
0a811bac g     F .text	000000b8 alt_get_fd
0a811544 g     F .text	0000014c alt_busy_sleep
0a80cb64 g     F .text	000000c8 __fpcmp_parts_d
0a806f80 g     F .text	00000070 _close_r
0a8122c8 g     F .text	00000218 alt_erase_block_amd
0a812bfc g     F .text	00000074 memcmp
0a80fab4 g     F .text	00000048 altera_avalon_jtag_uart_close_fd
0a817db0 g       *ABS*	00000000 __alt_stack_base
0a80fafc g     F .text	00000050 altera_avalon_jtag_uart_ioctl_fd
0a803ce0 g     F .text	0000009c _fwrite_r
0a806e44 g     F .text	0000013c __swsetup_r
0a80f17c g     F .text	000007ac alt_read_cfi_width
0a80225c g     F .text	00000078 init
0a80bd9c g     F .text	00000258 __divdf3
0a80304c g     F .text	000000f0 __sfp
0a8095a8 g     F .text	00000058 __copybits
0a8004f4 g     F .text	000000b8 AUDIO_DacDeemphasisControl
0a8145b4 g     O .rwdata	00000408 __malloc_av_
0a802ee0 g     F .text	00000004 __sinit_lock_release
0a806cd8 g     F .text	000000b4 _vsnprintf_r
0a8013c8 g     F .text	00000078 i2c_stop
0a80b9d8 g     F .text	000003c4 __muldf3
0a804cdc g     F .text	00000060 __sread
0a801988 g     F .text	00000060 SEG7_Full
0a8119bc g     F .text	00000120 alt_find_file
0a801b28 g     F .text	000000e0 SEG7_Decimal
0a81174c g     F .text	000000b4 alt_dev_llist_insert
0a80d470 g     F .text	00000020 __malloc_lock
0a80d954 g     F .text	000000bc sbrk
0a800884 g     F .text	0000008c AUDIO_SetInputSource
0a802c4c g     F .text	000001fc _fflush_r
0a80a894 g     F .text	000000b4 _calloc_r
0a815e04 g     O .rwdata	00000008 alt_flash_dev_list
0a8003c4 g     F .text	00000040 AUDIO_InterfaceActive
0a80e728 g     F .text	00000044 alt_write_flash_command_16bit_device_16bit_mode
0a803230 g     F .text	0000001c fopen
0a817a8c g       *ABS*	00000000 __bss_start
0a804690 g     F .text	00000098 memset
0a802454 g     F .text	00000588 main
0a817ac4 g     O .bss	00000004 alt_envp
0a817aa8 g     O .bss	00000004 __malloc_max_total_mem
0a80fa5c g     F .text	00000058 altera_avalon_jtag_uart_write_fd
0a801564 g     F .text	0000014c i2c_read
0a817a98 g     O .bss	00000004 record_sample_rate
0a81125c g     F .text	0000013c altera_avalon_lcd_16207_init
0a804bf0 g     F .text	00000008 __sclose
0a900000 g       *ABS*	00000000 __alt_heap_limit
0a802c38 g     F .text	00000014 fclose
0a817c20 g     O .bss	00000190 _atexit0
0a807208 g     F .text	000015b4 _dtoa_r
0a803f50 g     F .text	00000740 _malloc_r
0a815df4 g     O .rwdata	00000004 alt_errno
0a80e7b4 g     F .text	00000048 alt_write_flash_command_32bit_device_32bit_mode
0a803c28 g     F .text	000000b8 _fwalk
0a801e60 g     F .text	000000a8 ui_get_sample_rate
0a80e120 g     F .text	00000164 alt_write_value_to_flash
0a80e830 g     F .text	00000034 alt_write_native_16bit
0a802a58 g     F .text	00000060 __divsi3
0a8016b0 g     F .text	0000005c LCD_Open
09800000 g       *ABS*	00000000 __alt_mem_cfi_flash
0a813dc4 g     O .rodata	00000014 __thenan_df
0a80324c g     F .text	0000012c _malloc_trim_r
0a812fbc g       *ABS*	00000000 __CTOR_END__
0a8007a4 g     F .text	000000e0 AUDIO_LineInMute
0a80a7d8 g     F .text	000000bc strcmp
0a800718 g     F .text	0000008c AUDIO_MicMute
0a812fbc g       *ABS*	00000000 __flash_rodata_start
0a812fbc g       *ABS*	00000000 __DTOR_LIST__
0a80c07c g     F .text	00000088 __nedf2
0a80dbc0 g     F .text	00000034 alt_irq_init
0a80d8f4 g     F .text	00000060 alt_release_fd
0a804b1c g     F .text	00000074 sprintf
0a813dd8 g     O .rodata	00000100 __clz_tab
0a801a5c g     F .text	000000cc SEG7_Hex
0a801c08 g     F .text	00000030 debug_output
0a817ab4 g     O .bss	00000004 _PathLocale
0a812bb0 g     F .text	00000014 atexit
0a8022d4 g     F .text	0000011c dump_record_data
0a806dcc g     F .text	00000078 _write_r
0a808e10 g     F .text	0000001c setlocale
0a815dc8 g     O .rwdata	00000004 _impure_ptr
0a817abc g     O .bss	00000004 alt_argc
0a8118c4 g     F .text	00000064 _do_dtors
0a80368c g     F .text	0000043c _fseek_r
0a800ee0 g     F .text	00000038 AUDIO_AdcFifoNotEmpty
0a8048cc g     F .text	000001c4 __srefill_r
0a800020 g       .exceptions	00000000 alt_irq_entry
0a8092c4 g     F .text	00000080 __ulp
0a80a768 g     F .text	00000040 __isinfd
0a802f98 g     F .text	00000018 __fp_unlock_all
0a811398 g     F .text	00000058 altera_avalon_lcd_16207_write_fd
0a801df0 g     F .text	00000038 ui_is_mic_boost
0a800e9c g     F .text	00000044 AUDIO_DacFifoSetData
0a815de0 g     O .rwdata	00000008 alt_fs_list
0a801c98 g     F .text	00000080 myprintf_hex_array
0a80e6e0 g     F .text	00000048 alt_write_flash_command_32bit_device_8bit_mode
0a800020 g       *ABS*	00000000 __ram_exceptions_start
0a800910 g     F .text	000000ec AUDIO_SetSampleRate
0a808d7c g     F .text	00000010 localeconv
0a811c94 g     F .text	00000050 alt_ic_isr_register
0a803d7c g     F .text	00000040 fwrite
0a815e18 g       *ABS*	00000000 _edata
0a817db0 g       *ABS*	00000000 _end
0a811adc g     F .text	0000007c alt_flash_open_dev
0a800b18 g     F .text	0000011c AUDIO_SetLineOutVol
0a8001b4 g       *ABS*	00000000 __ram_exceptions_end
0a80ff58 g     F .text	000000f4 altera_avalon_jtag_uart_ioctl
0a811d80 g     F .text	000000a0 alt_ic_irq_disable
0a804c60 g     F .text	0000007c __swrite
0a815dd0 g     O .rwdata	00000004 __malloc_trim_threshold
0a812240 g     F .text	00000020 altera_nios2_qsys_irq_init
0a812bc4 g     F .text	00000038 exit
0a8018c4 g     F .text	0000006c LED_LightCount
0a803b60 g     F .text	000000c8 _fwalk_reent
0a8098c0 g     F .text	0000018c __mdiff
0a811b58 g     F .text	00000054 alt_flash_close_dev
0a802ab8 g     F .text	00000060 __modsi3
0a900000 g       *ABS*	00000000 __alt_data_end
0a800020 g     F .exceptions	00000000 alt_exception
0a802ed8 g     F .text	00000004 __sfp_lock_release
00000000 g       *ABS*	00000000 __alt_mem_sdram
0a813f20 g     O .rodata	00000101 _ctype_
0a80313c g     F .text	000000f4 _fopen_r
0a812f98 g     F .text	00000020 _exit
0a80a7a8 g     F .text	00000030 __isnand
0a8113f0 g     F .text	00000154 alt_alarm_start
0a80c600 g     F .text	00000098 __muldi3
0a803dbc g     F .text	00000194 __smakebuf_r
0a80e864 g     F .text	00000030 alt_write_native_32bit
0a804d3c g     F .text	00000074 strlen
0a80d58c g     F .text	00000188 open
0a800e48 g     F .text	00000054 AUDIO_DacFifoNotFull
0a80c18c g     F .text	00000088 __gedf2
0a80e028 g     F .text	00000090 alt_flash_cfi_get_info
0a811c64 g     F .text	00000030 alt_icache_flush_all
0a815df8 g     O .rwdata	00000004 alt_priority_mask
0a811ce4 g     F .text	0000009c alt_ic_irq_enable
0a806cb4 g     F .text	00000024 __vfprintf_internal
0a80b8e4 g     F .text	00000080 __subdf3
0a8091a0 g     F .text	000000c4 __lo0bits
0a815e0c g     O .rwdata	00000008 alt_alarm_list
0a811860 g     F .text	00000064 _do_ctors
0a80cc2c g     F .text	000000fc close
0a812260 g     F .text	00000068 alt_program_amd
0a80d1c8 g     F .text	00000080 alt_load
0a80c718 g     F .text	00000314 __pack_d
00000000  w      *UND*	00000000 free
0a802edc g     F .text	00000004 __sinit_lock_acquire
0a809dbc g     F .text	00000100 __multadd
0a8131c0 g     O .rodata	00000880 szMenu
0a809108 g     F .text	00000028 _Bfree



Disassembly of section .entry:

0a800000 <__reset>:
#if NIOS2_ICACHE_SIZE > 0 && defined(ALT_ALLOW_CODE_AT_RESET) && !defined(ALT_SIM_OPTIMIZE)
    /* Assume the instruction cache size is always a power of two. */
#if NIOS2_ICACHE_SIZE > 0x8000
    movhi r2, %hi(NIOS2_ICACHE_SIZE)
#else
    movui r2, NIOS2_ICACHE_SIZE
 a800000:	00840014 	movui	r2,4096
#endif

0:
    initi r2
 a800004:	1001483a 	initi	r2
    addi r2, r2, -NIOS2_ICACHE_LINE_SIZE
 a800008:	10bff804 	addi	r2,r2,-32
    bgt r2, zero, 0b
 a80000c:	00bffd16 	blt	zero,r2,a800004 <__reset+0x4>
 * Jump to the _start entry point in the .text section if reset code
 * is allowed or if optimizing for RTL simulation.
 */
#if defined(ALT_ALLOW_CODE_AT_RESET) || defined(ALT_SIM_OPTIMIZE)
    /* Jump to the _start entry point in the .text section. */
    movhi r1, %hi(_start)
 a800010:	0042a034 	movhi	at,2688
    ori r1, r1, %lo(_start)
 a800014:	08406d14 	ori	at,at,436
    jmp r1
 a800018:	0800683a 	jmp	at
 a80001c:	00000000 	call	0 <__alt_mem_sdram>

Disassembly of section .exceptions:

0a800020 <alt_exception>:
         * Process an exception.  For all exceptions we must preserve all
         * caller saved registers on the stack (See the Nios2 ABI
         * documentation for details).
         */

        addi  sp, sp, -76
 a800020:	deffed04 	addi	sp,sp,-76

#endif

#endif

        stw   ra,  0(sp)
 a800024:	dfc00015 	stw	ra,0(sp)
        /*
         * Leave a gap in the stack frame at 4(sp) for the muldiv handler to
         * store zero into.
         */

        stw   r1,   8(sp)
 a800028:	d8400215 	stw	at,8(sp)
        stw   r2,  12(sp)
 a80002c:	d8800315 	stw	r2,12(sp)
        stw   r3,  16(sp)
 a800030:	d8c00415 	stw	r3,16(sp)
        stw   r4,  20(sp)
 a800034:	d9000515 	stw	r4,20(sp)
        stw   r5,  24(sp)
 a800038:	d9400615 	stw	r5,24(sp)
        stw   r6,  28(sp)
 a80003c:	d9800715 	stw	r6,28(sp)
        stw   r7,  32(sp)
 a800040:	d9c00815 	stw	r7,32(sp)

        rdctl r5, estatus
 a800044:	000b307a 	rdctl	r5,estatus

        stw   r8,  36(sp)
 a800048:	da000915 	stw	r8,36(sp)
        stw   r9,  40(sp)
 a80004c:	da400a15 	stw	r9,40(sp)
        stw   r10, 44(sp)
 a800050:	da800b15 	stw	r10,44(sp)
        stw   r11, 48(sp)
 a800054:	dac00c15 	stw	r11,48(sp)
        stw   r12, 52(sp)
 a800058:	db000d15 	stw	r12,52(sp)
        stw   r13, 56(sp)
 a80005c:	db400e15 	stw	r13,56(sp)
        stw   r14, 60(sp)
 a800060:	db800f15 	stw	r14,60(sp)
        stw   r15, 64(sp)
 a800064:	dbc01015 	stw	r15,64(sp)
        /*
         * ea-4 contains the address of the instruction being executed
         * when the exception occured. For interrupt exceptions, we will
         * will be re-issue the isntruction. Store it in 72(sp)
         */
        stw   r5,  68(sp)  /* estatus */
 a800068:	d9401115 	stw	r5,68(sp)
        addi  r15, ea, -4  /* instruction that caused exception */
 a80006c:	ebffff04 	addi	r15,ea,-4
        stw   r15,  72(sp)
 a800070:	dbc01215 	stw	r15,72(sp)
#else
        /*
         * Test to see if the exception was a software exception or caused 
         * by an external interrupt, and vector accordingly.
         */
        rdctl r4, ipending
 a800074:	0009313a 	rdctl	r4,ipending
        andi  r2, r5, 1
 a800078:	2880004c 	andi	r2,r5,1
        beq   r2, zero, .Lnot_irq
 a80007c:	10000326 	beq	r2,zero,a80008c <alt_exception+0x6c>
        beq   r4, zero, .Lnot_irq
 a800080:	20000226 	beq	r4,zero,a80008c <alt_exception+0x6c>
        /*
         * Now that all necessary registers have been preserved, call 
         * alt_irq_handler() to process the interrupts.
         */

        call alt_irq_handler
 a800084:	a8000ec0 	call	a8000ec <alt_irq_handler>

        .section .exceptions.irqreturn, "xa"

        br    .Lexception_exit
 a800088:	00000306 	br	a800098 <alt_exception+0x78>
         * upon completion, so we write ea (address of instruction *after*
         * the one where the exception occured) into 72(sp). The actual
         * instruction that caused the exception is written in r2, which these
         * handlers will utilize.
         */
        stw   ea,  72(sp)  /* Don't re-issue */
 a80008c:	df401215 	stw	ea,72(sp)
        ldw   r2, -4(ea)   /* Instruction that caused exception */
 a800090:	e8bfff17 	ldw	r2,-4(ea)
#ifdef NIOS2_HAS_DEBUG_STUB
       /*
        *  Either tell the user now (if there is a debugger attached) or go into
        *  the debug monitor which will loop until a debugger is attached.
        */
        break
 a800094:	003da03a 	break	0
        /* 
         * Restore the saved registers, so that all general purpose registers 
         * have been restored to their state at the time the interrupt occured.
         */

        ldw   r5,  68(sp)
 a800098:	d9401117 	ldw	r5,68(sp)
        ldw   ea,  72(sp)  /* This becomes the PC once eret is executed */
 a80009c:	df401217 	ldw	ea,72(sp)
        ldw   ra,   0(sp)
 a8000a0:	dfc00017 	ldw	ra,0(sp)

        wrctl estatus, r5
 a8000a4:	2801707a 	wrctl	estatus,r5

        ldw   r1,   8(sp)
 a8000a8:	d8400217 	ldw	at,8(sp)
        ldw   r2,  12(sp)
 a8000ac:	d8800317 	ldw	r2,12(sp)
        ldw   r3,  16(sp)
 a8000b0:	d8c00417 	ldw	r3,16(sp)
        ldw   r4,  20(sp)
 a8000b4:	d9000517 	ldw	r4,20(sp)
        ldw   r5,  24(sp)
 a8000b8:	d9400617 	ldw	r5,24(sp)
        ldw   r6,  28(sp)
 a8000bc:	d9800717 	ldw	r6,28(sp)
        ldw   r7,  32(sp)
 a8000c0:	d9c00817 	ldw	r7,32(sp)
#ifdef ALT_STACK_CHECK
        ldw   et, %gprel(alt_exception_old_stack_limit)(gp)
#endif
#endif

        ldw   r8,  36(sp)
 a8000c4:	da000917 	ldw	r8,36(sp)
        ldw   r9,  40(sp)
 a8000c8:	da400a17 	ldw	r9,40(sp)
        ldw   r10, 44(sp)
 a8000cc:	da800b17 	ldw	r10,44(sp)
        ldw   r11, 48(sp)
 a8000d0:	dac00c17 	ldw	r11,48(sp)
        ldw   r12, 52(sp)
 a8000d4:	db000d17 	ldw	r12,52(sp)
        ldw   r13, 56(sp)
 a8000d8:	db400e17 	ldw	r13,56(sp)
        ldw   r14, 60(sp)
 a8000dc:	db800f17 	ldw	r14,60(sp)
        ldw   r15, 64(sp)
 a8000e0:	dbc01017 	ldw	r15,64(sp)
#endif

        ldw   sp,  76(sp)

#else
        addi  sp, sp, 76
 a8000e4:	dec01304 	addi	sp,sp,76

        /*
         * Return to the interrupted instruction.
         */

        eret
 a8000e8:	ef80083a 	eret

0a8000ec <alt_irq_handler>:
 * instruction is present if the macro ALT_CI_INTERRUPT_VECTOR defined.
 */

void alt_irq_handler (void) __attribute__ ((section (".exceptions")));
void alt_irq_handler (void)
{
 a8000ec:	defff904 	addi	sp,sp,-28
 a8000f0:	dfc00615 	stw	ra,24(sp)
 a8000f4:	df000515 	stw	fp,20(sp)
 a8000f8:	df000504 	addi	fp,sp,20
#ifndef NIOS2_EIC_PRESENT
static ALT_INLINE alt_u32 ALT_ALWAYS_INLINE alt_irq_pending (void)
{
  alt_u32 active;

  NIOS2_READ_IPENDING (active);
 a8000fc:	0005313a 	rdctl	r2,ipending
 a800100:	e0bffc15 	stw	r2,-16(fp)

  return active;
 a800104:	e0bffc17 	ldw	r2,-16(fp)
   * Consider the case where the high priority interupt is asserted during
   * the interrupt entry sequence for a lower priority interrupt to see why
   * this is the case.
   */

  active = alt_irq_pending ();
 a800108:	e0bfff15 	stw	r2,-4(fp)

  do
  {
    i = 0;
 a80010c:	e03ffd15 	stw	zero,-12(fp)
    mask = 1;
 a800110:	00800044 	movi	r2,1
 a800114:	e0bffe15 	stw	r2,-8(fp)
     * called to clear the interrupt condition.
     */

    do
    {
      if (active & mask)
 a800118:	e0ffff17 	ldw	r3,-4(fp)
 a80011c:	e0bffe17 	ldw	r2,-8(fp)
 a800120:	1884703a 	and	r2,r3,r2
 a800124:	1005003a 	cmpeq	r2,r2,zero
 a800128:	1000161e 	bne	r2,zero,a800184 <alt_irq_handler+0x98>
      { 
#ifdef ALT_ENHANCED_INTERRUPT_API_PRESENT
        alt_irq[i].handler(alt_irq[i].context); 
 a80012c:	e0bffd17 	ldw	r2,-12(fp)
 a800130:	00c2a074 	movhi	r3,2689
 a800134:	18dec804 	addi	r3,r3,31520
 a800138:	100490fa 	slli	r2,r2,3
 a80013c:	10c5883a 	add	r2,r2,r3
 a800140:	11400017 	ldw	r5,0(r2)
 a800144:	e0bffd17 	ldw	r2,-12(fp)
 a800148:	00c2a074 	movhi	r3,2689
 a80014c:	18dec804 	addi	r3,r3,31520
 a800150:	100490fa 	slli	r2,r2,3
 a800154:	10c5883a 	add	r2,r2,r3
 a800158:	10800104 	addi	r2,r2,4
 a80015c:	11000017 	ldw	r4,0(r2)
 a800160:	283ee83a 	callr	r5
#ifndef NIOS2_EIC_PRESENT
static ALT_INLINE alt_u32 ALT_ALWAYS_INLINE alt_irq_pending (void)
{
  alt_u32 active;

  NIOS2_READ_IPENDING (active);
 a800164:	0005313a 	rdctl	r2,ipending
 a800168:	e0bffb15 	stw	r2,-20(fp)

  return active;
 a80016c:	e0bffb17 	ldw	r2,-20(fp)
      mask <<= 1;
      i++;

    } while (1);

    active = alt_irq_pending ();
 a800170:	e0bfff15 	stw	r2,-4(fp)
    
  } while (active);
 a800174:	e0bfff17 	ldw	r2,-4(fp)
 a800178:	1004c03a 	cmpne	r2,r2,zero
 a80017c:	103fe31e 	bne	r2,zero,a80010c <alt_irq_handler+0x20>
 a800180:	00000706 	br	a8001a0 <alt_irq_handler+0xb4>
#else
        alt_irq[i].handler(alt_irq[i].context, i); 
#endif
        break;
      }
      mask <<= 1;
 a800184:	e0bffe17 	ldw	r2,-8(fp)
 a800188:	1085883a 	add	r2,r2,r2
 a80018c:	e0bffe15 	stw	r2,-8(fp)
      i++;
 a800190:	e0bffd17 	ldw	r2,-12(fp)
 a800194:	10800044 	addi	r2,r2,1
 a800198:	e0bffd15 	stw	r2,-12(fp)

    } while (1);
 a80019c:	003fde06 	br	a800118 <alt_irq_handler+0x2c>
  /*
   * Notify the operating system that interrupt processing is complete.
   */ 

  ALT_OS_INT_EXIT();
}
 a8001a0:	e037883a 	mov	sp,fp
 a8001a4:	dfc00117 	ldw	ra,4(sp)
 a8001a8:	df000017 	ldw	fp,0(sp)
 a8001ac:	dec00204 	addi	sp,sp,8
 a8001b0:	f800283a 	ret

Disassembly of section .text:

0a8001b4 <_start>:

    /* Assume the data cache size is always a power of two. */
#if NIOS2_DCACHE_SIZE > 0x8000
    movhi r2, %hi(NIOS2_DCACHE_SIZE)
#else
    movui r2, NIOS2_DCACHE_SIZE
 a8001b4:	00820014 	movui	r2,2048
#endif

0:
    initd 0(r2)
 a8001b8:	10000033 	initd	0(r2)
    addi r2, r2, -NIOS2_DCACHE_LINE_SIZE
 a8001bc:	10bff804 	addi	r2,r2,-32
    bgt r2, zero, 0b
 a8001c0:	00bffd16 	blt	zero,r2,a8001b8 <_start+0x4>
#if (NIOS2_NUM_OF_SHADOW_REG_SETS == 0)    
    /*
     * Now that the caches are initialized, set up the stack pointer.
     * The value provided by the linker is assumed to be correctly aligned.
     */
    movhi sp, %hi(__alt_stack_pointer)
 a8001c4:	06c2a434 	movhi	sp,2704
    ori sp, sp, %lo(__alt_stack_pointer)
 a8001c8:	dec00014 	ori	sp,sp,0

    /* Set up the global pointer. */
    movhi gp, %hi(_gp)
 a8001cc:	0682a074 	movhi	gp,2689
    ori gp, gp, %lo(_gp)
 a8001d0:	d6b77214 	ori	gp,gp,56776
 */
#ifndef ALT_SIM_OPTIMIZE
    /* Log that the BSS is about to be cleared. */
    ALT_LOG_PUTS(alt_log_msg_bss)

    movhi r2, %hi(__bss_start)
 a8001d4:	0082a074 	movhi	r2,2689
    ori r2, r2, %lo(__bss_start)
 a8001d8:	109ea314 	ori	r2,r2,31372

    movhi r3, %hi(__bss_end)
 a8001dc:	00c2a074 	movhi	r3,2689
    ori r3, r3, %lo(__bss_end)
 a8001e0:	18df6c14 	ori	r3,r3,32176

    beq r2, r3, 1f
 a8001e4:	10c00326 	beq	r2,r3,a8001f4 <_start+0x40>

0:
    stw zero, (r2)
 a8001e8:	10000015 	stw	zero,0(r2)
    addi r2, r2, 4
 a8001ec:	10800104 	addi	r2,r2,4
    bltu r2, r3, 0b
 a8001f0:	10fffd36 	bltu	r2,r3,a8001e8 <_start+0x34>
     * section aren't defined until alt_load() has been called).
     */
    mov   et, zero
#endif

    call alt_load
 a8001f4:	a80d1c80 	call	a80d1c8 <alt_load>

    /* Log that alt_main is about to be called. */
    ALT_LOG_PUTS(alt_log_msg_alt_main)

    /* Call the C entry point. It should never return. */
    call alt_main
 a8001f8:	a80d4040 	call	a80d404 <alt_main>

0a8001fc <alt_after_alt_main>:

    /* Wait in infinite loop in case alt_main does return. */
alt_after_alt_main:
    br alt_after_alt_main
 a8001fc:	003fff06 	br	a8001fc <alt_after_alt_main>

0a800200 <AUDIO_Init>:

/////////////////////////////////////////////////////////////////////////
///////////// External function body ////////////////////////////////////
/////////////////////////////////////////////////////////////////////////

bool AUDIO_Init(void){
 a800200:	defffc04 	addi	sp,sp,-16
 a800204:	dfc00315 	stw	ra,12(sp)
 a800208:	df000215 	stw	fp,8(sp)
 a80020c:	df000204 	addi	fp,sp,8
   bool bSuccess = TRUE;
 a800210:	00800044 	movi	r2,1
 a800214:	e0bffe15 	stw	r2,-8(fp)
    AUDIO_DEBUG(("[AUDIO] AUDIO_Init...\r\n"));
 a800218:	0102a074 	movhi	r4,2689
 a80021c:	210bef04 	addi	r4,r4,12220
 a800220:	a801c380 	call	a801c38 <myprintf>

    if (bSuccess)
 a800224:	e0bffe17 	ldw	r2,-8(fp)
 a800228:	1005003a 	cmpeq	r2,r2,zero
 a80022c:	1000041e 	bne	r2,zero,a800240 <AUDIO_Init+0x40>
        bSuccess = aduio_RegWrite(15, 0x0000);  // reset
 a800230:	010003c4 	movi	r4,15
 a800234:	000b883a 	mov	r5,zero
 a800238:	a800d4c0 	call	a800d4c <aduio_RegWrite>
 a80023c:	e0bffe15 	stw	r2,-8(fp)
        
    if (bSuccess)
 a800240:	e0bffe17 	ldw	r2,-8(fp)
 a800244:	1005003a 	cmpeq	r2,r2,zero
 a800248:	1000041e 	bne	r2,zero,a80025c <AUDIO_Init+0x5c>
        bSuccess = aduio_RegWrite(9, 0x0000);  // inactive interface         
 a80024c:	01000244 	movi	r4,9
 a800250:	000b883a 	mov	r5,zero
 a800254:	a800d4c0 	call	a800d4c <aduio_RegWrite>
 a800258:	e0bffe15 	stw	r2,-8(fp)
       
    //usleep(20*1000);    
    if (bSuccess)
 a80025c:	e0bffe17 	ldw	r2,-8(fp)
 a800260:	1005003a 	cmpeq	r2,r2,zero
 a800264:	1000041e 	bne	r2,zero,a800278 <AUDIO_Init+0x78>
        bSuccess = aduio_RegWrite(0, 0x0017);  // Left Line In: set left line in volume
 a800268:	0009883a 	mov	r4,zero
 a80026c:	014005c4 	movi	r5,23
 a800270:	a800d4c0 	call	a800d4c <aduio_RegWrite>
 a800274:	e0bffe15 	stw	r2,-8(fp)
        
    if (bSuccess)
 a800278:	e0bffe17 	ldw	r2,-8(fp)
 a80027c:	1005003a 	cmpeq	r2,r2,zero
 a800280:	1000041e 	bne	r2,zero,a800294 <AUDIO_Init+0x94>
        bSuccess = aduio_RegWrite(1, 0x0017);  // Right Line In: set right line in volume
 a800284:	01000044 	movi	r4,1
 a800288:	014005c4 	movi	r5,23
 a80028c:	a800d4c0 	call	a800d4c <aduio_RegWrite>
 a800290:	e0bffe15 	stw	r2,-8(fp)
        
    if (bSuccess)
 a800294:	e0bffe17 	ldw	r2,-8(fp)
 a800298:	1005003a 	cmpeq	r2,r2,zero
 a80029c:	1000041e 	bne	r2,zero,a8002b0 <AUDIO_Init+0xb0>
        bSuccess = aduio_RegWrite(2, 0x005B);  // Left Headphone Out: set left line out volume
 a8002a0:	01000084 	movi	r4,2
 a8002a4:	014016c4 	movi	r5,91
 a8002a8:	a800d4c0 	call	a800d4c <aduio_RegWrite>
 a8002ac:	e0bffe15 	stw	r2,-8(fp)
        
    if (bSuccess)
 a8002b0:	e0bffe17 	ldw	r2,-8(fp)
 a8002b4:	1005003a 	cmpeq	r2,r2,zero
 a8002b8:	1000041e 	bne	r2,zero,a8002cc <AUDIO_Init+0xcc>
        bSuccess = aduio_RegWrite(3, 0x005B);  // Right Headphone Out: set right line out volume
 a8002bc:	010000c4 	movi	r4,3
 a8002c0:	014016c4 	movi	r5,91
 a8002c4:	a800d4c0 	call	a800d4c <aduio_RegWrite>
 a8002c8:	e0bffe15 	stw	r2,-8(fp)
        
    if (bSuccess)      
 a8002cc:	e0bffe17 	ldw	r2,-8(fp)
 a8002d0:	1005003a 	cmpeq	r2,r2,zero
 a8002d4:	1000041e 	bne	r2,zero,a8002e8 <AUDIO_Init+0xe8>
        bSuccess = aduio_RegWrite(4, 0x0015);  // Analogue Audio Path Control: set mic as input and boost it, and enable dac         
 a8002d8:	01000104 	movi	r4,4
 a8002dc:	01400544 	movi	r5,21
 a8002e0:	a800d4c0 	call	a800d4c <aduio_RegWrite>
 a8002e4:	e0bffe15 	stw	r2,-8(fp)
                
    if (bSuccess)
 a8002e8:	e0bffe17 	ldw	r2,-8(fp)
 a8002ec:	1005003a 	cmpeq	r2,r2,zero
 a8002f0:	1000041e 	bne	r2,zero,a800304 <AUDIO_Init+0x104>
        bSuccess = aduio_RegWrite(5, 0x0000);  // Digital Audio Path Control: disable soft mute         
 a8002f4:	01000144 	movi	r4,5
 a8002f8:	000b883a 	mov	r5,zero
 a8002fc:	a800d4c0 	call	a800d4c <aduio_RegWrite>
 a800300:	e0bffe15 	stw	r2,-8(fp)

    if (bSuccess)
 a800304:	e0bffe17 	ldw	r2,-8(fp)
 a800308:	1005003a 	cmpeq	r2,r2,zero
 a80030c:	1000041e 	bne	r2,zero,a800320 <AUDIO_Init+0x120>
        bSuccess = aduio_RegWrite(6, 0);  // power down control: power on all         
 a800310:	01000184 	movi	r4,6
 a800314:	000b883a 	mov	r5,zero
 a800318:	a800d4c0 	call	a800d4c <aduio_RegWrite>
 a80031c:	e0bffe15 	stw	r2,-8(fp)

    if (bSuccess)
 a800320:	e0bffe17 	ldw	r2,-8(fp)
 a800324:	1005003a 	cmpeq	r2,r2,zero
 a800328:	1000041e 	bne	r2,zero,a80033c <AUDIO_Init+0x13c>
        bSuccess = aduio_RegWrite(7, 0x0042);  // I2S, iwl=16-bits, Enable Master Mode         
 a80032c:	010001c4 	movi	r4,7
 a800330:	01401084 	movi	r5,66
 a800334:	a800d4c0 	call	a800d4c <aduio_RegWrite>
 a800338:	e0bffe15 	stw	r2,-8(fp)
//        bSuccess = aduio_RegWrite(7, 0x0041);  // MSB-First, left justified, iwl=16-bits, Enable Master Mode         

    if (bSuccess)
 a80033c:	e0bffe17 	ldw	r2,-8(fp)
 a800340:	1005003a 	cmpeq	r2,r2,zero
 a800344:	1000041e 	bne	r2,zero,a800358 <AUDIO_Init+0x158>
        bSuccess = aduio_RegWrite(8, 0x0002);  // Normal, Base OVer-Sampleing Rate 384 fs (BOSR=1)         
 a800348:	01000204 	movi	r4,8
 a80034c:	01400084 	movi	r5,2
 a800350:	a800d4c0 	call	a800d4c <aduio_RegWrite>
 a800354:	e0bffe15 	stw	r2,-8(fp)


    if (bSuccess)
 a800358:	e0bffe17 	ldw	r2,-8(fp)
 a80035c:	1005003a 	cmpeq	r2,r2,zero
 a800360:	1000041e 	bne	r2,zero,a800374 <AUDIO_Init+0x174>
        bSuccess = aduio_RegWrite(9, 0x0001);  // active interface
 a800364:	01000244 	movi	r4,9
 a800368:	01400044 	movi	r5,1
 a80036c:	a800d4c0 	call	a800d4c <aduio_RegWrite>
 a800370:	e0bffe15 	stw	r2,-8(fp)
        
        
         
    AUDIO_DEBUG(("[AUDIO] AUDIO_Init %s\r\n", bSuccess?"success":"fail"));        
 a800374:	e0bffe17 	ldw	r2,-8(fp)
 a800378:	1005003a 	cmpeq	r2,r2,zero
 a80037c:	1000041e 	bne	r2,zero,a800390 <AUDIO_Init+0x190>
 a800380:	0082a074 	movhi	r2,2689
 a800384:	108bf504 	addi	r2,r2,12244
 a800388:	e0bfff15 	stw	r2,-4(fp)
 a80038c:	00000306 	br	a80039c <AUDIO_Init+0x19c>
 a800390:	0082a074 	movhi	r2,2689
 a800394:	108bf704 	addi	r2,r2,12252
 a800398:	e0bfff15 	stw	r2,-4(fp)
 a80039c:	0102a074 	movhi	r4,2689
 a8003a0:	210bf904 	addi	r4,r4,12260
 a8003a4:	e17fff17 	ldw	r5,-4(fp)
 a8003a8:	a801c380 	call	a801c38 <myprintf>
    
    return bSuccess;        
 a8003ac:	e0bffe17 	ldw	r2,-8(fp)
         
}
 a8003b0:	e037883a 	mov	sp,fp
 a8003b4:	dfc00117 	ldw	ra,4(sp)
 a8003b8:	df000017 	ldw	fp,0(sp)
 a8003bc:	dec00204 	addi	sp,sp,8
 a8003c0:	f800283a 	ret

0a8003c4 <AUDIO_InterfaceActive>:

bool AUDIO_InterfaceActive(bool bActive){
 a8003c4:	defffc04 	addi	sp,sp,-16
 a8003c8:	dfc00315 	stw	ra,12(sp)
 a8003cc:	df000215 	stw	fp,8(sp)
 a8003d0:	df000204 	addi	fp,sp,8
 a8003d4:	e13fff15 	stw	r4,-4(fp)
    bool bSuccess;
    bSuccess = aduio_RegWrite(9, bActive?0x0001:0x0000); 
 a8003d8:	e0bfff17 	ldw	r2,-4(fp)
 a8003dc:	100ac03a 	cmpne	r5,r2,zero
 a8003e0:	01000244 	movi	r4,9
 a8003e4:	a800d4c0 	call	a800d4c <aduio_RegWrite>
 a8003e8:	e0bffe15 	stw	r2,-8(fp)
    return bSuccess;
 a8003ec:	e0bffe17 	ldw	r2,-8(fp)
}
 a8003f0:	e037883a 	mov	sp,fp
 a8003f4:	dfc00117 	ldw	ra,4(sp)
 a8003f8:	df000017 	ldw	fp,0(sp)
 a8003fc:	dec00204 	addi	sp,sp,8
 a800400:	f800283a 	ret

0a800404 <AUDIO_MicBoost>:

bool AUDIO_MicBoost(bool bBoost){
 a800404:	defffb04 	addi	sp,sp,-20
 a800408:	dfc00415 	stw	ra,16(sp)
 a80040c:	df000315 	stw	fp,12(sp)
 a800410:	df000304 	addi	fp,sp,12
 a800414:	e13fff15 	stw	r4,-4(fp)
    bool bSuccess;
    alt_u16 control;
    control = reg_file[4];
 a800418:	0082a074 	movhi	r2,2689
 a80041c:	109eb404 	addi	r2,r2,31440
 a800420:	1080020b 	ldhu	r2,8(r2)
 a800424:	e0bffd0d 	sth	r2,-12(fp)
    if (bBoost)
 a800428:	e0bfff17 	ldw	r2,-4(fp)
 a80042c:	1005003a 	cmpeq	r2,r2,zero
 a800430:	1000041e 	bne	r2,zero,a800444 <AUDIO_MicBoost+0x40>
        control |= 0x0001;
 a800434:	e0bffd0b 	ldhu	r2,-12(fp)
 a800438:	10800054 	ori	r2,r2,1
 a80043c:	e0bffd0d 	sth	r2,-12(fp)
 a800440:	00000406 	br	a800454 <AUDIO_MicBoost+0x50>
    else        
        control &= 0xFFFE;
 a800444:	00bfff84 	movi	r2,-2
 a800448:	e0fffd0b 	ldhu	r3,-12(fp)
 a80044c:	1884703a 	and	r2,r3,r2
 a800450:	e0bffd0d 	sth	r2,-12(fp)
    bSuccess = aduio_RegWrite(4, control);  // Left Line In: set left line in volume
 a800454:	e17ffd0b 	ldhu	r5,-12(fp)
 a800458:	01000104 	movi	r4,4
 a80045c:	a800d4c0 	call	a800d4c <aduio_RegWrite>
 a800460:	e0bffe15 	stw	r2,-8(fp)
    return bSuccess;
 a800464:	e0bffe17 	ldw	r2,-8(fp)
}
 a800468:	e037883a 	mov	sp,fp
 a80046c:	dfc00117 	ldw	ra,4(sp)
 a800470:	df000017 	ldw	fp,0(sp)
 a800474:	dec00204 	addi	sp,sp,8
 a800478:	f800283a 	ret

0a80047c <AUDIO_AdcEnableHighPassFilter>:

bool AUDIO_AdcEnableHighPassFilter(bool bEnable){
 a80047c:	defffb04 	addi	sp,sp,-20
 a800480:	dfc00415 	stw	ra,16(sp)
 a800484:	df000315 	stw	fp,12(sp)
 a800488:	df000304 	addi	fp,sp,12
 a80048c:	e13fff15 	stw	r4,-4(fp)
    bool bSuccess;
    alt_u16 control;
    control = reg_file[5];
 a800490:	0082a074 	movhi	r2,2689
 a800494:	109eb404 	addi	r2,r2,31440
 a800498:	1080028b 	ldhu	r2,10(r2)
 a80049c:	e0bffd0d 	sth	r2,-12(fp)
    if (bEnable)
 a8004a0:	e0bfff17 	ldw	r2,-4(fp)
 a8004a4:	1005003a 	cmpeq	r2,r2,zero
 a8004a8:	1000051e 	bne	r2,zero,a8004c0 <AUDIO_AdcEnableHighPassFilter+0x44>
        control &= 0xFFFE;
 a8004ac:	00bfff84 	movi	r2,-2
 a8004b0:	e0fffd0b 	ldhu	r3,-12(fp)
 a8004b4:	1884703a 	and	r2,r3,r2
 a8004b8:	e0bffd0d 	sth	r2,-12(fp)
 a8004bc:	00000306 	br	a8004cc <AUDIO_AdcEnableHighPassFilter+0x50>
    else        
        control |= 0x0001;
 a8004c0:	e0bffd0b 	ldhu	r2,-12(fp)
 a8004c4:	10800054 	ori	r2,r2,1
 a8004c8:	e0bffd0d 	sth	r2,-12(fp)
    bSuccess = aduio_RegWrite(5, control);  // Left Line In: set left line in volume
 a8004cc:	e17ffd0b 	ldhu	r5,-12(fp)
 a8004d0:	01000144 	movi	r4,5
 a8004d4:	a800d4c0 	call	a800d4c <aduio_RegWrite>
 a8004d8:	e0bffe15 	stw	r2,-8(fp)
    return bSuccess;    
 a8004dc:	e0bffe17 	ldw	r2,-8(fp)
}
 a8004e0:	e037883a 	mov	sp,fp
 a8004e4:	dfc00117 	ldw	ra,4(sp)
 a8004e8:	df000017 	ldw	fp,0(sp)
 a8004ec:	dec00204 	addi	sp,sp,8
 a8004f0:	f800283a 	ret

0a8004f4 <AUDIO_DacDeemphasisControl>:



bool AUDIO_DacDeemphasisControl(alt_u8 deemphasis_type){
 a8004f4:	defffa04 	addi	sp,sp,-24
 a8004f8:	dfc00515 	stw	ra,20(sp)
 a8004fc:	df000415 	stw	fp,16(sp)
 a800500:	df000404 	addi	fp,sp,16
 a800504:	e13ffe05 	stb	r4,-8(fp)
    bool bSuccess;
    alt_u16 control;
    control = reg_file[5];
 a800508:	0082a074 	movhi	r2,2689
 a80050c:	109eb404 	addi	r2,r2,31440
 a800510:	1080028b 	ldhu	r2,10(r2)
 a800514:	e0bffc0d 	sth	r2,-16(fp)
    control &= 0xFFF9;
 a800518:	00fffe44 	movi	r3,-7
 a80051c:	e0bffc0b 	ldhu	r2,-16(fp)
 a800520:	10c4703a 	and	r2,r2,r3
 a800524:	e0bffc0d 	sth	r2,-16(fp)
    switch(deemphasis_type){
 a800528:	e0bffe03 	ldbu	r2,-8(fp)
 a80052c:	e0bfff15 	stw	r2,-4(fp)
 a800530:	e0ffff17 	ldw	r3,-4(fp)
 a800534:	188000a0 	cmpeqi	r2,r3,2
 a800538:	10000b1e 	bne	r2,zero,a800568 <AUDIO_DacDeemphasisControl+0x74>
 a80053c:	e0ffff17 	ldw	r3,-4(fp)
 a800540:	188000e0 	cmpeqi	r2,r3,3
 a800544:	10000c1e 	bne	r2,zero,a800578 <AUDIO_DacDeemphasisControl+0x84>
 a800548:	e0ffff17 	ldw	r3,-4(fp)
 a80054c:	18800060 	cmpeqi	r2,r3,1
 a800550:	1000011e 	bne	r2,zero,a800558 <AUDIO_DacDeemphasisControl+0x64>
 a800554:	00000b06 	br	a800584 <AUDIO_DacDeemphasisControl+0x90>
        case DEEMPHASIS_48K: control |= ((0x03) << 1); break;
 a800558:	e0bffc0b 	ldhu	r2,-16(fp)
 a80055c:	10800194 	ori	r2,r2,6
 a800560:	e0bffc0d 	sth	r2,-16(fp)
 a800564:	00000706 	br	a800584 <AUDIO_DacDeemphasisControl+0x90>
        case DEEMPHASIS_44K1: control |= ((0x02) << 1); break;
 a800568:	e0bffc0b 	ldhu	r2,-16(fp)
 a80056c:	10800114 	ori	r2,r2,4
 a800570:	e0bffc0d 	sth	r2,-16(fp)
 a800574:	00000306 	br	a800584 <AUDIO_DacDeemphasisControl+0x90>
        case DEEMPHASIS_32K: control |= ((0x01) << 1); break;
 a800578:	e0bffc0b 	ldhu	r2,-16(fp)
 a80057c:	10800094 	ori	r2,r2,2
 a800580:	e0bffc0d 	sth	r2,-16(fp)
    }
    bSuccess = aduio_RegWrite(5, control);  // Left Line In: set left line in volume
 a800584:	e17ffc0b 	ldhu	r5,-16(fp)
 a800588:	01000144 	movi	r4,5
 a80058c:	a800d4c0 	call	a800d4c <aduio_RegWrite>
 a800590:	e0bffd15 	stw	r2,-12(fp)
    return bSuccess;       
 a800594:	e0bffd17 	ldw	r2,-12(fp)
}
 a800598:	e037883a 	mov	sp,fp
 a80059c:	dfc00117 	ldw	ra,4(sp)
 a8005a0:	df000017 	ldw	fp,0(sp)
 a8005a4:	dec00204 	addi	sp,sp,8
 a8005a8:	f800283a 	ret

0a8005ac <AUDIO_DacEnableZeroCross>:

bool AUDIO_DacEnableZeroCross(bool bEnable){
 a8005ac:	defffa04 	addi	sp,sp,-24
 a8005b0:	dfc00515 	stw	ra,20(sp)
 a8005b4:	df000415 	stw	fp,16(sp)
 a8005b8:	df000404 	addi	fp,sp,16
 a8005bc:	e13fff15 	stw	r4,-4(fp)
    bool bSuccess;
    alt_u16 control_l, control_r;
    alt_u16 mask;
    control_l = reg_file[2];
 a8005c0:	0082a074 	movhi	r2,2689
 a8005c4:	109eb404 	addi	r2,r2,31440
 a8005c8:	1080010b 	ldhu	r2,4(r2)
 a8005cc:	e0bffd0d 	sth	r2,-12(fp)
    control_r = reg_file[3];
 a8005d0:	0082a074 	movhi	r2,2689
 a8005d4:	109eb404 	addi	r2,r2,31440
 a8005d8:	1080018b 	ldhu	r2,6(r2)
 a8005dc:	e0bffc8d 	sth	r2,-14(fp)
    mask = 0x01 << 7;
 a8005e0:	00802004 	movi	r2,128
 a8005e4:	e0bffc0d 	sth	r2,-16(fp)
    if (bEnable){
 a8005e8:	e0bfff17 	ldw	r2,-4(fp)
 a8005ec:	1005003a 	cmpeq	r2,r2,zero
 a8005f0:	1000091e 	bne	r2,zero,a800618 <AUDIO_DacEnableZeroCross+0x6c>
        control_l |= mask;
 a8005f4:	e0fffd0b 	ldhu	r3,-12(fp)
 a8005f8:	e0bffc0b 	ldhu	r2,-16(fp)
 a8005fc:	1884b03a 	or	r2,r3,r2
 a800600:	e0bffd0d 	sth	r2,-12(fp)
        control_r |= mask;
 a800604:	e0fffc8b 	ldhu	r3,-14(fp)
 a800608:	e0bffc0b 	ldhu	r2,-16(fp)
 a80060c:	1884b03a 	or	r2,r3,r2
 a800610:	e0bffc8d 	sth	r2,-14(fp)
 a800614:	00000c06 	br	a800648 <AUDIO_DacEnableZeroCross+0x9c>
    }else{        
        control_l &= ~mask;
 a800618:	e0bffc0b 	ldhu	r2,-16(fp)
 a80061c:	0084303a 	nor	r2,zero,r2
 a800620:	1007883a 	mov	r3,r2
 a800624:	e0bffd0b 	ldhu	r2,-12(fp)
 a800628:	1884703a 	and	r2,r3,r2
 a80062c:	e0bffd0d 	sth	r2,-12(fp)
        control_r &= ~mask;
 a800630:	e0bffc0b 	ldhu	r2,-16(fp)
 a800634:	0084303a 	nor	r2,zero,r2
 a800638:	1007883a 	mov	r3,r2
 a80063c:	e0bffc8b 	ldhu	r2,-14(fp)
 a800640:	1884703a 	and	r2,r3,r2
 a800644:	e0bffc8d 	sth	r2,-14(fp)
    }        
    bSuccess = aduio_RegWrite(2, control_l);  // Left Line In: set left line in volume
 a800648:	e17ffd0b 	ldhu	r5,-12(fp)
 a80064c:	01000084 	movi	r4,2
 a800650:	a800d4c0 	call	a800d4c <aduio_RegWrite>
 a800654:	e0bffe15 	stw	r2,-8(fp)
    if (bSuccess)
 a800658:	e0bffe17 	ldw	r2,-8(fp)
 a80065c:	1005003a 	cmpeq	r2,r2,zero
 a800660:	1000041e 	bne	r2,zero,a800674 <AUDIO_DacEnableZeroCross+0xc8>
        bSuccess = aduio_RegWrite(3, control_r);  // Left Line In: set left line in volume
 a800664:	e17ffc8b 	ldhu	r5,-14(fp)
 a800668:	010000c4 	movi	r4,3
 a80066c:	a800d4c0 	call	a800d4c <aduio_RegWrite>
 a800670:	e0bffe15 	stw	r2,-8(fp)
    return bSuccess;      
 a800674:	e0bffe17 	ldw	r2,-8(fp)
}
 a800678:	e037883a 	mov	sp,fp
 a80067c:	dfc00117 	ldw	ra,4(sp)
 a800680:	df000017 	ldw	fp,0(sp)
 a800684:	dec00204 	addi	sp,sp,8
 a800688:	f800283a 	ret

0a80068c <AUDIO_DacEnableSoftMute>:

bool AUDIO_DacEnableSoftMute(bool bEnable){
 a80068c:	defffb04 	addi	sp,sp,-20
 a800690:	dfc00415 	stw	ra,16(sp)
 a800694:	df000315 	stw	fp,12(sp)
 a800698:	df000304 	addi	fp,sp,12
 a80069c:	e13fff15 	stw	r4,-4(fp)
    bool bSuccess;
    alt_u16 control;
    alt_u16 mask;
    control = reg_file[5];
 a8006a0:	0082a074 	movhi	r2,2689
 a8006a4:	109eb404 	addi	r2,r2,31440
 a8006a8:	1080028b 	ldhu	r2,10(r2)
 a8006ac:	e0bffd8d 	sth	r2,-10(fp)
    mask = 0x01 << 3;
 a8006b0:	00800204 	movi	r2,8
 a8006b4:	e0bffd0d 	sth	r2,-12(fp)
    if (bEnable)
 a8006b8:	e0bfff17 	ldw	r2,-4(fp)
 a8006bc:	1005003a 	cmpeq	r2,r2,zero
 a8006c0:	1000051e 	bne	r2,zero,a8006d8 <AUDIO_DacEnableSoftMute+0x4c>
        control |= mask;
 a8006c4:	e0bffd8b 	ldhu	r2,-10(fp)
 a8006c8:	e0fffd0b 	ldhu	r3,-12(fp)
 a8006cc:	10c4b03a 	or	r2,r2,r3
 a8006d0:	e0bffd8d 	sth	r2,-10(fp)
 a8006d4:	00000606 	br	a8006f0 <AUDIO_DacEnableSoftMute+0x64>
    else        
        control &= ~mask;
 a8006d8:	e0bffd0b 	ldhu	r2,-12(fp)
 a8006dc:	0084303a 	nor	r2,zero,r2
 a8006e0:	1007883a 	mov	r3,r2
 a8006e4:	e0bffd8b 	ldhu	r2,-10(fp)
 a8006e8:	1884703a 	and	r2,r3,r2
 a8006ec:	e0bffd8d 	sth	r2,-10(fp)
    bSuccess = aduio_RegWrite(5, control);  // Left Line In: set left line in volume
 a8006f0:	e17ffd8b 	ldhu	r5,-10(fp)
 a8006f4:	01000144 	movi	r4,5
 a8006f8:	a800d4c0 	call	a800d4c <aduio_RegWrite>
 a8006fc:	e0bffe15 	stw	r2,-8(fp)
    return bSuccess;      
 a800700:	e0bffe17 	ldw	r2,-8(fp)
}
 a800704:	e037883a 	mov	sp,fp
 a800708:	dfc00117 	ldw	ra,4(sp)
 a80070c:	df000017 	ldw	fp,0(sp)
 a800710:	dec00204 	addi	sp,sp,8
 a800714:	f800283a 	ret

0a800718 <AUDIO_MicMute>:

bool AUDIO_MicMute(bool bMute){
 a800718:	defffb04 	addi	sp,sp,-20
 a80071c:	dfc00415 	stw	ra,16(sp)
 a800720:	df000315 	stw	fp,12(sp)
 a800724:	df000304 	addi	fp,sp,12
 a800728:	e13fff15 	stw	r4,-4(fp)
    bool bSuccess;
    alt_u16 control;
    alt_u16 mask;
    control = reg_file[4];
 a80072c:	0082a074 	movhi	r2,2689
 a800730:	109eb404 	addi	r2,r2,31440
 a800734:	1080020b 	ldhu	r2,8(r2)
 a800738:	e0bffd8d 	sth	r2,-10(fp)
    mask = 0x01 << 1;
 a80073c:	00800084 	movi	r2,2
 a800740:	e0bffd0d 	sth	r2,-12(fp)
    if (bMute)
 a800744:	e0bfff17 	ldw	r2,-4(fp)
 a800748:	1005003a 	cmpeq	r2,r2,zero
 a80074c:	1000051e 	bne	r2,zero,a800764 <AUDIO_MicMute+0x4c>
        control |= mask;
 a800750:	e0bffd8b 	ldhu	r2,-10(fp)
 a800754:	e0fffd0b 	ldhu	r3,-12(fp)
 a800758:	10c4b03a 	or	r2,r2,r3
 a80075c:	e0bffd8d 	sth	r2,-10(fp)
 a800760:	00000606 	br	a80077c <AUDIO_MicMute+0x64>
    else        
        control &= ~mask;
 a800764:	e0bffd0b 	ldhu	r2,-12(fp)
 a800768:	0084303a 	nor	r2,zero,r2
 a80076c:	1007883a 	mov	r3,r2
 a800770:	e0bffd8b 	ldhu	r2,-10(fp)
 a800774:	1884703a 	and	r2,r3,r2
 a800778:	e0bffd8d 	sth	r2,-10(fp)
    bSuccess = aduio_RegWrite(4, control);  // Left Line In: set left line in volume
 a80077c:	e17ffd8b 	ldhu	r5,-10(fp)
 a800780:	01000104 	movi	r4,4
 a800784:	a800d4c0 	call	a800d4c <aduio_RegWrite>
 a800788:	e0bffe15 	stw	r2,-8(fp)
    return bSuccess;        
 a80078c:	e0bffe17 	ldw	r2,-8(fp)
}
 a800790:	e037883a 	mov	sp,fp
 a800794:	dfc00117 	ldw	ra,4(sp)
 a800798:	df000017 	ldw	fp,0(sp)
 a80079c:	dec00204 	addi	sp,sp,8
 a8007a0:	f800283a 	ret

0a8007a4 <AUDIO_LineInMute>:

bool AUDIO_LineInMute(bool bMute){
 a8007a4:	defffa04 	addi	sp,sp,-24
 a8007a8:	dfc00515 	stw	ra,20(sp)
 a8007ac:	df000415 	stw	fp,16(sp)
 a8007b0:	df000404 	addi	fp,sp,16
 a8007b4:	e13fff15 	stw	r4,-4(fp)
    bool bSuccess;
    alt_u16 control_l, control_r;
    alt_u16 mask;
    control_l = reg_file[0];
 a8007b8:	0082a074 	movhi	r2,2689
 a8007bc:	109eb404 	addi	r2,r2,31440
 a8007c0:	1080000b 	ldhu	r2,0(r2)
 a8007c4:	e0bffd0d 	sth	r2,-12(fp)
    control_r = reg_file[1];
 a8007c8:	0082a074 	movhi	r2,2689
 a8007cc:	109eb404 	addi	r2,r2,31440
 a8007d0:	1080008b 	ldhu	r2,2(r2)
 a8007d4:	e0bffc8d 	sth	r2,-14(fp)
    mask = 0x01 << 7;
 a8007d8:	00802004 	movi	r2,128
 a8007dc:	e0bffc0d 	sth	r2,-16(fp)
    if (bMute){
 a8007e0:	e0bfff17 	ldw	r2,-4(fp)
 a8007e4:	1005003a 	cmpeq	r2,r2,zero
 a8007e8:	1000091e 	bne	r2,zero,a800810 <AUDIO_LineInMute+0x6c>
        control_l |= mask;
 a8007ec:	e0fffd0b 	ldhu	r3,-12(fp)
 a8007f0:	e0bffc0b 	ldhu	r2,-16(fp)
 a8007f4:	1884b03a 	or	r2,r3,r2
 a8007f8:	e0bffd0d 	sth	r2,-12(fp)
        control_r |= mask;
 a8007fc:	e0fffc8b 	ldhu	r3,-14(fp)
 a800800:	e0bffc0b 	ldhu	r2,-16(fp)
 a800804:	1884b03a 	or	r2,r3,r2
 a800808:	e0bffc8d 	sth	r2,-14(fp)
 a80080c:	00000c06 	br	a800840 <AUDIO_LineInMute+0x9c>
    }else{        
        control_l &= ~mask;
 a800810:	e0bffc0b 	ldhu	r2,-16(fp)
 a800814:	0084303a 	nor	r2,zero,r2
 a800818:	1007883a 	mov	r3,r2
 a80081c:	e0bffd0b 	ldhu	r2,-12(fp)
 a800820:	1884703a 	and	r2,r3,r2
 a800824:	e0bffd0d 	sth	r2,-12(fp)
        control_r &= ~mask;
 a800828:	e0bffc0b 	ldhu	r2,-16(fp)
 a80082c:	0084303a 	nor	r2,zero,r2
 a800830:	1007883a 	mov	r3,r2
 a800834:	e0bffc8b 	ldhu	r2,-14(fp)
 a800838:	1884703a 	and	r2,r3,r2
 a80083c:	e0bffc8d 	sth	r2,-14(fp)
    }        
    bSuccess = aduio_RegWrite(0, control_l);  // Left Line In: set left line in volume
 a800840:	e17ffd0b 	ldhu	r5,-12(fp)
 a800844:	0009883a 	mov	r4,zero
 a800848:	a800d4c0 	call	a800d4c <aduio_RegWrite>
 a80084c:	e0bffe15 	stw	r2,-8(fp)
    if (bSuccess)
 a800850:	e0bffe17 	ldw	r2,-8(fp)
 a800854:	1005003a 	cmpeq	r2,r2,zero
 a800858:	1000041e 	bne	r2,zero,a80086c <AUDIO_LineInMute+0xc8>
        bSuccess = aduio_RegWrite(1, control_r);  // Left Line In: set left line in volume
 a80085c:	e17ffc8b 	ldhu	r5,-14(fp)
 a800860:	01000044 	movi	r4,1
 a800864:	a800d4c0 	call	a800d4c <aduio_RegWrite>
 a800868:	e0bffe15 	stw	r2,-8(fp)
    return bSuccess;        
 a80086c:	e0bffe17 	ldw	r2,-8(fp)
}
 a800870:	e037883a 	mov	sp,fp
 a800874:	dfc00117 	ldw	ra,4(sp)
 a800878:	df000017 	ldw	fp,0(sp)
 a80087c:	dec00204 	addi	sp,sp,8
 a800880:	f800283a 	ret

0a800884 <AUDIO_SetInputSource>:



bool AUDIO_SetInputSource(alt_u8 InputSource){
 a800884:	defffb04 	addi	sp,sp,-20
 a800888:	dfc00415 	stw	ra,16(sp)
 a80088c:	df000315 	stw	fp,12(sp)
 a800890:	df000304 	addi	fp,sp,12
 a800894:	e13fff05 	stb	r4,-4(fp)
    bool bSuccess;
    alt_u16 control;
    alt_u16 mask;
    control = reg_file[4];
 a800898:	0082a074 	movhi	r2,2689
 a80089c:	109eb404 	addi	r2,r2,31440
 a8008a0:	1080020b 	ldhu	r2,8(r2)
 a8008a4:	e0bffd8d 	sth	r2,-10(fp)
    mask = 0x01 << 2;
 a8008a8:	00800104 	movi	r2,4
 a8008ac:	e0bffd0d 	sth	r2,-12(fp)
    if (InputSource == SOURCE_MIC)
 a8008b0:	e0bfff03 	ldbu	r2,-4(fp)
 a8008b4:	1004c03a 	cmpne	r2,r2,zero
 a8008b8:	1000051e 	bne	r2,zero,a8008d0 <AUDIO_SetInputSource+0x4c>
        control |= mask;
 a8008bc:	e0bffd8b 	ldhu	r2,-10(fp)
 a8008c0:	e0fffd0b 	ldhu	r3,-12(fp)
 a8008c4:	10c4b03a 	or	r2,r2,r3
 a8008c8:	e0bffd8d 	sth	r2,-10(fp)
 a8008cc:	00000606 	br	a8008e8 <AUDIO_SetInputSource+0x64>
    else        
        control &= ~mask;
 a8008d0:	e0bffd0b 	ldhu	r2,-12(fp)
 a8008d4:	0084303a 	nor	r2,zero,r2
 a8008d8:	1007883a 	mov	r3,r2
 a8008dc:	e0bffd8b 	ldhu	r2,-10(fp)
 a8008e0:	1884703a 	and	r2,r3,r2
 a8008e4:	e0bffd8d 	sth	r2,-10(fp)
    bSuccess = aduio_RegWrite(4, control);  // Left Line In: set left line in volume
 a8008e8:	e17ffd8b 	ldhu	r5,-10(fp)
 a8008ec:	01000104 	movi	r4,4
 a8008f0:	a800d4c0 	call	a800d4c <aduio_RegWrite>
 a8008f4:	e0bffe15 	stw	r2,-8(fp)
    return bSuccess;       
 a8008f8:	e0bffe17 	ldw	r2,-8(fp)
}
 a8008fc:	e037883a 	mov	sp,fp
 a800900:	dfc00117 	ldw	ra,4(sp)
 a800904:	df000017 	ldw	fp,0(sp)
 a800908:	dec00204 	addi	sp,sp,8
 a80090c:	f800283a 	ret

0a800910 <AUDIO_SetSampleRate>:

// See datasheet page 39
bool AUDIO_SetSampleRate(alt_u8 SampleRate){
 a800910:	defffa04 	addi	sp,sp,-24
 a800914:	dfc00515 	stw	ra,20(sp)
 a800918:	df000415 	stw	fp,16(sp)
 a80091c:	df000404 	addi	fp,sp,16
 a800920:	e13ffe05 	stb	r4,-8(fp)
    bool bSuccess;
    alt_u16 control;
    control = 0;
 a800924:	e03ffc0d 	sth	zero,-16(fp)

    switch(SampleRate){
 a800928:	e0bffe03 	ldbu	r2,-8(fp)
 a80092c:	e0bfff15 	stw	r2,-4(fp)
 a800930:	e0ffff17 	ldw	r3,-4(fp)
 a800934:	188001e8 	cmpgeui	r2,r3,7
 a800938:	1000231e 	bne	r2,zero,a8009c8 <AUDIO_SetSampleRate+0xb8>
 a80093c:	e13fff17 	ldw	r4,-4(fp)
 a800940:	e13fff17 	ldw	r4,-4(fp)
 a800944:	2105883a 	add	r2,r4,r4
 a800948:	1087883a 	add	r3,r2,r2
 a80094c:	0082a034 	movhi	r2,2688
 a800950:	10825804 	addi	r2,r2,2400
 a800954:	1885883a 	add	r2,r3,r2
 a800958:	10800017 	ldw	r2,0(r2)
 a80095c:	1000683a 	jmp	r2
 a800960:	0a80097c 	xorhi	r10,at,37
 a800964:	0a800984 	addi	r10,at,38
 a800968:	0a800990 	cmplti	r10,at,38
 a80096c:	0a80099c 	xori	r10,at,38
 a800970:	0a8009a8 	cmpgeui	r10,at,38
 a800974:	0a8009b4 	orhi	r10,at,38
 a800978:	0a8009c0 	call	a8009c <__alt_mem_sdram+0xa8009c>
         // MCLK = 18.432
        case RATE_ADC48K_DAC48K: control = (0x0) << 2; break;
 a80097c:	e03ffc0d 	sth	zero,-16(fp)
 a800980:	00001106 	br	a8009c8 <AUDIO_SetSampleRate+0xb8>
        case RATE_ADC48K_DAC8K: control = (0x1) << 2; break;
 a800984:	00800104 	movi	r2,4
 a800988:	e0bffc0d 	sth	r2,-16(fp)
 a80098c:	00000e06 	br	a8009c8 <AUDIO_SetSampleRate+0xb8>
        case RATE_ADC8K_DAC48K: control = (0x2) << 2; break;
 a800990:	00800204 	movi	r2,8
 a800994:	e0bffc0d 	sth	r2,-16(fp)
 a800998:	00000b06 	br	a8009c8 <AUDIO_SetSampleRate+0xb8>
        case RATE_ADC8K_DAC8K: control = (0x3) << 2; break;
 a80099c:	00800304 	movi	r2,12
 a8009a0:	e0bffc0d 	sth	r2,-16(fp)
 a8009a4:	00000806 	br	a8009c8 <AUDIO_SetSampleRate+0xb8>
        case RATE_ADC32K_DAC32K: control = (0x6) << 2; break;
 a8009a8:	00800604 	movi	r2,24
 a8009ac:	e0bffc0d 	sth	r2,-16(fp)
 a8009b0:	00000506 	br	a8009c8 <AUDIO_SetSampleRate+0xb8>
        case RATE_ADC96K_DAC96K: control = (0x7) << 2; break;
 a8009b4:	00800704 	movi	r2,28
 a8009b8:	e0bffc0d 	sth	r2,-16(fp)
 a8009bc:	00000206 	br	a8009c8 <AUDIO_SetSampleRate+0xb8>
        case RATE_ADC44K1_DAC44K1: control = (0x8) << 2; break;
 a8009c0:	00800804 	movi	r2,32
 a8009c4:	e0bffc0d 	sth	r2,-16(fp)
        // MCLK = 11.2896
      //  case RATE_ADC44K1_DAC8K: control = (0x9) << 2; break;
      //  case RATE_ADC8K_DAC44K1: control = (0xA) << 2; break;
    }
    control |= 0x02; // BOSR=1 (384fs = 384*48k = 18.432M)
 a8009c8:	e0bffc0b 	ldhu	r2,-16(fp)
 a8009cc:	10800094 	ori	r2,r2,2
 a8009d0:	e0bffc0d 	sth	r2,-16(fp)
        
    bSuccess = aduio_RegWrite(8, control);  // Left Line In: set left line in volume
 a8009d4:	e17ffc0b 	ldhu	r5,-16(fp)
 a8009d8:	01000204 	movi	r4,8
 a8009dc:	a800d4c0 	call	a800d4c <aduio_RegWrite>
 a8009e0:	e0bffd15 	stw	r2,-12(fp)
    return bSuccess;      
 a8009e4:	e0bffd17 	ldw	r2,-12(fp)
}
 a8009e8:	e037883a 	mov	sp,fp
 a8009ec:	dfc00117 	ldw	ra,4(sp)
 a8009f0:	df000017 	ldw	fp,0(sp)
 a8009f4:	dec00204 	addi	sp,sp,8
 a8009f8:	f800283a 	ret

0a8009fc <AUDIO_SetLineInVol>:





bool AUDIO_SetLineInVol(alt_u16 l_vol, alt_u16 r_vol){
 a8009fc:	defff704 	addi	sp,sp,-36
 a800a00:	dfc00815 	stw	ra,32(sp)
 a800a04:	df000715 	stw	fp,28(sp)
 a800a08:	df000704 	addi	fp,sp,28
 a800a0c:	e13ffb0d 	sth	r4,-20(fp)
 a800a10:	e17ffc0d 	sth	r5,-16(fp)
    bool bSuccess;
    alt_u16 control;
    
    // left
    control = reg_file[0];
 a800a14:	0082a074 	movhi	r2,2689
 a800a18:	109eb404 	addi	r2,r2,31440
 a800a1c:	1080000b 	ldhu	r2,0(r2)
 a800a20:	e0bff90d 	sth	r2,-28(fp)
    control &= 0xFFE0;
 a800a24:	00fff804 	movi	r3,-32
 a800a28:	e0bff90b 	ldhu	r2,-28(fp)
 a800a2c:	10c4703a 	and	r2,r2,r3
 a800a30:	e0bff90d 	sth	r2,-28(fp)
    control += l_vol & 0x1F;
 a800a34:	e0bffb0b 	ldhu	r2,-20(fp)
 a800a38:	108007cc 	andi	r2,r2,31
 a800a3c:	1007883a 	mov	r3,r2
 a800a40:	e0bff90b 	ldhu	r2,-28(fp)
 a800a44:	10c5883a 	add	r2,r2,r3
 a800a48:	e0bff90d 	sth	r2,-28(fp)
    bSuccess = aduio_RegWrite(0, control);
 a800a4c:	e17ff90b 	ldhu	r5,-28(fp)
 a800a50:	0009883a 	mov	r4,zero
 a800a54:	a800d4c0 	call	a800d4c <aduio_RegWrite>
 a800a58:	e0bffa15 	stw	r2,-24(fp)
    
    if (bSuccess){
 a800a5c:	e0bffa17 	ldw	r2,-24(fp)
 a800a60:	1005003a 	cmpeq	r2,r2,zero
 a800a64:	1000121e 	bne	r2,zero,a800ab0 <AUDIO_SetLineInVol+0xb4>
        // right
        control = reg_file[1];
 a800a68:	0082a074 	movhi	r2,2689
 a800a6c:	109eb404 	addi	r2,r2,31440
 a800a70:	1080008b 	ldhu	r2,2(r2)
 a800a74:	e0bff90d 	sth	r2,-28(fp)
        control &= 0xFFE0;
 a800a78:	00fff804 	movi	r3,-32
 a800a7c:	e0bff90b 	ldhu	r2,-28(fp)
 a800a80:	10c4703a 	and	r2,r2,r3
 a800a84:	e0bff90d 	sth	r2,-28(fp)
        control += r_vol & 0x1F;
 a800a88:	e0bffc0b 	ldhu	r2,-16(fp)
 a800a8c:	108007cc 	andi	r2,r2,31
 a800a90:	1007883a 	mov	r3,r2
 a800a94:	e0bff90b 	ldhu	r2,-28(fp)
 a800a98:	10c5883a 	add	r2,r2,r3
 a800a9c:	e0bff90d 	sth	r2,-28(fp)
        bSuccess = aduio_RegWrite(1, control);        
 a800aa0:	e17ff90b 	ldhu	r5,-28(fp)
 a800aa4:	01000044 	movi	r4,1
 a800aa8:	a800d4c0 	call	a800d4c <aduio_RegWrite>
 a800aac:	e0bffa15 	stw	r2,-24(fp)
    }
    
    AUDIO_DEBUG(("[AUDIO] set Line-In vol(%d,%d) %s\r\n", l_vol, r_vol, bSuccess?"success":"fail"));        
 a800ab0:	e0bffb0b 	ldhu	r2,-20(fp)
 a800ab4:	e0bfff15 	stw	r2,-4(fp)
 a800ab8:	e0bffc0b 	ldhu	r2,-16(fp)
 a800abc:	e0bffe15 	stw	r2,-8(fp)
 a800ac0:	e0bffa17 	ldw	r2,-24(fp)
 a800ac4:	1005003a 	cmpeq	r2,r2,zero
 a800ac8:	1000041e 	bne	r2,zero,a800adc <AUDIO_SetLineInVol+0xe0>
 a800acc:	0082a074 	movhi	r2,2689
 a800ad0:	108bf504 	addi	r2,r2,12244
 a800ad4:	e0bffd15 	stw	r2,-12(fp)
 a800ad8:	00000306 	br	a800ae8 <AUDIO_SetLineInVol+0xec>
 a800adc:	0082a074 	movhi	r2,2689
 a800ae0:	108bf704 	addi	r2,r2,12252
 a800ae4:	e0bffd15 	stw	r2,-12(fp)
 a800ae8:	0102a074 	movhi	r4,2689
 a800aec:	210bff04 	addi	r4,r4,12284
 a800af0:	e17fff17 	ldw	r5,-4(fp)
 a800af4:	e1bffe17 	ldw	r6,-8(fp)
 a800af8:	e1fffd17 	ldw	r7,-12(fp)
 a800afc:	a801c380 	call	a801c38 <myprintf>
    return bSuccess;
 a800b00:	e0bffa17 	ldw	r2,-24(fp)
}
 a800b04:	e037883a 	mov	sp,fp
 a800b08:	dfc00117 	ldw	ra,4(sp)
 a800b0c:	df000017 	ldw	fp,0(sp)
 a800b10:	dec00204 	addi	sp,sp,8
 a800b14:	f800283a 	ret

0a800b18 <AUDIO_SetLineOutVol>:

bool AUDIO_SetLineOutVol(alt_u16 l_vol, alt_u16 r_vol){
 a800b18:	defff704 	addi	sp,sp,-36
 a800b1c:	dfc00815 	stw	ra,32(sp)
 a800b20:	df000715 	stw	fp,28(sp)
 a800b24:	df000704 	addi	fp,sp,28
 a800b28:	e13ffb0d 	sth	r4,-20(fp)
 a800b2c:	e17ffc0d 	sth	r5,-16(fp)
    bool bSuccess;
    alt_u16 control;

 
    // left
    control = reg_file[2];
 a800b30:	0082a074 	movhi	r2,2689
 a800b34:	109eb404 	addi	r2,r2,31440
 a800b38:	1080010b 	ldhu	r2,4(r2)
 a800b3c:	e0bff90d 	sth	r2,-28(fp)
    control &= 0xFF80;
 a800b40:	00ffe004 	movi	r3,-128
 a800b44:	e0bff90b 	ldhu	r2,-28(fp)
 a800b48:	10c4703a 	and	r2,r2,r3
 a800b4c:	e0bff90d 	sth	r2,-28(fp)
    control += l_vol & 0x7F;
 a800b50:	e0bffb0b 	ldhu	r2,-20(fp)
 a800b54:	10801fcc 	andi	r2,r2,127
 a800b58:	1007883a 	mov	r3,r2
 a800b5c:	e0bff90b 	ldhu	r2,-28(fp)
 a800b60:	10c5883a 	add	r2,r2,r3
 a800b64:	e0bff90d 	sth	r2,-28(fp)
    bSuccess = aduio_RegWrite(2, control);
 a800b68:	e17ff90b 	ldhu	r5,-28(fp)
 a800b6c:	01000084 	movi	r4,2
 a800b70:	a800d4c0 	call	a800d4c <aduio_RegWrite>
 a800b74:	e0bffa15 	stw	r2,-24(fp)
    
    if (bSuccess){
 a800b78:	e0bffa17 	ldw	r2,-24(fp)
 a800b7c:	1005003a 	cmpeq	r2,r2,zero
 a800b80:	1000121e 	bne	r2,zero,a800bcc <AUDIO_SetLineOutVol+0xb4>
        // right
        control = reg_file[3];
 a800b84:	0082a074 	movhi	r2,2689
 a800b88:	109eb404 	addi	r2,r2,31440
 a800b8c:	1080018b 	ldhu	r2,6(r2)
 a800b90:	e0bff90d 	sth	r2,-28(fp)
        control &= 0xFF80;
 a800b94:	00ffe004 	movi	r3,-128
 a800b98:	e0bff90b 	ldhu	r2,-28(fp)
 a800b9c:	10c4703a 	and	r2,r2,r3
 a800ba0:	e0bff90d 	sth	r2,-28(fp)
        control += r_vol & 0x7F;
 a800ba4:	e0bffc0b 	ldhu	r2,-16(fp)
 a800ba8:	10801fcc 	andi	r2,r2,127
 a800bac:	1007883a 	mov	r3,r2
 a800bb0:	e0bff90b 	ldhu	r2,-28(fp)
 a800bb4:	10c5883a 	add	r2,r2,r3
 a800bb8:	e0bff90d 	sth	r2,-28(fp)
        bSuccess = aduio_RegWrite(3, control);        
 a800bbc:	e17ff90b 	ldhu	r5,-28(fp)
 a800bc0:	010000c4 	movi	r4,3
 a800bc4:	a800d4c0 	call	a800d4c <aduio_RegWrite>
 a800bc8:	e0bffa15 	stw	r2,-24(fp)
    }    
    
    AUDIO_DEBUG(("[AUDIO] set Line-Out vol(%d,%d) %s\r\n", l_vol, r_vol, bSuccess?"success":"fail"));
 a800bcc:	e0bffb0b 	ldhu	r2,-20(fp)
 a800bd0:	e0bfff15 	stw	r2,-4(fp)
 a800bd4:	e0bffc0b 	ldhu	r2,-16(fp)
 a800bd8:	e0bffe15 	stw	r2,-8(fp)
 a800bdc:	e0bffa17 	ldw	r2,-24(fp)
 a800be0:	1005003a 	cmpeq	r2,r2,zero
 a800be4:	1000041e 	bne	r2,zero,a800bf8 <AUDIO_SetLineOutVol+0xe0>
 a800be8:	0082a074 	movhi	r2,2689
 a800bec:	108bf504 	addi	r2,r2,12244
 a800bf0:	e0bffd15 	stw	r2,-12(fp)
 a800bf4:	00000306 	br	a800c04 <AUDIO_SetLineOutVol+0xec>
 a800bf8:	0082a074 	movhi	r2,2689
 a800bfc:	108bf704 	addi	r2,r2,12252
 a800c00:	e0bffd15 	stw	r2,-12(fp)
 a800c04:	0102a074 	movhi	r4,2689
 a800c08:	210c0804 	addi	r4,r4,12320
 a800c0c:	e17fff17 	ldw	r5,-4(fp)
 a800c10:	e1bffe17 	ldw	r6,-8(fp)
 a800c14:	e1fffd17 	ldw	r7,-12(fp)
 a800c18:	a801c380 	call	a801c38 <myprintf>
    
    return bSuccess;
 a800c1c:	e0bffa17 	ldw	r2,-24(fp)
}
 a800c20:	e037883a 	mov	sp,fp
 a800c24:	dfc00117 	ldw	ra,4(sp)
 a800c28:	df000017 	ldw	fp,0(sp)
 a800c2c:	dec00204 	addi	sp,sp,8
 a800c30:	f800283a 	ret

0a800c34 <AUDIO_EnableByPass>:


bool AUDIO_EnableByPass(bool bEnable){
 a800c34:	defffb04 	addi	sp,sp,-20
 a800c38:	dfc00415 	stw	ra,16(sp)
 a800c3c:	df000315 	stw	fp,12(sp)
 a800c40:	df000304 	addi	fp,sp,12
 a800c44:	e13fff15 	stw	r4,-4(fp)
    bool bSuccess;
    alt_u16 control;
    alt_u16 mask;
    control = reg_file[4];
 a800c48:	0082a074 	movhi	r2,2689
 a800c4c:	109eb404 	addi	r2,r2,31440
 a800c50:	1080020b 	ldhu	r2,8(r2)
 a800c54:	e0bffd8d 	sth	r2,-10(fp)
    mask = 0x01 << 3;
 a800c58:	00800204 	movi	r2,8
 a800c5c:	e0bffd0d 	sth	r2,-12(fp)
    if (bEnable)
 a800c60:	e0bfff17 	ldw	r2,-4(fp)
 a800c64:	1005003a 	cmpeq	r2,r2,zero
 a800c68:	1000051e 	bne	r2,zero,a800c80 <AUDIO_EnableByPass+0x4c>
        control |= mask;
 a800c6c:	e0bffd8b 	ldhu	r2,-10(fp)
 a800c70:	e0fffd0b 	ldhu	r3,-12(fp)
 a800c74:	10c4b03a 	or	r2,r2,r3
 a800c78:	e0bffd8d 	sth	r2,-10(fp)
 a800c7c:	00000606 	br	a800c98 <AUDIO_EnableByPass+0x64>
    else        
        control &= ~mask;
 a800c80:	e0bffd0b 	ldhu	r2,-12(fp)
 a800c84:	0084303a 	nor	r2,zero,r2
 a800c88:	1007883a 	mov	r3,r2
 a800c8c:	e0bffd8b 	ldhu	r2,-10(fp)
 a800c90:	1884703a 	and	r2,r3,r2
 a800c94:	e0bffd8d 	sth	r2,-10(fp)
    bSuccess = aduio_RegWrite(4, control); 
 a800c98:	e17ffd8b 	ldhu	r5,-10(fp)
 a800c9c:	01000104 	movi	r4,4
 a800ca0:	a800d4c0 	call	a800d4c <aduio_RegWrite>
 a800ca4:	e0bffe15 	stw	r2,-8(fp)
    return bSuccess;  	
 a800ca8:	e0bffe17 	ldw	r2,-8(fp)
}
 a800cac:	e037883a 	mov	sp,fp
 a800cb0:	dfc00117 	ldw	ra,4(sp)
 a800cb4:	df000017 	ldw	fp,0(sp)
 a800cb8:	dec00204 	addi	sp,sp,8
 a800cbc:	f800283a 	ret

0a800cc0 <AUDIO_EnableSiteTone>:

bool AUDIO_EnableSiteTone(bool bEnable){
 a800cc0:	defffb04 	addi	sp,sp,-20
 a800cc4:	dfc00415 	stw	ra,16(sp)
 a800cc8:	df000315 	stw	fp,12(sp)
 a800ccc:	df000304 	addi	fp,sp,12
 a800cd0:	e13fff15 	stw	r4,-4(fp)
    bool bSuccess;
    alt_u16 control;
    alt_u16 mask;
    control = reg_file[4];
 a800cd4:	0082a074 	movhi	r2,2689
 a800cd8:	109eb404 	addi	r2,r2,31440
 a800cdc:	1080020b 	ldhu	r2,8(r2)
 a800ce0:	e0bffd8d 	sth	r2,-10(fp)
    mask = 0x01 << 5;
 a800ce4:	00800804 	movi	r2,32
 a800ce8:	e0bffd0d 	sth	r2,-12(fp)
    if (bEnable)
 a800cec:	e0bfff17 	ldw	r2,-4(fp)
 a800cf0:	1005003a 	cmpeq	r2,r2,zero
 a800cf4:	1000051e 	bne	r2,zero,a800d0c <AUDIO_EnableSiteTone+0x4c>
        control |= mask;
 a800cf8:	e0bffd8b 	ldhu	r2,-10(fp)
 a800cfc:	e0fffd0b 	ldhu	r3,-12(fp)
 a800d00:	10c4b03a 	or	r2,r2,r3
 a800d04:	e0bffd8d 	sth	r2,-10(fp)
 a800d08:	00000606 	br	a800d24 <AUDIO_EnableSiteTone+0x64>
    else        
        control &= ~mask;
 a800d0c:	e0bffd0b 	ldhu	r2,-12(fp)
 a800d10:	0084303a 	nor	r2,zero,r2
 a800d14:	1007883a 	mov	r3,r2
 a800d18:	e0bffd8b 	ldhu	r2,-10(fp)
 a800d1c:	1884703a 	and	r2,r3,r2
 a800d20:	e0bffd8d 	sth	r2,-10(fp)
    bSuccess = aduio_RegWrite(4, control); 
 a800d24:	e17ffd8b 	ldhu	r5,-10(fp)
 a800d28:	01000104 	movi	r4,4
 a800d2c:	a800d4c0 	call	a800d4c <aduio_RegWrite>
 a800d30:	e0bffe15 	stw	r2,-8(fp)
    return bSuccess;        
 a800d34:	e0bffe17 	ldw	r2,-8(fp)
}
 a800d38:	e037883a 	mov	sp,fp
 a800d3c:	dfc00117 	ldw	ra,4(sp)
 a800d40:	df000017 	ldw	fp,0(sp)
 a800d44:	dec00204 	addi	sp,sp,8
 a800d48:	f800283a 	ret

0a800d4c <aduio_RegWrite>:

/////////////////////////////////////////////////////////////////////////
///////////// Interla function body ////////////////////////////////////
/////////////////////////////////////////////////////////////////////////

bool aduio_RegWrite(alt_u8 reg_index, alt_u16 data16){
 a800d4c:	defff904 	addi	sp,sp,-28
 a800d50:	dfc00615 	stw	ra,24(sp)
 a800d54:	df000515 	stw	fp,20(sp)
 a800d58:	df000504 	addi	fp,sp,20
 a800d5c:	e13ffe05 	stb	r4,-8(fp)
 a800d60:	e17fff0d 	sth	r5,-4(fp)
    bool bSuccess;
    alt_u8 data, control;
    if (reg_index <= 10)
 a800d64:	e0bffe03 	ldbu	r2,-8(fp)
 a800d68:	108002e8 	cmpgeui	r2,r2,11
 a800d6c:	1000071e 	bne	r2,zero,a800d8c <aduio_RegWrite+0x40>
        reg_file[reg_index] = data16;
 a800d70:	e0bffe03 	ldbu	r2,-8(fp)
 a800d74:	00c2a074 	movhi	r3,2689
 a800d78:	18deb404 	addi	r3,r3,31440
 a800d7c:	1085883a 	add	r2,r2,r2
 a800d80:	10c7883a 	add	r3,r2,r3
 a800d84:	e0bfff0b 	ldhu	r2,-4(fp)
 a800d88:	1880000d 	sth	r2,0(r3)
    data = data16 & 0xFF;
 a800d8c:	e0bfff0b 	ldhu	r2,-4(fp)
 a800d90:	1007883a 	mov	r3,r2
 a800d94:	00bfffc4 	movi	r2,-1
 a800d98:	1884703a 	and	r2,r3,r2
 a800d9c:	e0bffc45 	stb	r2,-15(fp)
    control = (reg_index << 1) & 0xFE;
 a800da0:	e0bffe03 	ldbu	r2,-8(fp)
 a800da4:	1085883a 	add	r2,r2,r2
 a800da8:	1007883a 	mov	r3,r2
 a800dac:	00bfff84 	movi	r2,-2
 a800db0:	1884703a 	and	r2,r3,r2
 a800db4:	e0bffc05 	stb	r2,-16(fp)
    control |= ((data16 >> 8) & 0x01);
 a800db8:	e0bfff0b 	ldhu	r2,-4(fp)
 a800dbc:	1004d23a 	srli	r2,r2,8
 a800dc0:	1080004c 	andi	r2,r2,1
 a800dc4:	1007883a 	mov	r3,r2
 a800dc8:	e0bffc03 	ldbu	r2,-16(fp)
 a800dcc:	1884b03a 	or	r2,r3,r2
 a800dd0:	e0bffc05 	stb	r2,-16(fp)
    AUDIO_DEBUG(("[AUDIO] set audio reg[%02d] = %04Xh\r\n", reg_index, data16));
 a800dd4:	e17ffe03 	ldbu	r5,-8(fp)
 a800dd8:	e1bfff0b 	ldhu	r6,-4(fp)
 a800ddc:	0102a074 	movhi	r4,2689
 a800de0:	210c1204 	addi	r4,r4,12360
 a800de4:	a801c380 	call	a801c38 <myprintf>
    bSuccess = I2C_Write(I2C_SCL_BASE, I2C_SDA_BASE, I2C_AUDIO_ADDR, control, data);
 a800de8:	e1fffc03 	ldbu	r7,-16(fp)
 a800dec:	e0bffc43 	ldbu	r2,-15(fp)
 a800df0:	d8800015 	stw	r2,0(sp)
 a800df4:	01020034 	movhi	r4,2048
 a800df8:	21003004 	addi	r4,r4,192
 a800dfc:	01420034 	movhi	r5,2048
 a800e00:	29403404 	addi	r5,r5,208
 a800e04:	01800d04 	movi	r6,52
 a800e08:	a800f980 	call	a800f98 <I2C_Write>
 a800e0c:	e0bffd15 	stw	r2,-12(fp)
    if (!bSuccess) 
 a800e10:	e0bffd17 	ldw	r2,-12(fp)
 a800e14:	1004c03a 	cmpne	r2,r2,zero
 a800e18:	1000031e 	bne	r2,zero,a800e28 <aduio_RegWrite+0xdc>
        AUDIO_DEBUG(("[AUDIO] write reg fail!!!!\r\n"));
 a800e1c:	0102a074 	movhi	r4,2689
 a800e20:	210c1c04 	addi	r4,r4,12400
 a800e24:	a801c380 	call	a801c38 <myprintf>
    usleep(50*1000);  // wait audio chip read        
 a800e28:	0130d414 	movui	r4,50000
 a800e2c:	a80da100 	call	a80da10 <usleep>
    return bSuccess;        
 a800e30:	e0bffd17 	ldw	r2,-12(fp)
}
 a800e34:	e037883a 	mov	sp,fp
 a800e38:	dfc00117 	ldw	ra,4(sp)
 a800e3c:	df000017 	ldw	fp,0(sp)
 a800e40:	dec00204 	addi	sp,sp,8
 a800e44:	f800283a 	ret

0a800e48 <AUDIO_DacFifoNotFull>:

/////////////////////////////////////////////////////////////////////////
///////////// Audio Play & Recor ////////////////////////////////////////
/////////////////////////////////////////////////////////////////////////
// check whether the dac-fifo is full.
bool AUDIO_DacFifoNotFull(void){
 a800e48:	defffd04 	addi	sp,sp,-12
 a800e4c:	df000215 	stw	fp,8(sp)
 a800e50:	df000204 	addi	fp,sp,8
    bool bReady;
    bReady = AUDIO_DAC_FULL()?FALSE:TRUE;
 a800e54:	00828034 	movhi	r2,2560
 a800e58:	10840504 	addi	r2,r2,4116
 a800e5c:	10800037 	ldwio	r2,0(r2)
 a800e60:	1080004c 	andi	r2,r2,1
 a800e64:	10803fcc 	andi	r2,r2,255
 a800e68:	1005003a 	cmpeq	r2,r2,zero
 a800e6c:	1000021e 	bne	r2,zero,a800e78 <AUDIO_DacFifoNotFull+0x30>
 a800e70:	e03fff15 	stw	zero,-4(fp)
 a800e74:	00000206 	br	a800e80 <AUDIO_DacFifoNotFull+0x38>
 a800e78:	00800044 	movi	r2,1
 a800e7c:	e0bfff15 	stw	r2,-4(fp)
 a800e80:	e0bfff17 	ldw	r2,-4(fp)
 a800e84:	e0bffe15 	stw	r2,-8(fp)
    return bReady;
 a800e88:	e0bffe17 	ldw	r2,-8(fp)
}
 a800e8c:	e037883a 	mov	sp,fp
 a800e90:	df000017 	ldw	fp,0(sp)
 a800e94:	dec00104 	addi	sp,sp,4
 a800e98:	f800283a 	ret

0a800e9c <AUDIO_DacFifoSetData>:

// call AUDIO_PlayIsReady to make sure the fifo is not full before call this function 
void AUDIO_DacFifoSetData(short ch_left, short ch_right){
 a800e9c:	defffd04 	addi	sp,sp,-12
 a800ea0:	df000215 	stw	fp,8(sp)
 a800ea4:	df000204 	addi	fp,sp,8
 a800ea8:	e13ffe0d 	sth	r4,-8(fp)
 a800eac:	e17fff0d 	sth	r5,-4(fp)
    AUDIO_DAC_WRITE_L(ch_left);
 a800eb0:	e0fffe0f 	ldh	r3,-8(fp)
 a800eb4:	00828034 	movhi	r2,2560
 a800eb8:	10840004 	addi	r2,r2,4096
 a800ebc:	10c00035 	stwio	r3,0(r2)
    AUDIO_DAC_WRITE_R(ch_right);
 a800ec0:	e0ffff0f 	ldh	r3,-4(fp)
 a800ec4:	00828034 	movhi	r2,2560
 a800ec8:	10840104 	addi	r2,r2,4100
 a800ecc:	10c00035 	stwio	r3,0(r2)
}
 a800ed0:	e037883a 	mov	sp,fp
 a800ed4:	df000017 	ldw	fp,0(sp)
 a800ed8:	dec00104 	addi	sp,sp,4
 a800edc:	f800283a 	ret

0a800ee0 <AUDIO_AdcFifoNotEmpty>:

// wheck whether there is data available in adc-fifo
bool AUDIO_AdcFifoNotEmpty(void){
 a800ee0:	defffe04 	addi	sp,sp,-8
 a800ee4:	df000115 	stw	fp,4(sp)
 a800ee8:	df000104 	addi	fp,sp,4
    bool bReady;
    bReady = AUDIO_ADC_EMPTY()?FALSE:TRUE;
 a800eec:	00828034 	movhi	r2,2560
 a800ef0:	10840504 	addi	r2,r2,4116
 a800ef4:	10800037 	ldwio	r2,0(r2)
 a800ef8:	1080008c 	andi	r2,r2,2
 a800efc:	1005003a 	cmpeq	r2,r2,zero
 a800f00:	e0bfff15 	stw	r2,-4(fp)
    return bReady;
 a800f04:	e0bfff17 	ldw	r2,-4(fp)
}
 a800f08:	e037883a 	mov	sp,fp
 a800f0c:	df000017 	ldw	fp,0(sp)
 a800f10:	dec00104 	addi	sp,sp,4
 a800f14:	f800283a 	ret

0a800f18 <AUDIO_AdcFifoGetData>:


// make sure the data is available before call this fucntion
void AUDIO_AdcFifoGetData(short *pch_left, short *pch_right){
 a800f18:	defffd04 	addi	sp,sp,-12
 a800f1c:	df000215 	stw	fp,8(sp)
 a800f20:	df000204 	addi	fp,sp,8
 a800f24:	e13ffe15 	stw	r4,-8(fp)
 a800f28:	e17fff15 	stw	r5,-4(fp)
    *pch_left = AUDIO_ADC_READ_L();
 a800f2c:	00828034 	movhi	r2,2560
 a800f30:	10840204 	addi	r2,r2,4104
 a800f34:	10800037 	ldwio	r2,0(r2)
 a800f38:	1007883a 	mov	r3,r2
 a800f3c:	e0bffe17 	ldw	r2,-8(fp)
 a800f40:	10c0000d 	sth	r3,0(r2)
    *pch_right = AUDIO_ADC_READ_R();
 a800f44:	00828034 	movhi	r2,2560
 a800f48:	10840304 	addi	r2,r2,4108
 a800f4c:	10800037 	ldwio	r2,0(r2)
 a800f50:	1007883a 	mov	r3,r2
 a800f54:	e0bfff17 	ldw	r2,-4(fp)
 a800f58:	10c0000d 	sth	r3,0(r2)
    
}
 a800f5c:	e037883a 	mov	sp,fp
 a800f60:	df000017 	ldw	fp,0(sp)
 a800f64:	dec00104 	addi	sp,sp,4
 a800f68:	f800283a 	ret

0a800f6c <AUDIO_FifoClear>:

void AUDIO_FifoClear(void){
 a800f6c:	deffff04 	addi	sp,sp,-4
 a800f70:	df000015 	stw	fp,0(sp)
 a800f74:	d839883a 	mov	fp,sp
    AUDIO_FIFO_CLEAR();
 a800f78:	00c28034 	movhi	r3,2560
 a800f7c:	18c40404 	addi	r3,r3,4112
 a800f80:	00800044 	movi	r2,1
 a800f84:	18800035 	stwio	r2,0(r3)
}
 a800f88:	e037883a 	mov	sp,fp
 a800f8c:	df000017 	ldw	fp,0(sp)
 a800f90:	dec00104 	addi	sp,sp,4
 a800f94:	f800283a 	ret

0a800f98 <I2C_Write>:
bool i2c_write(alt_u32 clk_base, alt_u32 data_base, alt_u8 Data);
void i2c_read(alt_u32 clk_base, alt_u32 data_base, alt_u8 *pData, bool bAck);



bool I2C_Write(alt_u32 clk_base, alt_u32 data_base, alt_8 DeviceAddr, alt_u8 ControlAddr, alt_u8 ControlData){
 a800f98:	defff804 	addi	sp,sp,-32
 a800f9c:	dfc00715 	stw	ra,28(sp)
 a800fa0:	df000615 	stw	fp,24(sp)
 a800fa4:	df000604 	addi	fp,sp,24
 a800fa8:	e13ffb15 	stw	r4,-20(fp)
 a800fac:	e17ffc15 	stw	r5,-16(fp)
 a800fb0:	e0800217 	ldw	r2,8(fp)
 a800fb4:	e1bffd05 	stb	r6,-12(fp)
 a800fb8:	e1fffe05 	stb	r7,-8(fp)
 a800fbc:	e0bfff05 	stb	r2,-4(fp)
    bool bSuccess = TRUE;
 a800fc0:	00800044 	movi	r2,1
 a800fc4:	e0bffa15 	stw	r2,-24(fp)
    //alt_u8 DeviceAddr;
    
    // device id
    //DeviceAddr = HMB_E2_I2C_ID;

    i2c_start(clk_base, data_base);
 a800fc8:	e13ffb17 	ldw	r4,-20(fp)
 a800fcc:	e17ffc17 	ldw	r5,-16(fp)
 a800fd0:	a8013400 	call	a801340 <i2c_start>
    if (!i2c_write(clk_base, data_base, DeviceAddr)){  // send ID
 a800fd4:	e0bffd03 	ldbu	r2,-12(fp)
 a800fd8:	11803fcc 	andi	r6,r2,255
 a800fdc:	e13ffb17 	ldw	r4,-20(fp)
 a800fe0:	e17ffc17 	ldw	r5,-16(fp)
 a800fe4:	a8014400 	call	a801440 <i2c_write>
 a800fe8:	1004c03a 	cmpne	r2,r2,zero
 a800fec:	1000041e 	bne	r2,zero,a801000 <I2C_Write+0x68>
        bSuccess = FALSE;
 a800ff0:	e03ffa15 	stw	zero,-24(fp)
        I2C_DEBUG(("I2C HMB_E2 Fail: Address NACK!\n"));
 a800ff4:	0102a074 	movhi	r4,2689
 a800ff8:	210c2404 	addi	r4,r4,12432
 a800ffc:	a801c380 	call	a801c38 <myprintf>
    }
    if (bSuccess && !i2c_write(clk_base, data_base, ControlAddr)){ // send sub-address
 a801000:	e0bffa17 	ldw	r2,-24(fp)
 a801004:	1005003a 	cmpeq	r2,r2,zero
 a801008:	10000a1e 	bne	r2,zero,a801034 <I2C_Write+0x9c>
 a80100c:	e1bffe03 	ldbu	r6,-8(fp)
 a801010:	e13ffb17 	ldw	r4,-20(fp)
 a801014:	e17ffc17 	ldw	r5,-16(fp)
 a801018:	a8014400 	call	a801440 <i2c_write>
 a80101c:	1004c03a 	cmpne	r2,r2,zero
 a801020:	1000041e 	bne	r2,zero,a801034 <I2C_Write+0x9c>
        bSuccess = FALSE;
 a801024:	e03ffa15 	stw	zero,-24(fp)
        I2C_DEBUG(("I2C HMB_E2 Fail: SubAddress NACK!\n"));
 a801028:	0102a074 	movhi	r4,2689
 a80102c:	210c2c04 	addi	r4,r4,12464
 a801030:	a801c380 	call	a801c38 <myprintf>
    }            
    if (bSuccess && !i2c_write(clk_base, data_base, ControlData)){  
 a801034:	e0bffa17 	ldw	r2,-24(fp)
 a801038:	1005003a 	cmpeq	r2,r2,zero
 a80103c:	10000a1e 	bne	r2,zero,a801068 <I2C_Write+0xd0>
 a801040:	e1bfff03 	ldbu	r6,-4(fp)
 a801044:	e13ffb17 	ldw	r4,-20(fp)
 a801048:	e17ffc17 	ldw	r5,-16(fp)
 a80104c:	a8014400 	call	a801440 <i2c_write>
 a801050:	1004c03a 	cmpne	r2,r2,zero
 a801054:	1000041e 	bne	r2,zero,a801068 <I2C_Write+0xd0>
        bSuccess = FALSE;
 a801058:	e03ffa15 	stw	zero,-24(fp)
        I2C_DEBUG(("I2C HMB_E2 Fail: write NACK!\n"));
 a80105c:	0102a074 	movhi	r4,2689
 a801060:	210c3504 	addi	r4,r4,12500
 a801064:	a801c380 	call	a801c38 <myprintf>
    }
    i2c_stop(clk_base, data_base);
 a801068:	e13ffb17 	ldw	r4,-20(fp)
 a80106c:	e17ffc17 	ldw	r5,-16(fp)
 a801070:	a8013c80 	call	a8013c8 <i2c_stop>
    
    usleep(7*1000); // delay to wait EE2 ready (at least 5 ms delay is required)
 a801074:	0106d604 	movi	r4,7000
 a801078:	a80da100 	call	a80da10 <usleep>
    
    return bSuccess;
 a80107c:	e0bffa17 	ldw	r2,-24(fp)

    
}
 a801080:	e037883a 	mov	sp,fp
 a801084:	dfc00117 	ldw	ra,4(sp)
 a801088:	df000017 	ldw	fp,0(sp)
 a80108c:	dec00204 	addi	sp,sp,8
 a801090:	f800283a 	ret

0a801094 <I2C_Read>:

bool I2C_Read(alt_u32 clk_base, alt_u32 data_base, alt_8 DeviceAddr, alt_u8 ControlAddr, alt_u8 *pControlData){
 a801094:	defff904 	addi	sp,sp,-28
 a801098:	dfc00615 	stw	ra,24(sp)
 a80109c:	df000515 	stw	fp,20(sp)
 a8010a0:	df000504 	addi	fp,sp,20
 a8010a4:	e13ffc15 	stw	r4,-16(fp)
 a8010a8:	e17ffd15 	stw	r5,-12(fp)
 a8010ac:	e1bffe05 	stb	r6,-8(fp)
 a8010b0:	e1ffff05 	stb	r7,-4(fp)
    bool bSuccess = TRUE;
 a8010b4:	00800044 	movi	r2,1
 a8010b8:	e0bffb15 	stw	r2,-20(fp)
    //alt_u8 DeviceAddr;
   
    // device id
    //DeviceAddr = HMB_E2_I2C_ID;

    i2c_start(clk_base, data_base);
 a8010bc:	e13ffc17 	ldw	r4,-16(fp)
 a8010c0:	e17ffd17 	ldw	r5,-12(fp)
 a8010c4:	a8013400 	call	a801340 <i2c_start>
    if (!i2c_write(clk_base, data_base, DeviceAddr)){  // send ID
 a8010c8:	e0bffe03 	ldbu	r2,-8(fp)
 a8010cc:	11803fcc 	andi	r6,r2,255
 a8010d0:	e13ffc17 	ldw	r4,-16(fp)
 a8010d4:	e17ffd17 	ldw	r5,-12(fp)
 a8010d8:	a8014400 	call	a801440 <i2c_write>
 a8010dc:	1004c03a 	cmpne	r2,r2,zero
 a8010e0:	1000041e 	bne	r2,zero,a8010f4 <I2C_Read+0x60>
        bSuccess = FALSE;
 a8010e4:	e03ffb15 	stw	zero,-20(fp)
        I2C_DEBUG(("I2C HMB_E2 Fail: Address NACK!\n"));
 a8010e8:	0102a074 	movhi	r4,2689
 a8010ec:	210c2404 	addi	r4,r4,12432
 a8010f0:	a801c380 	call	a801c38 <myprintf>
    }
    if (bSuccess && !i2c_write(clk_base, data_base, ControlAddr)){ // send sub-address
 a8010f4:	e0bffb17 	ldw	r2,-20(fp)
 a8010f8:	1005003a 	cmpeq	r2,r2,zero
 a8010fc:	10000a1e 	bne	r2,zero,a801128 <I2C_Read+0x94>
 a801100:	e1bfff03 	ldbu	r6,-4(fp)
 a801104:	e13ffc17 	ldw	r4,-16(fp)
 a801108:	e17ffd17 	ldw	r5,-12(fp)
 a80110c:	a8014400 	call	a801440 <i2c_write>
 a801110:	1004c03a 	cmpne	r2,r2,zero
 a801114:	1000041e 	bne	r2,zero,a801128 <I2C_Read+0x94>
        bSuccess = FALSE;
 a801118:	e03ffb15 	stw	zero,-20(fp)
        I2C_DEBUG(("I2C HMB_E2 Fail: SubAddress NACK!\n"));
 a80111c:	0102a074 	movhi	r4,2689
 a801120:	210c2c04 	addi	r4,r4,12464
 a801124:	a801c380 	call	a801c38 <myprintf>
    }            
    i2c_start(clk_base, data_base);  // restart
 a801128:	e13ffc17 	ldw	r4,-16(fp)
 a80112c:	e17ffd17 	ldw	r5,-12(fp)
 a801130:	a8013400 	call	a801340 <i2c_start>
    DeviceAddr |= 1; // Read
 a801134:	e0bffe03 	ldbu	r2,-8(fp)
 a801138:	10800054 	ori	r2,r2,1
 a80113c:	e0bffe05 	stb	r2,-8(fp)
    if (bSuccess && !i2c_write(clk_base, data_base, DeviceAddr)){  // send id
 a801140:	e0bffb17 	ldw	r2,-20(fp)
 a801144:	1005003a 	cmpeq	r2,r2,zero
 a801148:	10000b1e 	bne	r2,zero,a801178 <I2C_Read+0xe4>
 a80114c:	e0bffe03 	ldbu	r2,-8(fp)
 a801150:	11803fcc 	andi	r6,r2,255
 a801154:	e13ffc17 	ldw	r4,-16(fp)
 a801158:	e17ffd17 	ldw	r5,-12(fp)
 a80115c:	a8014400 	call	a801440 <i2c_write>
 a801160:	1004c03a 	cmpne	r2,r2,zero
 a801164:	1000041e 	bne	r2,zero,a801178 <I2C_Read+0xe4>
        bSuccess = FALSE;
 a801168:	e03ffb15 	stw	zero,-20(fp)
        I2C_DEBUG(("I2C HMB_E2 Fail: Address+1 NACK!\n"));
 a80116c:	0102a074 	movhi	r4,2689
 a801170:	210c3d04 	addi	r4,r4,12532
 a801174:	a801c380 	call	a801c38 <myprintf>
    }
    
    if (bSuccess){
 a801178:	e0bffb17 	ldw	r2,-20(fp)
 a80117c:	1005003a 	cmpeq	r2,r2,zero
 a801180:	1000051e 	bne	r2,zero,a801198 <I2C_Read+0x104>
        i2c_read(clk_base, data_base, pControlData, FALSE);  // read
 a801184:	e13ffc17 	ldw	r4,-16(fp)
 a801188:	e17ffd17 	ldw	r5,-12(fp)
 a80118c:	e1800217 	ldw	r6,8(fp)
 a801190:	000f883a 	mov	r7,zero
 a801194:	a8015640 	call	a801564 <i2c_read>
    }        
    i2c_stop(clk_base, data_base);
 a801198:	e13ffc17 	ldw	r4,-16(fp)
 a80119c:	e17ffd17 	ldw	r5,-12(fp)
 a8011a0:	a8013c80 	call	a8013c8 <i2c_stop>
    
    return bSuccess;
 a8011a4:	e0bffb17 	ldw	r2,-20(fp)
}
 a8011a8:	e037883a 	mov	sp,fp
 a8011ac:	dfc00117 	ldw	ra,4(sp)
 a8011b0:	df000017 	ldw	fp,0(sp)
 a8011b4:	dec00204 	addi	sp,sp,8
 a8011b8:	f800283a 	ret

0a8011bc <I2C_MultipleRead>:

bool I2C_MultipleRead(alt_u32 clk_base, alt_u32 data_base, alt_8 DeviceAddr, alt_u8 szData[], alt_u16 len){
 a8011bc:	defff604 	addi	sp,sp,-40
 a8011c0:	dfc00915 	stw	ra,36(sp)
 a8011c4:	df000815 	stw	fp,32(sp)
 a8011c8:	df000804 	addi	fp,sp,32
 a8011cc:	e13ffb15 	stw	r4,-20(fp)
 a8011d0:	e17ffc15 	stw	r5,-16(fp)
 a8011d4:	e1fffe15 	stw	r7,-8(fp)
 a8011d8:	e0800217 	ldw	r2,8(fp)
 a8011dc:	e1bffd05 	stb	r6,-12(fp)
 a8011e0:	e0bfff0d 	sth	r2,-4(fp)
    int i;
    bool bSuccess = TRUE;
 a8011e4:	00800044 	movi	r2,1
 a8011e8:	e0bff915 	stw	r2,-28(fp)
    //alt_u8 DeviceAddr, 
    alt_u8 ControlAddr = 0;
 a8011ec:	e03ff805 	stb	zero,-32(fp)
    
   
    // device id
    //DeviceAddr = HMB_E2_I2C_ID;

    i2c_start(clk_base, data_base);
 a8011f0:	e13ffb17 	ldw	r4,-20(fp)
 a8011f4:	e17ffc17 	ldw	r5,-16(fp)
 a8011f8:	a8013400 	call	a801340 <i2c_start>
    if (!i2c_write(clk_base, data_base, DeviceAddr)){  // send ID
 a8011fc:	e0bffd03 	ldbu	r2,-12(fp)
 a801200:	11803fcc 	andi	r6,r2,255
 a801204:	e13ffb17 	ldw	r4,-20(fp)
 a801208:	e17ffc17 	ldw	r5,-16(fp)
 a80120c:	a8014400 	call	a801440 <i2c_write>
 a801210:	1004c03a 	cmpne	r2,r2,zero
 a801214:	1000041e 	bne	r2,zero,a801228 <I2C_MultipleRead+0x6c>
        bSuccess = FALSE;
 a801218:	e03ff915 	stw	zero,-28(fp)
        I2C_DEBUG(("I2C HMB_E2 Fail: Address NACK!\n"));
 a80121c:	0102a074 	movhi	r4,2689
 a801220:	210c2404 	addi	r4,r4,12432
 a801224:	a801c380 	call	a801c38 <myprintf>
    }
    if (bSuccess && !i2c_write(clk_base, data_base, ControlAddr)){ // send sub-address
 a801228:	e0bff917 	ldw	r2,-28(fp)
 a80122c:	1005003a 	cmpeq	r2,r2,zero
 a801230:	10000a1e 	bne	r2,zero,a80125c <I2C_MultipleRead+0xa0>
 a801234:	e1bff803 	ldbu	r6,-32(fp)
 a801238:	e13ffb17 	ldw	r4,-20(fp)
 a80123c:	e17ffc17 	ldw	r5,-16(fp)
 a801240:	a8014400 	call	a801440 <i2c_write>
 a801244:	1004c03a 	cmpne	r2,r2,zero
 a801248:	1000041e 	bne	r2,zero,a80125c <I2C_MultipleRead+0xa0>
        bSuccess = FALSE;
 a80124c:	e03ff915 	stw	zero,-28(fp)
        I2C_DEBUG(("I2C HMB_E2 Fail: SubAddress NACK!\n"));
 a801250:	0102a074 	movhi	r4,2689
 a801254:	210c2c04 	addi	r4,r4,12464
 a801258:	a801c380 	call	a801c38 <myprintf>
    }    
    if (bSuccess)        
 a80125c:	e0bff917 	ldw	r2,-28(fp)
 a801260:	1005003a 	cmpeq	r2,r2,zero
 a801264:	1000031e 	bne	r2,zero,a801274 <I2C_MultipleRead+0xb8>
        i2c_start(clk_base, data_base);  // restart
 a801268:	e13ffb17 	ldw	r4,-20(fp)
 a80126c:	e17ffc17 	ldw	r5,-16(fp)
 a801270:	a8013400 	call	a801340 <i2c_start>
    DeviceAddr |= 1; // Read
 a801274:	e0bffd03 	ldbu	r2,-12(fp)
 a801278:	10800054 	ori	r2,r2,1
 a80127c:	e0bffd05 	stb	r2,-12(fp)
    if (bSuccess && !i2c_write(clk_base, data_base, DeviceAddr)){  // send id
 a801280:	e0bff917 	ldw	r2,-28(fp)
 a801284:	1005003a 	cmpeq	r2,r2,zero
 a801288:	10000b1e 	bne	r2,zero,a8012b8 <I2C_MultipleRead+0xfc>
 a80128c:	e0bffd03 	ldbu	r2,-12(fp)
 a801290:	11803fcc 	andi	r6,r2,255
 a801294:	e13ffb17 	ldw	r4,-20(fp)
 a801298:	e17ffc17 	ldw	r5,-16(fp)
 a80129c:	a8014400 	call	a801440 <i2c_write>
 a8012a0:	1004c03a 	cmpne	r2,r2,zero
 a8012a4:	1000041e 	bne	r2,zero,a8012b8 <I2C_MultipleRead+0xfc>
        bSuccess = FALSE;
 a8012a8:	e03ff915 	stw	zero,-28(fp)
        I2C_DEBUG(("I2C HMB_E2 Fail: Address+1 NACK!\n"));
 a8012ac:	0102a074 	movhi	r4,2689
 a8012b0:	210c3d04 	addi	r4,r4,12532
 a8012b4:	a801c380 	call	a801c38 <myprintf>
    }
    
    if (bSuccess){
 a8012b8:	e0bff917 	ldw	r2,-28(fp)
 a8012bc:	1005003a 	cmpeq	r2,r2,zero
 a8012c0:	1000161e 	bne	r2,zero,a80131c <I2C_MultipleRead+0x160>
        for(i=0;i<len && bSuccess;i++){
 a8012c4:	e03ffa15 	stw	zero,-24(fp)
 a8012c8:	00000e06 	br	a801304 <I2C_MultipleRead+0x148>
            i2c_read(clk_base, data_base, &szData[i], (i==(len-1))?FALSE:TRUE);  // read
 a8012cc:	e0bffa17 	ldw	r2,-24(fp)
 a8012d0:	1007883a 	mov	r3,r2
 a8012d4:	e0bffe17 	ldw	r2,-8(fp)
 a8012d8:	188d883a 	add	r6,r3,r2
 a8012dc:	e0bfff0b 	ldhu	r2,-4(fp)
 a8012e0:	10ffffc4 	addi	r3,r2,-1
 a8012e4:	e0bffa17 	ldw	r2,-24(fp)
 a8012e8:	188ec03a 	cmpne	r7,r3,r2
 a8012ec:	e13ffb17 	ldw	r4,-20(fp)
 a8012f0:	e17ffc17 	ldw	r5,-16(fp)
 a8012f4:	a8015640 	call	a801564 <i2c_read>
        bSuccess = FALSE;
        I2C_DEBUG(("I2C HMB_E2 Fail: Address+1 NACK!\n"));
    }
    
    if (bSuccess){
        for(i=0;i<len && bSuccess;i++){
 a8012f8:	e0bffa17 	ldw	r2,-24(fp)
 a8012fc:	10800044 	addi	r2,r2,1
 a801300:	e0bffa15 	stw	r2,-24(fp)
 a801304:	e0ffff0b 	ldhu	r3,-4(fp)
 a801308:	e0bffa17 	ldw	r2,-24(fp)
 a80130c:	10c0030e 	bge	r2,r3,a80131c <I2C_MultipleRead+0x160>
 a801310:	e0bff917 	ldw	r2,-28(fp)
 a801314:	1004c03a 	cmpne	r2,r2,zero
 a801318:	103fec1e 	bne	r2,zero,a8012cc <I2C_MultipleRead+0x110>
            i2c_read(clk_base, data_base, &szData[i], (i==(len-1))?FALSE:TRUE);  // read
        }            
    }        
    i2c_stop(clk_base, data_base);
 a80131c:	e13ffb17 	ldw	r4,-20(fp)
 a801320:	e17ffc17 	ldw	r5,-16(fp)
 a801324:	a8013c80 	call	a8013c8 <i2c_stop>
    
    return bSuccess;    
 a801328:	e0bff917 	ldw	r2,-28(fp)
    
}
 a80132c:	e037883a 	mov	sp,fp
 a801330:	dfc00117 	ldw	ra,4(sp)
 a801334:	df000017 	ldw	fp,0(sp)
 a801338:	dec00204 	addi	sp,sp,8
 a80133c:	f800283a 	ret

0a801340 <i2c_start>:
///////////// Interncal function (i2cXXX) body //////////////////////////////////////////////
/////////////////////////////////////////////////////////////////////////////////////////////


//SDA 1->0 while SCL=1
void i2c_start(alt_u32 clk_base, alt_u32 data_base){
 a801340:	defffc04 	addi	sp,sp,-16
 a801344:	dfc00315 	stw	ra,12(sp)
 a801348:	df000215 	stw	fp,8(sp)
 a80134c:	df000204 	addi	fp,sp,8
 a801350:	e13ffe15 	stw	r4,-8(fp)
 a801354:	e17fff15 	stw	r5,-4(fp)
    
    // make sure it is in normal state
    SDA_DIR_OUT(data_base);  // data output enabled
 a801358:	e0bfff17 	ldw	r2,-4(fp)
 a80135c:	10800104 	addi	r2,r2,4
 a801360:	1007883a 	mov	r3,r2
 a801364:	00800044 	movi	r2,1
 a801368:	18800035 	stwio	r2,0(r3)
    
    
    
    // start condition 
    SDA_HIGH(data_base); // data high
 a80136c:	e0bfff17 	ldw	r2,-4(fp)
 a801370:	1007883a 	mov	r3,r2
 a801374:	00800044 	movi	r2,1
 a801378:	18800035 	stwio	r2,0(r3)
    SCL_HIGH(clk_base);
 a80137c:	e0bffe17 	ldw	r2,-8(fp)
 a801380:	1007883a 	mov	r3,r2
 a801384:	00800044 	movi	r2,1
 a801388:	18800035 	stwio	r2,0(r3)
    SCL_DELAY;
 a80138c:	01000044 	movi	r4,1
 a801390:	a80da100 	call	a80da10 <usleep>
     
    SDA_LOW(data_base); // data low
 a801394:	e0bfff17 	ldw	r2,-4(fp)
 a801398:	10000035 	stwio	zero,0(r2)
    SCL_DELAY; 
 a80139c:	01000044 	movi	r4,1
 a8013a0:	a80da100 	call	a80da10 <usleep>
    SCL_LOW(clk_base); // clock low
 a8013a4:	e0bffe17 	ldw	r2,-8(fp)
 a8013a8:	10000035 	stwio	zero,0(r2)
    SCL_DELAY;
 a8013ac:	01000044 	movi	r4,1
 a8013b0:	a80da100 	call	a80da10 <usleep>
}
 a8013b4:	e037883a 	mov	sp,fp
 a8013b8:	dfc00117 	ldw	ra,4(sp)
 a8013bc:	df000017 	ldw	fp,0(sp)
 a8013c0:	dec00204 	addi	sp,sp,8
 a8013c4:	f800283a 	ret

0a8013c8 <i2c_stop>:

// SDA 0->1 while SCL=1
void i2c_stop(alt_u32 clk_base, alt_u32 data_base){
 a8013c8:	defffc04 	addi	sp,sp,-16
 a8013cc:	dfc00315 	stw	ra,12(sp)
 a8013d0:	df000215 	stw	fp,8(sp)
 a8013d4:	df000204 	addi	fp,sp,8
 a8013d8:	e13ffe15 	stw	r4,-8(fp)
 a8013dc:	e17fff15 	stw	r5,-4(fp)
    // assume SCL = 0
    
    SDA_DIR_OUT(data_base);  // data output enabled
 a8013e0:	e0bfff17 	ldw	r2,-4(fp)
 a8013e4:	10800104 	addi	r2,r2,4
 a8013e8:	1007883a 	mov	r3,r2
 a8013ec:	00800044 	movi	r2,1
 a8013f0:	18800035 	stwio	r2,0(r3)
    SDA_LOW(data_base); // Data Low
 a8013f4:	e0bfff17 	ldw	r2,-4(fp)
 a8013f8:	10000035 	stwio	zero,0(r2)
    //SCL_DELAY; 
    SCL_HIGH(clk_base);  // clock high
 a8013fc:	e0bffe17 	ldw	r2,-8(fp)
 a801400:	1007883a 	mov	r3,r2
 a801404:	00800044 	movi	r2,1
 a801408:	18800035 	stwio	r2,0(r3)
    SCL_DELAY; // clock high long delay
 a80140c:	01000044 	movi	r4,1
 a801410:	a80da100 	call	a80da10 <usleep>
    SDA_HIGH(data_base); // data high
 a801414:	e0bfff17 	ldw	r2,-4(fp)
 a801418:	1007883a 	mov	r3,r2
 a80141c:	00800044 	movi	r2,1
 a801420:	18800035 	stwio	r2,0(r3)
    SCL_DELAY; // data high delay
 a801424:	01000044 	movi	r4,1
 a801428:	a80da100 	call	a80da10 <usleep>
}
 a80142c:	e037883a 	mov	sp,fp
 a801430:	dfc00117 	ldw	ra,4(sp)
 a801434:	df000017 	ldw	fp,0(sp)
 a801438:	dec00204 	addi	sp,sp,8
 a80143c:	f800283a 	ret

0a801440 <i2c_write>:

bool i2c_write(alt_u32 clk_base, alt_u32 data_base, alt_u8 Data){ // return true if device response ack
 a801440:	defff804 	addi	sp,sp,-32
 a801444:	dfc00715 	stw	ra,28(sp)
 a801448:	df000615 	stw	fp,24(sp)
 a80144c:	df000604 	addi	fp,sp,24
 a801450:	e13ffd15 	stw	r4,-12(fp)
 a801454:	e17ffe15 	stw	r5,-8(fp)
 a801458:	e1bfff05 	stb	r6,-4(fp)
    alt_u8 Mask = 0x80;
 a80145c:	00bfe004 	movi	r2,-128
 a801460:	e0bffc05 	stb	r2,-16(fp)
    bool bAck;
    int i;
    
    // assume, SCL = 0
    
    SDA_DIR_OUT(data_base);  // data write mode
 a801464:	e0bffe17 	ldw	r2,-8(fp)
 a801468:	10800104 	addi	r2,r2,4
 a80146c:	1007883a 	mov	r3,r2
 a801470:	00800044 	movi	r2,1
 a801474:	18800035 	stwio	r2,0(r3)
    
    for(i=0;i<8;i++){
 a801478:	e03ffa15 	stw	zero,-24(fp)
 a80147c:	00001f06 	br	a8014fc <i2c_write+0xbc>
        SCL_LOW(clk_base);  // new, make sure data change at clk low
 a801480:	e0bffd17 	ldw	r2,-12(fp)
 a801484:	10000035 	stwio	zero,0(r2)
        // output data on bus
        if (Data & Mask){ // there is a delay in this command
 a801488:	e0ffff03 	ldbu	r3,-4(fp)
 a80148c:	e0bffc03 	ldbu	r2,-16(fp)
 a801490:	1884703a 	and	r2,r3,r2
 a801494:	10803fcc 	andi	r2,r2,255
 a801498:	1005003a 	cmpeq	r2,r2,zero
 a80149c:	1000051e 	bne	r2,zero,a8014b4 <i2c_write+0x74>
            SDA_HIGH(data_base);
 a8014a0:	e0bffe17 	ldw	r2,-8(fp)
 a8014a4:	1007883a 	mov	r3,r2
 a8014a8:	00800044 	movi	r2,1
 a8014ac:	18800035 	stwio	r2,0(r3)
 a8014b0:	00000206 	br	a8014bc <i2c_write+0x7c>
        }else{    
            SDA_LOW(data_base);
 a8014b4:	e0bffe17 	ldw	r2,-8(fp)
 a8014b8:	10000035 	stwio	zero,0(r2)
        }
        Mask >>= 1; // there is a delay in this command
 a8014bc:	e0bffc03 	ldbu	r2,-16(fp)
 a8014c0:	1004d07a 	srli	r2,r2,1
 a8014c4:	e0bffc05 	stb	r2,-16(fp)
        // clock high
        SCL_HIGH(clk_base);
 a8014c8:	e0bffd17 	ldw	r2,-12(fp)
 a8014cc:	1007883a 	mov	r3,r2
 a8014d0:	00800044 	movi	r2,1
 a8014d4:	18800035 	stwio	r2,0(r3)
        SCL_DELAY;
 a8014d8:	01000044 	movi	r4,1
 a8014dc:	a80da100 	call	a80da10 <usleep>
        SCL_LOW(clk_base);
 a8014e0:	e0bffd17 	ldw	r2,-12(fp)
 a8014e4:	10000035 	stwio	zero,0(r2)
        SCL_DELAY;
 a8014e8:	01000044 	movi	r4,1
 a8014ec:	a80da100 	call	a80da10 <usleep>
    
    // assume, SCL = 0
    
    SDA_DIR_OUT(data_base);  // data write mode
    
    for(i=0;i<8;i++){
 a8014f0:	e0bffa17 	ldw	r2,-24(fp)
 a8014f4:	10800044 	addi	r2,r2,1
 a8014f8:	e0bffa15 	stw	r2,-24(fp)
 a8014fc:	e0bffa17 	ldw	r2,-24(fp)
 a801500:	10800210 	cmplti	r2,r2,8
 a801504:	103fde1e 	bne	r2,zero,a801480 <i2c_write+0x40>
        SCL_LOW(clk_base);
        SCL_DELAY;
    }
    
    //===== get ack
    SDA_DIR_IN(data_base);  // data read mode
 a801508:	e0bffe17 	ldw	r2,-8(fp)
 a80150c:	10800104 	addi	r2,r2,4
 a801510:	10000035 	stwio	zero,0(r2)
    //SCL_DELAY;
    // clock high
    SCL_HIGH(clk_base);  // clock high
 a801514:	e0bffd17 	ldw	r2,-12(fp)
 a801518:	1007883a 	mov	r3,r2
 a80151c:	00800044 	movi	r2,1
 a801520:	18800035 	stwio	r2,0(r3)
    SCL_DELAY;  // clock high delay
 a801524:	01000044 	movi	r4,1
 a801528:	a80da100 	call	a80da10 <usleep>
    bAck = SDA_READ(data_base)?FALSE:TRUE;  // get ack
 a80152c:	e0bffe17 	ldw	r2,-8(fp)
 a801530:	10800037 	ldwio	r2,0(r2)
 a801534:	1005003a 	cmpeq	r2,r2,zero
 a801538:	e0bffb15 	stw	r2,-20(fp)
    //SCL_DELAY;
    //SDA_DIR_OUT;
    SCL_LOW(clk_base); // clock low         
 a80153c:	e0bffd17 	ldw	r2,-12(fp)
 a801540:	10000035 	stwio	zero,0(r2)
    SCL_DELAY; // clock low delay
 a801544:	01000044 	movi	r4,1
 a801548:	a80da100 	call	a80da10 <usleep>
    return bAck;
 a80154c:	e0bffb17 	ldw	r2,-20(fp)
}    
 a801550:	e037883a 	mov	sp,fp
 a801554:	dfc00117 	ldw	ra,4(sp)
 a801558:	df000017 	ldw	fp,0(sp)
 a80155c:	dec00204 	addi	sp,sp,8
 a801560:	f800283a 	ret

0a801564 <i2c_read>:

void i2c_read(alt_u32 clk_base, alt_u32 data_base, alt_u8 *pData, bool bAck){ // return true if device response ack
 a801564:	defff804 	addi	sp,sp,-32
 a801568:	dfc00715 	stw	ra,28(sp)
 a80156c:	df000615 	stw	fp,24(sp)
 a801570:	df000604 	addi	fp,sp,24
 a801574:	e13ffc15 	stw	r4,-16(fp)
 a801578:	e17ffd15 	stw	r5,-12(fp)
 a80157c:	e1bffe15 	stw	r6,-8(fp)
 a801580:	e1ffff15 	stw	r7,-4(fp)
    alt_u8 Data=0;
 a801584:	e03ffb05 	stb	zero,-20(fp)
    int i;
    
    // assume SCL = low
    
    SDA_DIR_IN(data_base);  // set data read mode
 a801588:	e0bffd17 	ldw	r2,-12(fp)
 a80158c:	10800104 	addi	r2,r2,4
 a801590:	10000035 	stwio	zero,0(r2)
    SCL_LOW(clk_base); // clock low
 a801594:	e0bffc17 	ldw	r2,-16(fp)
 a801598:	10000035 	stwio	zero,0(r2)
    SCL_DELAY; // clock low delay
 a80159c:	01000044 	movi	r4,1
 a8015a0:	a80da100 	call	a80da10 <usleep>

    for(i=0;i<8;i++){
 a8015a4:	e03ffa15 	stw	zero,-24(fp)
 a8015a8:	00001706 	br	a801608 <i2c_read+0xa4>
        Data <<= 1;
 a8015ac:	e0bffb03 	ldbu	r2,-20(fp)
 a8015b0:	1085883a 	add	r2,r2,r2
 a8015b4:	e0bffb05 	stb	r2,-20(fp)
        SCL_HIGH(clk_base);  // clock high
 a8015b8:	e0bffc17 	ldw	r2,-16(fp)
 a8015bc:	1007883a 	mov	r3,r2
 a8015c0:	00800044 	movi	r2,1
 a8015c4:	18800035 	stwio	r2,0(r3)
        SCL_DELAY;
 a8015c8:	01000044 	movi	r4,1
 a8015cc:	a80da100 	call	a80da10 <usleep>
        if (SDA_READ(data_base))  // read data   
 a8015d0:	e0bffd17 	ldw	r2,-12(fp)
 a8015d4:	10800037 	ldwio	r2,0(r2)
 a8015d8:	1005003a 	cmpeq	r2,r2,zero
 a8015dc:	1000031e 	bne	r2,zero,a8015ec <i2c_read+0x88>
            Data |= 0x01;
 a8015e0:	e0bffb03 	ldbu	r2,-20(fp)
 a8015e4:	10800054 	ori	r2,r2,1
 a8015e8:	e0bffb05 	stb	r2,-20(fp)
        SCL_LOW(clk_base);  // clock log  
 a8015ec:	e0bffc17 	ldw	r2,-16(fp)
 a8015f0:	10000035 	stwio	zero,0(r2)
        SCL_DELAY;
 a8015f4:	01000044 	movi	r4,1
 a8015f8:	a80da100 	call	a80da10 <usleep>
    
    SDA_DIR_IN(data_base);  // set data read mode
    SCL_LOW(clk_base); // clock low
    SCL_DELAY; // clock low delay

    for(i=0;i<8;i++){
 a8015fc:	e0bffa17 	ldw	r2,-24(fp)
 a801600:	10800044 	addi	r2,r2,1
 a801604:	e0bffa15 	stw	r2,-24(fp)
 a801608:	e0bffa17 	ldw	r2,-24(fp)
 a80160c:	10800210 	cmplti	r2,r2,8
 a801610:	103fe61e 	bne	r2,zero,a8015ac <i2c_read+0x48>
        SCL_LOW(clk_base);  // clock log  
        SCL_DELAY;
    }
    
    // send ACK
    SCL_LOW(clk_base);  // new, make sure data change at clk low
 a801614:	e0bffc17 	ldw	r2,-16(fp)
 a801618:	10000035 	stwio	zero,0(r2)
    SDA_DIR_OUT(data_base);  // set data write mode
 a80161c:	e0bffd17 	ldw	r2,-12(fp)
 a801620:	10800104 	addi	r2,r2,4
 a801624:	1007883a 	mov	r3,r2
 a801628:	00800044 	movi	r2,1
 a80162c:	18800035 	stwio	r2,0(r3)
    if (bAck)
 a801630:	e0bfff17 	ldw	r2,-4(fp)
 a801634:	1005003a 	cmpeq	r2,r2,zero
 a801638:	1000031e 	bne	r2,zero,a801648 <i2c_read+0xe4>
        SDA_LOW(data_base);
 a80163c:	e0bffd17 	ldw	r2,-12(fp)
 a801640:	10000035 	stwio	zero,0(r2)
 a801644:	00000406 	br	a801658 <i2c_read+0xf4>
    else
        SDA_HIGH(data_base);
 a801648:	e0bffd17 	ldw	r2,-12(fp)
 a80164c:	1007883a 	mov	r3,r2
 a801650:	00800044 	movi	r2,1
 a801654:	18800035 	stwio	r2,0(r3)
    SCL_HIGH(clk_base); // clock high
 a801658:	e0bffc17 	ldw	r2,-16(fp)
 a80165c:	1007883a 	mov	r3,r2
 a801660:	00800044 	movi	r2,1
 a801664:	18800035 	stwio	r2,0(r3)
    SCL_DELAY; // clock high  delay
 a801668:	01000044 	movi	r4,1
 a80166c:	a80da100 	call	a80da10 <usleep>
    SCL_LOW(clk_base); // clock low
 a801670:	e0bffc17 	ldw	r2,-16(fp)
 a801674:	10000035 	stwio	zero,0(r2)
    SCL_DELAY; // clock low delay
 a801678:	01000044 	movi	r4,1
 a80167c:	a80da100 	call	a80da10 <usleep>
    SDA_LOW(data_base);  // data low
 a801680:	e0bffd17 	ldw	r2,-12(fp)
 a801684:	10000035 	stwio	zero,0(r2)
    SCL_DELAY; // data low delay
 a801688:	01000044 	movi	r4,1
 a80168c:	a80da100 	call	a80da10 <usleep>
//    SDA_DIR_IN;  // set data read mode
    
    *pData = Data;
 a801690:	e0fffe17 	ldw	r3,-8(fp)
 a801694:	e0bffb03 	ldbu	r2,-20(fp)
 a801698:	18800005 	stb	r2,0(r3)
}
 a80169c:	e037883a 	mov	sp,fp
 a8016a0:	dfc00117 	ldw	ra,4(sp)
 a8016a4:	df000017 	ldw	fp,0(sp)
 a8016a8:	dec00204 	addi	sp,sp,8
 a8016ac:	f800283a 	ret

0a8016b0 <LCD_Open>:
// (\r): Move the cursor to the start of the current line
// (\n): Move the cursor to the start of the line and move it donw one line

static FILE *fp=0;

bool LCD_Open(void){
 a8016b0:	defffd04 	addi	sp,sp,-12
 a8016b4:	dfc00215 	stw	ra,8(sp)
 a8016b8:	df000115 	stw	fp,4(sp)
 a8016bc:	df000104 	addi	fp,sp,4
    fp = fopen(LCD_NAME, "w");
 a8016c0:	0102a074 	movhi	r4,2689
 a8016c4:	210c4604 	addi	r4,r4,12568
 a8016c8:	0142a074 	movhi	r5,2689
 a8016cc:	294c4904 	addi	r5,r5,12580
 a8016d0:	a8032300 	call	a803230 <fopen>
 a8016d4:	d0a73115 	stw	r2,-25404(gp)
    if (fp)
 a8016d8:	d0a73117 	ldw	r2,-25404(gp)
 a8016dc:	1005003a 	cmpeq	r2,r2,zero
 a8016e0:	1000031e 	bne	r2,zero,a8016f0 <LCD_Open+0x40>
        return TRUE;
 a8016e4:	00800044 	movi	r2,1
 a8016e8:	e0bfff15 	stw	r2,-4(fp)
 a8016ec:	00000106 	br	a8016f4 <LCD_Open+0x44>
    return FALSE;        
 a8016f0:	e03fff15 	stw	zero,-4(fp)
 a8016f4:	e0bfff17 	ldw	r2,-4(fp)
}
 a8016f8:	e037883a 	mov	sp,fp
 a8016fc:	dfc00117 	ldw	ra,4(sp)
 a801700:	df000017 	ldw	fp,0(sp)
 a801704:	dec00204 	addi	sp,sp,8
 a801708:	f800283a 	ret

0a80170c <LCD_TextOut>:
bool LCD_TextOut(char *pText){
 a80170c:	defffc04 	addi	sp,sp,-16
 a801710:	dfc00315 	stw	ra,12(sp)
 a801714:	df000215 	stw	fp,8(sp)
 a801718:	df000204 	addi	fp,sp,8
 a80171c:	e13ffe15 	stw	r4,-8(fp)
    if (!fp)
 a801720:	d0a73117 	ldw	r2,-25404(gp)
 a801724:	1004c03a 	cmpne	r2,r2,zero
 a801728:	1000021e 	bne	r2,zero,a801734 <LCD_TextOut+0x28>
        return FALSE;
 a80172c:	e03fff15 	stw	zero,-4(fp)
 a801730:	00000906 	br	a801758 <LCD_TextOut+0x4c>
    fwrite(pText, strlen(pText), 1, fp);        
 a801734:	e13ffe17 	ldw	r4,-8(fp)
 a801738:	a804d3c0 	call	a804d3c <strlen>
 a80173c:	100b883a 	mov	r5,r2
 a801740:	d1e73117 	ldw	r7,-25404(gp)
 a801744:	e13ffe17 	ldw	r4,-8(fp)
 a801748:	01800044 	movi	r6,1
 a80174c:	a803d7c0 	call	a803d7c <fwrite>
    return TRUE;        
 a801750:	00800044 	movi	r2,1
 a801754:	e0bfff15 	stw	r2,-4(fp)
 a801758:	e0bfff17 	ldw	r2,-4(fp)
}
 a80175c:	e037883a 	mov	sp,fp
 a801760:	dfc00117 	ldw	ra,4(sp)
 a801764:	df000017 	ldw	fp,0(sp)
 a801768:	dec00204 	addi	sp,sp,8
 a80176c:	f800283a 	ret

0a801770 <LCD_Clear>:

bool LCD_Clear(void){
 a801770:	defff504 	addi	sp,sp,-44
 a801774:	dfc00a15 	stw	ra,40(sp)
 a801778:	df000915 	stw	fp,36(sp)
 a80177c:	df000904 	addi	fp,sp,36
    char szText[32]="\n\n";
 a801780:	00c2a074 	movhi	r3,2689
 a801784:	18cc4a04 	addi	r3,r3,12584
 a801788:	1880000b 	ldhu	r2,0(r3)
 a80178c:	e0bff70d 	sth	r2,-36(fp)
 a801790:	18800083 	ldbu	r2,2(r3)
 a801794:	e0bff785 	stb	r2,-34(fp)
 a801798:	e13ff7c4 	addi	r4,fp,-33
 a80179c:	01800744 	movi	r6,29
 a8017a0:	000b883a 	mov	r5,zero
 a8017a4:	a8046900 	call	a804690 <memset>
    if (!fp)
 a8017a8:	d0a73117 	ldw	r2,-25404(gp)
 a8017ac:	1004c03a 	cmpne	r2,r2,zero
 a8017b0:	1000021e 	bne	r2,zero,a8017bc <LCD_Clear+0x4c>
        return FALSE;
 a8017b4:	e03fff15 	stw	zero,-4(fp)
 a8017b8:	00000906 	br	a8017e0 <LCD_Clear+0x70>
    fwrite(szText, strlen(szText), 1, fp);        
 a8017bc:	e13ff704 	addi	r4,fp,-36
 a8017c0:	a804d3c0 	call	a804d3c <strlen>
 a8017c4:	100b883a 	mov	r5,r2
 a8017c8:	d1e73117 	ldw	r7,-25404(gp)
 a8017cc:	e13ff704 	addi	r4,fp,-36
 a8017d0:	01800044 	movi	r6,1
 a8017d4:	a803d7c0 	call	a803d7c <fwrite>
    return TRUE;        
 a8017d8:	00800044 	movi	r2,1
 a8017dc:	e0bfff15 	stw	r2,-4(fp)
 a8017e0:	e0bfff17 	ldw	r2,-4(fp)
}
 a8017e4:	e037883a 	mov	sp,fp
 a8017e8:	dfc00117 	ldw	ra,4(sp)
 a8017ec:	df000017 	ldw	fp,0(sp)
 a8017f0:	dec00204 	addi	sp,sp,8
 a8017f4:	f800283a 	ret

0a8017f8 <LCD_Close>:


void LCD_Close(void){
 a8017f8:	defffe04 	addi	sp,sp,-8
 a8017fc:	dfc00115 	stw	ra,4(sp)
 a801800:	df000015 	stw	fp,0(sp)
 a801804:	d839883a 	mov	fp,sp
    if (fp)
 a801808:	d0a73117 	ldw	r2,-25404(gp)
 a80180c:	1005003a 	cmpeq	r2,r2,zero
 a801810:	1000021e 	bne	r2,zero,a80181c <LCD_Close+0x24>
        fclose(fp);
 a801814:	d1273117 	ldw	r4,-25404(gp)
 a801818:	a802c380 	call	a802c38 <fclose>
    fp = 0;        
 a80181c:	d0273115 	stw	zero,-25404(gp)
}
 a801820:	e037883a 	mov	sp,fp
 a801824:	dfc00117 	ldw	ra,4(sp)
 a801828:	df000017 	ldw	fp,0(sp)
 a80182c:	dec00204 	addi	sp,sp,8
 a801830:	f800283a 	ret

0a801834 <LED_Display>:
#define LED_INIT_MASK   (0x01 << 24)

#define LED_SET(mask)   IOWR_ALTERA_AVALON_PIO_DATA(PIO_LED_BASE, mask)


void LED_Display(alt_u32 Mask){ // 1: light, 0:unlight
 a801834:	defffd04 	addi	sp,sp,-12
 a801838:	df000215 	stw	fp,8(sp)
 a80183c:	df000204 	addi	fp,sp,8
 a801840:	e13fff15 	stw	r4,-4(fp)
    alt_u32 ThisMask;
    ThisMask = Mask;//~(Mask & 0x7FFFFFF);
 a801844:	e0bfff17 	ldw	r2,-4(fp)
 a801848:	e0bffe15 	stw	r2,-8(fp)
    LED_SET(ThisMask);  //0:ligh, 1:unlight
 a80184c:	e0fffe17 	ldw	r3,-8(fp)
 a801850:	00820034 	movhi	r2,2048
 a801854:	10802804 	addi	r2,r2,160
 a801858:	10c00035 	stwio	r3,0(r2)
    
}
 a80185c:	e037883a 	mov	sp,fp
 a801860:	df000017 	ldw	fp,0(sp)
 a801864:	dec00104 	addi	sp,sp,4
 a801868:	f800283a 	ret

0a80186c <LED_AllOn>:


void LED_AllOn(void){
 a80186c:	defffe04 	addi	sp,sp,-8
 a801870:	dfc00115 	stw	ra,4(sp)
 a801874:	df000015 	stw	fp,0(sp)
 a801878:	d839883a 	mov	fp,sp
    LED_Display(0xFFFFFFFF);       
 a80187c:	013fffc4 	movi	r4,-1
 a801880:	a8018340 	call	a801834 <LED_Display>
}
 a801884:	e037883a 	mov	sp,fp
 a801888:	dfc00117 	ldw	ra,4(sp)
 a80188c:	df000017 	ldw	fp,0(sp)
 a801890:	dec00204 	addi	sp,sp,8
 a801894:	f800283a 	ret

0a801898 <LED_AllOff>:

void LED_AllOff(void){
 a801898:	defffe04 	addi	sp,sp,-8
 a80189c:	dfc00115 	stw	ra,4(sp)
 a8018a0:	df000015 	stw	fp,0(sp)
 a8018a4:	d839883a 	mov	fp,sp
    LED_Display(0x00);       
 a8018a8:	0009883a 	mov	r4,zero
 a8018ac:	a8018340 	call	a801834 <LED_Display>
}
 a8018b0:	e037883a 	mov	sp,fp
 a8018b4:	dfc00117 	ldw	ra,4(sp)
 a8018b8:	df000017 	ldw	fp,0(sp)
 a8018bc:	dec00204 	addi	sp,sp,8
 a8018c0:	f800283a 	ret

0a8018c4 <LED_LightCount>:


void LED_LightCount(alt_u8 LightCount){ // 1: light, 0:unlight
 a8018c4:	defffb04 	addi	sp,sp,-20
 a8018c8:	dfc00415 	stw	ra,16(sp)
 a8018cc:	df000315 	stw	fp,12(sp)
 a8018d0:	df000304 	addi	fp,sp,12
 a8018d4:	e13fff05 	stb	r4,-4(fp)
    alt_u32 Mask = 0;
 a8018d8:	e03ffe15 	stw	zero,-8(fp)
    int i;
    for(i=0;i<LightCount;i++){
 a8018dc:	e03ffd15 	stw	zero,-12(fp)
 a8018e0:	00000906 	br	a801908 <LED_LightCount+0x44>
        Mask <<= 1;
 a8018e4:	e0bffe17 	ldw	r2,-8(fp)
 a8018e8:	1085883a 	add	r2,r2,r2
 a8018ec:	e0bffe15 	stw	r2,-8(fp)
        Mask |= 0x01;
 a8018f0:	e0bffe17 	ldw	r2,-8(fp)
 a8018f4:	10800054 	ori	r2,r2,1
 a8018f8:	e0bffe15 	stw	r2,-8(fp)


void LED_LightCount(alt_u8 LightCount){ // 1: light, 0:unlight
    alt_u32 Mask = 0;
    int i;
    for(i=0;i<LightCount;i++){
 a8018fc:	e0bffd17 	ldw	r2,-12(fp)
 a801900:	10800044 	addi	r2,r2,1
 a801904:	e0bffd15 	stw	r2,-12(fp)
 a801908:	e0ffff03 	ldbu	r3,-4(fp)
 a80190c:	e0bffd17 	ldw	r2,-12(fp)
 a801910:	10fff416 	blt	r2,r3,a8018e4 <LED_LightCount+0x20>
        Mask <<= 1;
        Mask |= 0x01;
    }
    LED_Display(Mask);  //0:ligh, 1:unlight
 a801914:	e13ffe17 	ldw	r4,-8(fp)
 a801918:	a8018340 	call	a801834 <LED_Display>
    
}
 a80191c:	e037883a 	mov	sp,fp
 a801920:	dfc00117 	ldw	ra,4(sp)
 a801924:	df000017 	ldw	fp,0(sp)
 a801928:	dec00204 	addi	sp,sp,8
 a80192c:	f800283a 	ret

0a801930 <SEG7_Clear>:
static    unsigned char szMap[] = {
        63, 6, 91, 79, 102, 109, 125, 7, 
        127, 111, 119, 124, 57, 94, 121, 113
    };  // 0,1,2,....9, a, b, c, d, e, f
    
void SEG7_Clear(void){
 a801930:	defffe04 	addi	sp,sp,-8
 a801934:	df000115 	stw	fp,4(sp)
 a801938:	df000104 	addi	fp,sp,4
    int i;
    for(i=0;i<SEG7_NUM;i++){
 a80193c:	e03fff15 	stw	zero,-4(fp)
 a801940:	00000a06 	br	a80196c <SEG7_Clear+0x3c>
        SEG7_SET(i, 0x00);
 a801944:	e0bfff17 	ldw	r2,-4(fp)
 a801948:	1085883a 	add	r2,r2,r2
 a80194c:	1085883a 	add	r2,r2,r2
 a801950:	1007883a 	mov	r3,r2
 a801954:	00820034 	movhi	r2,2048
 a801958:	1885883a 	add	r2,r3,r2
 a80195c:	10000035 	stwio	zero,0(r2)
        127, 111, 119, 124, 57, 94, 121, 113
    };  // 0,1,2,....9, a, b, c, d, e, f
    
void SEG7_Clear(void){
    int i;
    for(i=0;i<SEG7_NUM;i++){
 a801960:	e0bfff17 	ldw	r2,-4(fp)
 a801964:	10800044 	addi	r2,r2,1
 a801968:	e0bfff15 	stw	r2,-4(fp)
 a80196c:	e0bfff17 	ldw	r2,-4(fp)
 a801970:	10800210 	cmplti	r2,r2,8
 a801974:	103ff31e 	bne	r2,zero,a801944 <SEG7_Clear+0x14>
        SEG7_SET(i, 0x00);
    }        
}
 a801978:	e037883a 	mov	sp,fp
 a80197c:	df000017 	ldw	fp,0(sp)
 a801980:	dec00104 	addi	sp,sp,4
 a801984:	f800283a 	ret

0a801988 <SEG7_Full>:
void SEG7_Full(void){
 a801988:	defffe04 	addi	sp,sp,-8
 a80198c:	df000115 	stw	fp,4(sp)
 a801990:	df000104 	addi	fp,sp,4
    int i;
    for(i=0;i<SEG7_NUM;i++){
 a801994:	e03fff15 	stw	zero,-4(fp)
 a801998:	00000c06 	br	a8019cc <SEG7_Full+0x44>
        SEG7_SET(i, 0xFF);
 a80199c:	e0bfff17 	ldw	r2,-4(fp)
 a8019a0:	1085883a 	add	r2,r2,r2
 a8019a4:	1085883a 	add	r2,r2,r2
 a8019a8:	1007883a 	mov	r3,r2
 a8019ac:	00820034 	movhi	r2,2048
 a8019b0:	1885883a 	add	r2,r3,r2
 a8019b4:	1007883a 	mov	r3,r2
 a8019b8:	00803fc4 	movi	r2,255
 a8019bc:	18800035 	stwio	r2,0(r3)
        SEG7_SET(i, 0x00);
    }        
}
void SEG7_Full(void){
    int i;
    for(i=0;i<SEG7_NUM;i++){
 a8019c0:	e0bfff17 	ldw	r2,-4(fp)
 a8019c4:	10800044 	addi	r2,r2,1
 a8019c8:	e0bfff15 	stw	r2,-4(fp)
 a8019cc:	e0bfff17 	ldw	r2,-4(fp)
 a8019d0:	10800210 	cmplti	r2,r2,8
 a8019d4:	103ff11e 	bne	r2,zero,a80199c <SEG7_Full+0x14>
        SEG7_SET(i, 0xFF);
    }        
}
 a8019d8:	e037883a 	mov	sp,fp
 a8019dc:	df000017 	ldw	fp,0(sp)
 a8019e0:	dec00104 	addi	sp,sp,4
 a8019e4:	f800283a 	ret

0a8019e8 <SEG7_Number>:

void SEG7_Number(void){
 a8019e8:	defffe04 	addi	sp,sp,-8
 a8019ec:	df000115 	stw	fp,4(sp)
 a8019f0:	df000104 	addi	fp,sp,4
    int i;
    for(i=0;i<SEG7_NUM;i++){
 a8019f4:	e03fff15 	stw	zero,-4(fp)
 a8019f8:	00001106 	br	a801a40 <SEG7_Number+0x58>
        SEG7_SET(i, szMap[i]);
 a8019fc:	e0bfff17 	ldw	r2,-4(fp)
 a801a00:	1085883a 	add	r2,r2,r2
 a801a04:	1085883a 	add	r2,r2,r2
 a801a08:	1007883a 	mov	r3,r2
 a801a0c:	00820034 	movhi	r2,2048
 a801a10:	1889883a 	add	r4,r3,r2
 a801a14:	e0ffff17 	ldw	r3,-4(fp)
 a801a18:	0082a074 	movhi	r2,2689
 a801a1c:	10906904 	addi	r2,r2,16804
 a801a20:	10c5883a 	add	r2,r2,r3
 a801a24:	10800003 	ldbu	r2,0(r2)
 a801a28:	10c03fcc 	andi	r3,r2,255
 a801a2c:	2005883a 	mov	r2,r4
 a801a30:	10c00035 	stwio	r3,0(r2)
    }        
}

void SEG7_Number(void){
    int i;
    for(i=0;i<SEG7_NUM;i++){
 a801a34:	e0bfff17 	ldw	r2,-4(fp)
 a801a38:	10800044 	addi	r2,r2,1
 a801a3c:	e0bfff15 	stw	r2,-4(fp)
 a801a40:	e0bfff17 	ldw	r2,-4(fp)
 a801a44:	10800210 	cmplti	r2,r2,8
 a801a48:	103fec1e 	bne	r2,zero,a8019fc <SEG7_Number+0x14>
        SEG7_SET(i, szMap[i]);
    }        
}
 a801a4c:	e037883a 	mov	sp,fp
 a801a50:	df000017 	ldw	fp,0(sp)
 a801a54:	dec00104 	addi	sp,sp,4
 a801a58:	f800283a 	ret

0a801a5c <SEG7_Hex>:

void SEG7_Hex(alt_u32 Data, alt_u8 point_mask){
 a801a5c:	defffb04 	addi	sp,sp,-20
 a801a60:	df000415 	stw	fp,16(sp)
 a801a64:	df000404 	addi	fp,sp,16
 a801a68:	e13ffe15 	stw	r4,-8(fp)
 a801a6c:	e17fff05 	stb	r5,-4(fp)
    alt_u8 mask = 0x01;
 a801a70:	00800044 	movi	r2,1
 a801a74:	e0bffd45 	stb	r2,-11(fp)
    alt_u8 seg_mask;
    int i;
    
    //
    seg_mask = 0;
 a801a78:	e03ffd05 	stb	zero,-12(fp)
    for(i=0;i<SEG7_NUM;i++){
 a801a7c:	e03ffc15 	stw	zero,-16(fp)
 a801a80:	00002206 	br	a801b0c <SEG7_Hex+0xb0>
        seg_mask = szMap[Data & 0x0F];
 a801a84:	e0bffe17 	ldw	r2,-8(fp)
 a801a88:	10c003cc 	andi	r3,r2,15
 a801a8c:	0082a074 	movhi	r2,2689
 a801a90:	10906904 	addi	r2,r2,16804
 a801a94:	10c5883a 	add	r2,r2,r3
 a801a98:	10800003 	ldbu	r2,0(r2)
 a801a9c:	e0bffd05 	stb	r2,-12(fp)
        Data >>= 4;
 a801aa0:	e0bffe17 	ldw	r2,-8(fp)
 a801aa4:	1004d13a 	srli	r2,r2,4
 a801aa8:	e0bffe15 	stw	r2,-8(fp)
        if (point_mask & mask)
 a801aac:	e0ffff03 	ldbu	r3,-4(fp)
 a801ab0:	e0bffd43 	ldbu	r2,-11(fp)
 a801ab4:	1884703a 	and	r2,r3,r2
 a801ab8:	10803fcc 	andi	r2,r2,255
 a801abc:	1005003a 	cmpeq	r2,r2,zero
 a801ac0:	1000041e 	bne	r2,zero,a801ad4 <SEG7_Hex+0x78>
            seg_mask |= 0x80;
 a801ac4:	e0bffd03 	ldbu	r2,-12(fp)
 a801ac8:	00ffe004 	movi	r3,-128
 a801acc:	10c4b03a 	or	r2,r2,r3
 a801ad0:	e0bffd05 	stb	r2,-12(fp)
        mask <<= 1;     
 a801ad4:	e0bffd43 	ldbu	r2,-11(fp)
 a801ad8:	1085883a 	add	r2,r2,r2
 a801adc:	e0bffd45 	stb	r2,-11(fp)
        SEG7_SET(i, seg_mask);
 a801ae0:	e0bffc17 	ldw	r2,-16(fp)
 a801ae4:	1085883a 	add	r2,r2,r2
 a801ae8:	1085883a 	add	r2,r2,r2
 a801aec:	1007883a 	mov	r3,r2
 a801af0:	00820034 	movhi	r2,2048
 a801af4:	1885883a 	add	r2,r3,r2
 a801af8:	e0fffd03 	ldbu	r3,-12(fp)
 a801afc:	10c00035 	stwio	r3,0(r2)
    alt_u8 seg_mask;
    int i;
    
    //
    seg_mask = 0;
    for(i=0;i<SEG7_NUM;i++){
 a801b00:	e0bffc17 	ldw	r2,-16(fp)
 a801b04:	10800044 	addi	r2,r2,1
 a801b08:	e0bffc15 	stw	r2,-16(fp)
 a801b0c:	e0bffc17 	ldw	r2,-16(fp)
 a801b10:	10800210 	cmplti	r2,r2,8
 a801b14:	103fdb1e 	bne	r2,zero,a801a84 <SEG7_Hex+0x28>
        if (point_mask & mask)
            seg_mask |= 0x80;
        mask <<= 1;     
        SEG7_SET(i, seg_mask);
    }        
}
 a801b18:	e037883a 	mov	sp,fp
 a801b1c:	df000017 	ldw	fp,0(sp)
 a801b20:	dec00104 	addi	sp,sp,4
 a801b24:	f800283a 	ret

0a801b28 <SEG7_Decimal>:

void SEG7_Decimal(alt_u32 Data, alt_u8 point_mask){
 a801b28:	defffa04 	addi	sp,sp,-24
 a801b2c:	dfc00515 	stw	ra,20(sp)
 a801b30:	df000415 	stw	fp,16(sp)
 a801b34:	df000404 	addi	fp,sp,16
 a801b38:	e13ffe15 	stw	r4,-8(fp)
 a801b3c:	e17fff05 	stb	r5,-4(fp)
    alt_u8 mask = 0x01;
 a801b40:	00800044 	movi	r2,1
 a801b44:	e0bffd45 	stb	r2,-11(fp)
    alt_u8 seg_mask;
    int i;
    
    //
    seg_mask = 0;
 a801b48:	e03ffd05 	stb	zero,-12(fp)
    for(i=0;i<SEG7_NUM;i++){
 a801b4c:	e03ffc15 	stw	zero,-16(fp)
 a801b50:	00002506 	br	a801be8 <SEG7_Decimal+0xc0>
        seg_mask = szMap[Data%10];
 a801b54:	e13ffe17 	ldw	r4,-8(fp)
 a801b58:	01400284 	movi	r5,10
 a801b5c:	a802b200 	call	a802b20 <__umodsi3>
 a801b60:	1007883a 	mov	r3,r2
 a801b64:	0082a074 	movhi	r2,2689
 a801b68:	10906904 	addi	r2,r2,16804
 a801b6c:	10c5883a 	add	r2,r2,r3
 a801b70:	10800003 	ldbu	r2,0(r2)
 a801b74:	e0bffd05 	stb	r2,-12(fp)
        Data /= 10;
 a801b78:	e13ffe17 	ldw	r4,-8(fp)
 a801b7c:	01400284 	movi	r5,10
 a801b80:	a802b180 	call	a802b18 <__udivsi3>
 a801b84:	e0bffe15 	stw	r2,-8(fp)
        if (point_mask & mask)
 a801b88:	e0ffff03 	ldbu	r3,-4(fp)
 a801b8c:	e0bffd43 	ldbu	r2,-11(fp)
 a801b90:	1884703a 	and	r2,r3,r2
 a801b94:	10803fcc 	andi	r2,r2,255
 a801b98:	1005003a 	cmpeq	r2,r2,zero
 a801b9c:	1000041e 	bne	r2,zero,a801bb0 <SEG7_Decimal+0x88>
            seg_mask |= 0x80;
 a801ba0:	e0bffd03 	ldbu	r2,-12(fp)
 a801ba4:	00ffe004 	movi	r3,-128
 a801ba8:	10c4b03a 	or	r2,r2,r3
 a801bac:	e0bffd05 	stb	r2,-12(fp)
        mask <<= 1;   
 a801bb0:	e0bffd43 	ldbu	r2,-11(fp)
 a801bb4:	1085883a 	add	r2,r2,r2
 a801bb8:	e0bffd45 	stb	r2,-11(fp)
        SEG7_SET(i, seg_mask);
 a801bbc:	e0bffc17 	ldw	r2,-16(fp)
 a801bc0:	1085883a 	add	r2,r2,r2
 a801bc4:	1085883a 	add	r2,r2,r2
 a801bc8:	1007883a 	mov	r3,r2
 a801bcc:	00820034 	movhi	r2,2048
 a801bd0:	1885883a 	add	r2,r3,r2
 a801bd4:	e0fffd03 	ldbu	r3,-12(fp)
 a801bd8:	10c00035 	stwio	r3,0(r2)
    alt_u8 seg_mask;
    int i;
    
    //
    seg_mask = 0;
    for(i=0;i<SEG7_NUM;i++){
 a801bdc:	e0bffc17 	ldw	r2,-16(fp)
 a801be0:	10800044 	addi	r2,r2,1
 a801be4:	e0bffc15 	stw	r2,-16(fp)
 a801be8:	e0bffc17 	ldw	r2,-16(fp)
 a801bec:	10800210 	cmplti	r2,r2,8
 a801bf0:	103fd81e 	bne	r2,zero,a801b54 <SEG7_Decimal+0x2c>
            seg_mask |= 0x80;
        mask <<= 1;   
        SEG7_SET(i, seg_mask);
    }        
  
} 
 a801bf4:	e037883a 	mov	sp,fp
 a801bf8:	dfc00117 	ldw	ra,4(sp)
 a801bfc:	df000017 	ldw	fp,0(sp)
 a801c00:	dec00204 	addi	sp,sp,8
 a801c04:	f800283a 	ret

0a801c08 <debug_output>:
    if (!UART_IsOpened())
        UART_Open();
    UART_WriteString(pMessage);  // UART debug
}
#else
void debug_output(char *pMessage){
 a801c08:	defffd04 	addi	sp,sp,-12
 a801c0c:	dfc00215 	stw	ra,8(sp)
 a801c10:	df000115 	stw	fp,4(sp)
 a801c14:	df000104 	addi	fp,sp,4
 a801c18:	e13fff15 	stw	r4,-4(fp)
    printf(pMessage);
 a801c1c:	e13fff17 	ldw	r4,-4(fp)
 a801c20:	a8047a00 	call	a8047a0 <printf>
}
 a801c24:	e037883a 	mov	sp,fp
 a801c28:	dfc00117 	ldw	ra,4(sp)
 a801c2c:	df000017 	ldw	fp,0(sp)
 a801c30:	dec00204 	addi	sp,sp,8
 a801c34:	f800283a 	ret

0a801c38 <myprintf>:

#endif


int myprintf(char *format, ...){
 a801c38:	deff7804 	addi	sp,sp,-544
 a801c3c:	dfc08415 	stw	ra,528(sp)
 a801c40:	df008315 	stw	fp,524(sp)
 a801c44:	df008304 	addi	fp,sp,524
 a801c48:	e1400215 	stw	r5,8(fp)
 a801c4c:	e1800315 	stw	r6,12(fp)
 a801c50:	e1c00415 	stw	r7,16(fp)
 a801c54:	e13fff15 	stw	r4,-4(fp)
    int rc;
    char szText[512];
    
    va_list paramList;
    va_start(paramList, format);
 a801c58:	e0800204 	addi	r2,fp,8
 a801c5c:	e0bffe15 	stw	r2,-8(fp)
    rc = vsnprintf(szText, 512, format, paramList);
 a801c60:	e1fffe17 	ldw	r7,-8(fp)
 a801c64:	e13f7e04 	addi	r4,fp,-520
 a801c68:	01408004 	movi	r5,512
 a801c6c:	e1bfff17 	ldw	r6,-4(fp)
 a801c70:	a806d8c0 	call	a806d8c <vsnprintf>
 a801c74:	e0bf7d15 	stw	r2,-524(fp)
    va_end(paramList);
    
    debug_output(szText);
 a801c78:	e13f7e04 	addi	r4,fp,-520
 a801c7c:	a801c080 	call	a801c08 <debug_output>

    return rc;    
 a801c80:	e0bf7d17 	ldw	r2,-524(fp)
}
 a801c84:	e037883a 	mov	sp,fp
 a801c88:	dfc00117 	ldw	ra,4(sp)
 a801c8c:	df000017 	ldw	fp,0(sp)
 a801c90:	dec00504 	addi	sp,sp,20
 a801c94:	f800283a 	ret

0a801c98 <myprintf_hex_array>:


int myprintf_hex_array(unsigned char *pHex, int len){
 a801c98:	defff704 	addi	sp,sp,-36
 a801c9c:	dfc00815 	stw	ra,32(sp)
 a801ca0:	df000715 	stw	fp,28(sp)
 a801ca4:	df000704 	addi	fp,sp,28
 a801ca8:	e13ffe15 	stw	r4,-8(fp)
 a801cac:	e17fff15 	stw	r5,-4(fp)
    int i;
    unsigned char szText[16];
    for(i=0;i<len;i++){
 a801cb0:	e03ff915 	stw	zero,-28(fp)
 a801cb4:	00000f06 	br	a801cf4 <myprintf_hex_array+0x5c>
        sprintf(szText, "[%02X]", *(pHex+i));
 a801cb8:	e13ffa04 	addi	r4,fp,-24
 a801cbc:	e0bff917 	ldw	r2,-28(fp)
 a801cc0:	1007883a 	mov	r3,r2
 a801cc4:	e0bffe17 	ldw	r2,-8(fp)
 a801cc8:	1885883a 	add	r2,r3,r2
 a801ccc:	10800003 	ldbu	r2,0(r2)
 a801cd0:	11803fcc 	andi	r6,r2,255
 a801cd4:	0142a074 	movhi	r5,2689
 a801cd8:	294c5204 	addi	r5,r5,12616
 a801cdc:	a804b1c0 	call	a804b1c <sprintf>
        DEBUG((szText));
 a801ce0:	e13ffa04 	addi	r4,fp,-24
 a801ce4:	a801c380 	call	a801c38 <myprintf>


int myprintf_hex_array(unsigned char *pHex, int len){
    int i;
    unsigned char szText[16];
    for(i=0;i<len;i++){
 a801ce8:	e0bff917 	ldw	r2,-28(fp)
 a801cec:	10800044 	addi	r2,r2,1
 a801cf0:	e0bff915 	stw	r2,-28(fp)
 a801cf4:	e0fff917 	ldw	r3,-28(fp)
 a801cf8:	e0bfff17 	ldw	r2,-4(fp)
 a801cfc:	18bfee16 	blt	r3,r2,a801cb8 <myprintf_hex_array+0x20>
        sprintf(szText, "[%02X]", *(pHex+i));
        DEBUG((szText));
    }
    return len;
 a801d00:	e0bfff17 	ldw	r2,-4(fp)
}
 a801d04:	e037883a 	mov	sp,fp
 a801d08:	dfc00117 	ldw	ra,4(sp)
 a801d0c:	df000017 	ldw	fp,0(sp)
 a801d10:	dec00204 	addi	sp,sp,8
 a801d14:	f800283a 	ret

0a801d18 <myprintf_dword_array>:

int  myprintf_dword_array(unsigned int *pArray, int nElementCount){
 a801d18:	defff704 	addi	sp,sp,-36
 a801d1c:	dfc00815 	stw	ra,32(sp)
 a801d20:	df000715 	stw	fp,28(sp)
 a801d24:	df000704 	addi	fp,sp,28
 a801d28:	e13ffe15 	stw	r4,-8(fp)
 a801d2c:	e17fff15 	stw	r5,-4(fp)
    int i;
    char szText[16];
    for(i=0;i<nElementCount;i++){
 a801d30:	e03ff915 	stw	zero,-28(fp)
 a801d34:	00001006 	br	a801d78 <myprintf_dword_array+0x60>
        sprintf(szText, "[%08X]", *(pArray+i));
 a801d38:	e0bff917 	ldw	r2,-28(fp)
 a801d3c:	1085883a 	add	r2,r2,r2
 a801d40:	1085883a 	add	r2,r2,r2
 a801d44:	1007883a 	mov	r3,r2
 a801d48:	e0bffe17 	ldw	r2,-8(fp)
 a801d4c:	1885883a 	add	r2,r3,r2
 a801d50:	11800017 	ldw	r6,0(r2)
 a801d54:	e13ffa04 	addi	r4,fp,-24
 a801d58:	0142a074 	movhi	r5,2689
 a801d5c:	294c5404 	addi	r5,r5,12624
 a801d60:	a804b1c0 	call	a804b1c <sprintf>
        DEBUG((szText));
 a801d64:	e13ffa04 	addi	r4,fp,-24
 a801d68:	a801c380 	call	a801c38 <myprintf>
}

int  myprintf_dword_array(unsigned int *pArray, int nElementCount){
    int i;
    char szText[16];
    for(i=0;i<nElementCount;i++){
 a801d6c:	e0bff917 	ldw	r2,-28(fp)
 a801d70:	10800044 	addi	r2,r2,1
 a801d74:	e0bff915 	stw	r2,-28(fp)
 a801d78:	e0fff917 	ldw	r3,-28(fp)
 a801d7c:	e0bfff17 	ldw	r2,-4(fp)
 a801d80:	18bfed16 	blt	r3,r2,a801d38 <myprintf_dword_array+0x20>
        sprintf(szText, "[%08X]", *(pArray+i));
        DEBUG((szText));
    }
    return nElementCount;
 a801d84:	e0bfff17 	ldw	r2,-4(fp)
}
 a801d88:	e037883a 	mov	sp,fp
 a801d8c:	dfc00117 	ldw	ra,4(sp)
 a801d90:	df000017 	ldw	fp,0(sp)
 a801d94:	dec00204 	addi	sp,sp,8
 a801d98:	f800283a 	ret

0a801d9c <ui_is_mic_record>:
int record_sample_rate;

///////////////////////////////////////////////////////////////////////////////
//////////// Internal function implement(body) ////////////////////////////////
///////////////////////////////////////////////////////////////////////////////
bool ui_is_mic_record(void){
 a801d9c:	defffd04 	addi	sp,sp,-12
 a801da0:	df000215 	stw	fp,8(sp)
 a801da4:	df000204 	addi	fp,sp,8
    bool bMicRecord;
    bMicRecord = (IORD(SW_BASE, 0) & 0x01)?FALSE:TRUE;
 a801da8:	00820034 	movhi	r2,2048
 a801dac:	10802c04 	addi	r2,r2,176
 a801db0:	10800037 	ldwio	r2,0(r2)
 a801db4:	1080004c 	andi	r2,r2,1
 a801db8:	10803fcc 	andi	r2,r2,255
 a801dbc:	1005003a 	cmpeq	r2,r2,zero
 a801dc0:	1000021e 	bne	r2,zero,a801dcc <ui_is_mic_record+0x30>
 a801dc4:	e03fff15 	stw	zero,-4(fp)
 a801dc8:	00000206 	br	a801dd4 <ui_is_mic_record+0x38>
 a801dcc:	00800044 	movi	r2,1
 a801dd0:	e0bfff15 	stw	r2,-4(fp)
 a801dd4:	e0bfff17 	ldw	r2,-4(fp)
 a801dd8:	e0bffe15 	stw	r2,-8(fp)
    return bMicRecord;    
 a801ddc:	e0bffe17 	ldw	r2,-8(fp)
}
 a801de0:	e037883a 	mov	sp,fp
 a801de4:	df000017 	ldw	fp,0(sp)
 a801de8:	dec00104 	addi	sp,sp,4
 a801dec:	f800283a 	ret

0a801df0 <ui_is_mic_boost>:

bool ui_is_mic_boost(void){
 a801df0:	defffe04 	addi	sp,sp,-8
 a801df4:	df000115 	stw	fp,4(sp)
 a801df8:	df000104 	addi	fp,sp,4
    bool bMicBoost;
    bMicBoost = (IORD(SW_BASE, 0) & (0x01 << 1))?FALSE:TRUE;
 a801dfc:	00820034 	movhi	r2,2048
 a801e00:	10802c04 	addi	r2,r2,176
 a801e04:	10800037 	ldwio	r2,0(r2)
 a801e08:	1080008c 	andi	r2,r2,2
 a801e0c:	1005003a 	cmpeq	r2,r2,zero
 a801e10:	e0bfff15 	stw	r2,-4(fp)
    return bMicBoost;    
 a801e14:	e0bfff17 	ldw	r2,-4(fp)
}
 a801e18:	e037883a 	mov	sp,fp
 a801e1c:	df000017 	ldw	fp,0(sp)
 a801e20:	dec00104 	addi	sp,sp,4
 a801e24:	f800283a 	ret

0a801e28 <ui_is_dac_zero_cross>:

bool ui_is_dac_zero_cross(void){
 a801e28:	defffe04 	addi	sp,sp,-8
 a801e2c:	df000115 	stw	fp,4(sp)
 a801e30:	df000104 	addi	fp,sp,4
    bool bZeroCross;
    bZeroCross = (IORD(SW_BASE, 0) & (0x01 << 2))?TRUE:FALSE;
 a801e34:	00820034 	movhi	r2,2048
 a801e38:	10802c04 	addi	r2,r2,176
 a801e3c:	10800037 	ldwio	r2,0(r2)
 a801e40:	1080010c 	andi	r2,r2,4
 a801e44:	1004c03a 	cmpne	r2,r2,zero
 a801e48:	e0bfff15 	stw	r2,-4(fp)
    return bZeroCross;      
 a801e4c:	e0bfff17 	ldw	r2,-4(fp)
}
 a801e50:	e037883a 	mov	sp,fp
 a801e54:	df000017 	ldw	fp,0(sp)
 a801e58:	dec00104 	addi	sp,sp,4
 a801e5c:	f800283a 	ret

0a801e60 <ui_get_sample_rate>:

int ui_get_sample_rate(void){
 a801e60:	defffd04 	addi	sp,sp,-12
 a801e64:	df000215 	stw	fp,8(sp)
 a801e68:	df000204 	addi	fp,sp,8
    int sample_rate = 96000;
 a801e6c:	00800074 	movhi	r2,1
 a801e70:	109dc004 	addi	r2,r2,30464
 a801e74:	e0bfff15 	stw	r2,-4(fp)
    alt_u32 mask;
    mask = IORD(SW_BASE, 0);
 a801e78:	00820034 	movhi	r2,2048
 a801e7c:	10802c04 	addi	r2,r2,176
 a801e80:	10800037 	ldwio	r2,0(r2)
 a801e84:	e0bffe15 	stw	r2,-8(fp)
    mask = (mask >> 3) & 0x07;
 a801e88:	e0bffe17 	ldw	r2,-8(fp)
 a801e8c:	1004d0fa 	srli	r2,r2,3
 a801e90:	108001cc 	andi	r2,r2,7
 a801e94:	e0bffe15 	stw	r2,-8(fp)
    if (mask == 1)
 a801e98:	e0bffe17 	ldw	r2,-8(fp)
 a801e9c:	10800058 	cmpnei	r2,r2,1
 a801ea0:	1000031e 	bne	r2,zero,a801eb0 <ui_get_sample_rate+0x50>
        sample_rate = 48000;
 a801ea4:	00aee014 	movui	r2,48000
 a801ea8:	e0bfff15 	stw	r2,-4(fp)
 a801eac:	00001106 	br	a801ef4 <ui_get_sample_rate+0x94>
    else if (mask == 2)
 a801eb0:	e0bffe17 	ldw	r2,-8(fp)
 a801eb4:	10800098 	cmpnei	r2,r2,2
 a801eb8:	1000031e 	bne	r2,zero,a801ec8 <ui_get_sample_rate+0x68>
        sample_rate = 44100;
 a801ebc:	00ab1114 	movui	r2,44100
 a801ec0:	e0bfff15 	stw	r2,-4(fp)
 a801ec4:	00000b06 	br	a801ef4 <ui_get_sample_rate+0x94>
    else if (mask == 3)
 a801ec8:	e0bffe17 	ldw	r2,-8(fp)
 a801ecc:	108000d8 	cmpnei	r2,r2,3
 a801ed0:	1000031e 	bne	r2,zero,a801ee0 <ui_get_sample_rate+0x80>
        sample_rate = 32000;
 a801ed4:	009f4004 	movi	r2,32000
 a801ed8:	e0bfff15 	stw	r2,-4(fp)
 a801edc:	00000506 	br	a801ef4 <ui_get_sample_rate+0x94>
    else if (mask == 4)
 a801ee0:	e0bffe17 	ldw	r2,-8(fp)
 a801ee4:	10800118 	cmpnei	r2,r2,4
 a801ee8:	1000021e 	bne	r2,zero,a801ef4 <ui_get_sample_rate+0x94>
        sample_rate = 8000;
 a801eec:	0087d004 	movi	r2,8000
 a801ef0:	e0bfff15 	stw	r2,-4(fp)
    return sample_rate;      
 a801ef4:	e0bfff17 	ldw	r2,-4(fp)
} 
 a801ef8:	e037883a 	mov	sp,fp
 a801efc:	df000017 	ldw	fp,0(sp)
 a801f00:	dec00104 	addi	sp,sp,4
 a801f04:	f800283a 	ret

0a801f08 <button_monitor_isr>:

void button_monitor_isr(void* context, alt_u32 id){
 a801f08:	defffc04 	addi	sp,sp,-16
 a801f0c:	df000315 	stw	fp,12(sp)
 a801f10:	df000304 	addi	fp,sp,12
 a801f14:	e13ffe15 	stw	r4,-8(fp)
 a801f18:	e17fff15 	stw	r5,-4(fp)
    volatile alt_u32* pPressedMask = (volatile alt_u32*)context;
 a801f1c:	e0bffe17 	ldw	r2,-8(fp)
 a801f20:	e0bffd15 	stw	r2,-12(fp)
    *pPressedMask |= IORD_ALTERA_AVALON_PIO_EDGE_CAP(KEY_BASE) & 0x0F;  // 4-button 
 a801f24:	e0bffd17 	ldw	r2,-12(fp)
 a801f28:	10c00017 	ldw	r3,0(r2)
 a801f2c:	00820034 	movhi	r2,2048
 a801f30:	10800b04 	addi	r2,r2,44
 a801f34:	10800037 	ldwio	r2,0(r2)
 a801f38:	108003cc 	andi	r2,r2,15
 a801f3c:	1886b03a 	or	r3,r3,r2
 a801f40:	e0bffd17 	ldw	r2,-12(fp)
 a801f44:	10c00015 	stw	r3,0(r2)
    
    IOWR_ALTERA_AVALON_PIO_EDGE_CAP(KEY_BASE,0); 
 a801f48:	00820034 	movhi	r2,2048
 a801f4c:	10800b04 	addi	r2,r2,44
 a801f50:	10000035 	stwio	zero,0(r2)
}
 a801f54:	e037883a 	mov	sp,fp
 a801f58:	df000017 	ldw	fp,0(sp)
 a801f5c:	dec00104 	addi	sp,sp,4
 a801f60:	f800283a 	ret

0a801f64 <button_monitor_start>:

bool button_monitor_start(volatile alt_u32 *pPressedMask){
 a801f64:	defffc04 	addi	sp,sp,-16
 a801f68:	dfc00315 	stw	ra,12(sp)
 a801f6c:	df000215 	stw	fp,8(sp)
 a801f70:	df000204 	addi	fp,sp,8
 a801f74:	e13fff15 	stw	r4,-4(fp)
    bool bSuccess = TRUE;
 a801f78:	00800044 	movi	r2,1
 a801f7c:	e0bffe15 	stw	r2,-8(fp)
    // enable interrupt
    IOWR_ALTERA_AVALON_PIO_IRQ_MASK(KEY_BASE, 0x0F); // 4-button
 a801f80:	00c20034 	movhi	r3,2048
 a801f84:	18c00a04 	addi	r3,r3,40
 a801f88:	008003c4 	movi	r2,15
 a801f8c:	18800035 	stwio	r2,0(r3)
    
    // Reset the edge catpure register
    IOWR_ALTERA_AVALON_PIO_EDGE_CAP(KEY_BASE,0); 
 a801f90:	00820034 	movhi	r2,2048
 a801f94:	10800b04 	addi	r2,r2,44
 a801f98:	10000035 	stwio	zero,0(r2)
    
    // register IRQ
    if (bSuccess && (alt_irq_register(KEY_IRQ, (void *)pPressedMask, button_monitor_isr) != 0)){
 a801f9c:	e0bffe17 	ldw	r2,-8(fp)
 a801fa0:	1005003a 	cmpeq	r2,r2,zero
 a801fa4:	10000b1e 	bne	r2,zero,a801fd4 <button_monitor_start+0x70>
 a801fa8:	01000044 	movi	r4,1
 a801fac:	e17fff17 	ldw	r5,-4(fp)
 a801fb0:	0182a034 	movhi	r6,2688
 a801fb4:	3187c204 	addi	r6,r6,7944
 a801fb8:	a80cee80 	call	a80cee8 <alt_irq_register>
 a801fbc:	1005003a 	cmpeq	r2,r2,zero
 a801fc0:	1000041e 	bne	r2,zero,a801fd4 <button_monitor_start+0x70>
        printf("[SW-MONITOR]register button IRQ fail\r\n");
 a801fc4:	0102a074 	movhi	r4,2689
 a801fc8:	210c5604 	addi	r4,r4,12632
 a801fcc:	a8048b80 	call	a8048b8 <puts>
        bSuccess = FALSE;
 a801fd0:	e03ffe15 	stw	zero,-8(fp)
    }
    
    return bSuccess;        
 a801fd4:	e0bffe17 	ldw	r2,-8(fp)
}
 a801fd8:	e037883a 	mov	sp,fp
 a801fdc:	dfc00117 	ldw	ra,4(sp)
 a801fe0:	df000017 	ldw	fp,0(sp)
 a801fe4:	dec00204 	addi	sp,sp,8
 a801fe8:	f800283a 	ret

0a801fec <init_audio>:




bool init_audio(AUDIO_FUNC audio_func){
 a801fec:	defffb04 	addi	sp,sp,-20
 a801ff0:	dfc00415 	stw	ra,16(sp)
 a801ff4:	df000315 	stw	fp,12(sp)
 a801ff8:	df000304 	addi	fp,sp,12
 a801ffc:	e13fff15 	stw	r4,-4(fp)
    bool bSuccess = TRUE;
 a802000:	00800044 	movi	r2,1
 a802004:	e0bffe15 	stw	r2,-8(fp)
    AUDIO_InterfaceActive(FALSE);
 a802008:	0009883a 	mov	r4,zero
 a80200c:	a8003c40 	call	a8003c4 <AUDIO_InterfaceActive>
    //
    if (audio_func == MIC_RECORD){
 a802010:	e0bfff17 	ldw	r2,-4(fp)
 a802014:	1004c03a 	cmpne	r2,r2,zero
 a802018:	10000f1e 	bne	r2,zero,a802058 <init_audio+0x6c>
        bool bMicBoost;
        bMicBoost = ui_is_mic_boost();
 a80201c:	a801df00 	call	a801df0 <ui_is_mic_boost>
 a802020:	e0bffd15 	stw	r2,-12(fp)
        AUDIO_SetInputSource(SOURCE_MIC);
 a802024:	0009883a 	mov	r4,zero
 a802028:	a8008840 	call	a800884 <AUDIO_SetInputSource>
        AUDIO_DacEnableSoftMute(TRUE);
 a80202c:	01000044 	movi	r4,1
 a802030:	a80068c0 	call	a80068c <AUDIO_DacEnableSoftMute>
        AUDIO_AdcEnableHighPassFilter(FALSE);
 a802034:	0009883a 	mov	r4,zero
 a802038:	a80047c0 	call	a80047c <AUDIO_AdcEnableHighPassFilter>
        AUDIO_MicBoost(bMicBoost);   
 a80203c:	e13ffd17 	ldw	r4,-12(fp)
 a802040:	a8004040 	call	a800404 <AUDIO_MicBoost>
        AUDIO_MicMute(FALSE);
 a802044:	0009883a 	mov	r4,zero
 a802048:	a8007180 	call	a800718 <AUDIO_MicMute>
        AUDIO_LineInMute(TRUE);
 a80204c:	01000044 	movi	r4,1
 a802050:	a8007a40 	call	a8007a4 <AUDIO_LineInMute>
 a802054:	00002606 	br	a8020f0 <init_audio+0x104>
    }else if (audio_func == LINEIN_RECORD){
 a802058:	e0bfff17 	ldw	r2,-4(fp)
 a80205c:	10800058 	cmpnei	r2,r2,1
 a802060:	10000e1e 	bne	r2,zero,a80209c <init_audio+0xb0>
        AUDIO_SetInputSource(SOURCE_LINEIN);
 a802064:	01000044 	movi	r4,1
 a802068:	a8008840 	call	a800884 <AUDIO_SetInputSource>
        AUDIO_DacEnableSoftMute(TRUE);
 a80206c:	01000044 	movi	r4,1
 a802070:	a80068c0 	call	a80068c <AUDIO_DacEnableSoftMute>
        AUDIO_AdcEnableHighPassFilter(FALSE);
 a802074:	0009883a 	mov	r4,zero
 a802078:	a80047c0 	call	a80047c <AUDIO_AdcEnableHighPassFilter>
        AUDIO_MicMute(TRUE);
 a80207c:	01000044 	movi	r4,1
 a802080:	a8007180 	call	a800718 <AUDIO_MicMute>
        AUDIO_LineInMute(FALSE);
 a802084:	0009883a 	mov	r4,zero
 a802088:	a8007a40 	call	a8007a4 <AUDIO_LineInMute>
        AUDIO_SetLineInVol(0x17, 0x17);  // max 0x1F, min:0; 0x17: 0dB (assume max input is 2.0v rms)
 a80208c:	010005c4 	movi	r4,23
 a802090:	014005c4 	movi	r5,23
 a802094:	a8009fc0 	call	a8009fc <AUDIO_SetLineInVol>
 a802098:	00001506 	br	a8020f0 <init_audio+0x104>
    }else if (audio_func == LINEOUT_PLAY){
 a80209c:	e0bfff17 	ldw	r2,-4(fp)
 a8020a0:	10800098 	cmpnei	r2,r2,2
 a8020a4:	1000121e 	bne	r2,zero,a8020f0 <init_audio+0x104>
        AUDIO_DacEnableSoftMute(TRUE);
 a8020a8:	01000044 	movi	r4,1
 a8020ac:	a80068c0 	call	a80068c <AUDIO_DacEnableSoftMute>
        AUDIO_MicBoost(FALSE);   
 a8020b0:	0009883a 	mov	r4,zero
 a8020b4:	a8004040 	call	a800404 <AUDIO_MicBoost>
        AUDIO_MicMute(TRUE);
 a8020b8:	01000044 	movi	r4,1
 a8020bc:	a8007180 	call	a800718 <AUDIO_MicMute>
        AUDIO_LineInMute(FALSE);
 a8020c0:	0009883a 	mov	r4,zero
 a8020c4:	a8007a40 	call	a8007a4 <AUDIO_LineInMute>
        AUDIO_DacEnableSoftMute(FALSE);
 a8020c8:	0009883a 	mov	r4,zero
 a8020cc:	a80068c0 	call	a80068c <AUDIO_DacEnableSoftMute>
        //AUDIO_DacDeemphasisControl(DEEMPHASIS_48K);
        AUDIO_DacEnableZeroCross(ui_is_dac_zero_cross());
 a8020d0:	a801e280 	call	a801e28 <ui_is_dac_zero_cross>
 a8020d4:	1009883a 	mov	r4,r2
 a8020d8:	a8005ac0 	call	a8005ac <AUDIO_DacEnableZeroCross>
        AUDIO_SetLineOutVol(LINEOUT_DEFUALT_VOL, LINEOUT_DEFUALT_VOL); // max 7F, min: 30, 0x79: 0 db
 a8020dc:	01001e44 	movi	r4,121
 a8020e0:	01401e44 	movi	r5,121
 a8020e4:	a800b180 	call	a800b18 <AUDIO_SetLineOutVol>
        AUDIO_DacEnableSoftMute(FALSE);
 a8020e8:	0009883a 	mov	r4,zero
 a8020ec:	a80068c0 	call	a80068c <AUDIO_DacEnableSoftMute>
    }
    
    if (record_sample_rate == 8000)
 a8020f0:	d0a73417 	ldw	r2,-25392(gp)
 a8020f4:	1087d018 	cmpnei	r2,r2,8000
 a8020f8:	1000031e 	bne	r2,zero,a802108 <init_audio+0x11c>
        AUDIO_SetSampleRate(RATE_ADC8K_DAC8K);
 a8020fc:	010000c4 	movi	r4,3
 a802100:	a8009100 	call	a800910 <AUDIO_SetSampleRate>
 a802104:	00001406 	br	a802158 <init_audio+0x16c>
    else if (record_sample_rate == 32000)
 a802108:	d0a73417 	ldw	r2,-25392(gp)
 a80210c:	109f4018 	cmpnei	r2,r2,32000
 a802110:	1000031e 	bne	r2,zero,a802120 <init_audio+0x134>
        AUDIO_SetSampleRate(RATE_ADC32K_DAC32K);
 a802114:	01000104 	movi	r4,4
 a802118:	a8009100 	call	a800910 <AUDIO_SetSampleRate>
 a80211c:	00000e06 	br	a802158 <init_audio+0x16c>
    else if (record_sample_rate == 48000)
 a802120:	d0e73417 	ldw	r3,-25392(gp)
 a802124:	00aee014 	movui	r2,48000
 a802128:	1880031e 	bne	r3,r2,a802138 <init_audio+0x14c>
        AUDIO_SetSampleRate(RATE_ADC48K_DAC48K);
 a80212c:	0009883a 	mov	r4,zero
 a802130:	a8009100 	call	a800910 <AUDIO_SetSampleRate>
 a802134:	00000806 	br	a802158 <init_audio+0x16c>
    else if (record_sample_rate == 44100)
 a802138:	d0e73417 	ldw	r3,-25392(gp)
 a80213c:	00ab1114 	movui	r2,44100
 a802140:	1880031e 	bne	r3,r2,a802150 <init_audio+0x164>
        AUDIO_SetSampleRate(RATE_ADC44K1_DAC44K1);
 a802144:	01000184 	movi	r4,6
 a802148:	a8009100 	call	a800910 <AUDIO_SetSampleRate>
 a80214c:	00000206 	br	a802158 <init_audio+0x16c>
    else    
        AUDIO_SetSampleRate(RATE_ADC96K_DAC96K);
 a802150:	01000144 	movi	r4,5
 a802154:	a8009100 	call	a800910 <AUDIO_SetSampleRate>
    //
    AUDIO_InterfaceActive(TRUE);
 a802158:	01000044 	movi	r4,1
 a80215c:	a8003c40 	call	a8003c4 <AUDIO_InterfaceActive>
    
    return bSuccess;             
 a802160:	e0bffe17 	ldw	r2,-8(fp)
}
 a802164:	e037883a 	mov	sp,fp
 a802168:	dfc00117 	ldw	ra,4(sp)
 a80216c:	df000017 	ldw	fp,0(sp)
 a802170:	dec00204 	addi	sp,sp,8
 a802174:	f800283a 	ret

0a802178 <display_time_elapsed>:


void display_time_elapsed(alt_u32 sample_num){
 a802178:	defffc04 	addi	sp,sp,-16
 a80217c:	dfc00315 	stw	ra,12(sp)
 a802180:	df000215 	stw	fp,8(sp)
 a802184:	df000204 	addi	fp,sp,8
 a802188:	e13fff15 	stw	r4,-4(fp)
    // assume sample rate is 48K
    alt_u32 time;
    time = sample_num * 100 / record_sample_rate;
 a80218c:	e0bfff17 	ldw	r2,-4(fp)
 a802190:	11001924 	muli	r4,r2,100
 a802194:	d0a73417 	ldw	r2,-25392(gp)
 a802198:	100b883a 	mov	r5,r2
 a80219c:	a802b180 	call	a802b18 <__udivsi3>
 a8021a0:	e0bffe15 	stw	r2,-8(fp)
    SEG7_Decimal(time, 0x04);
 a8021a4:	e13ffe17 	ldw	r4,-8(fp)
 a8021a8:	01400104 	movi	r5,4
 a8021ac:	a801b280 	call	a801b28 <SEG7_Decimal>
}
 a8021b0:	e037883a 	mov	sp,fp
 a8021b4:	dfc00117 	ldw	ra,4(sp)
 a8021b8:	df000017 	ldw	fp,0(sp)
 a8021bc:	dec00204 	addi	sp,sp,8
 a8021c0:	f800283a 	ret

0a8021c4 <show_power>:

void show_power(short sample){
 a8021c4:	defffb04 	addi	sp,sp,-20
 a8021c8:	dfc00415 	stw	ra,16(sp)
 a8021cc:	df000315 	stw	fp,12(sp)
 a8021d0:	df000304 	addi	fp,sp,12
 a8021d4:	e13ffe0d 	sth	r4,-8(fp)
    static alt_u32 sum = 0;
    static alt_u16   cnt = 0;
    alt_u16 power = 0;
 a8021d8:	e03ffd0d 	sth	zero,-12(fp)
    sum += (sample >= 0)?sample:-sample;
 a8021dc:	e0bffe0f 	ldh	r2,-8(fp)
 a8021e0:	e0bfff15 	stw	r2,-4(fp)
 a8021e4:	e0ffff17 	ldw	r3,-4(fp)
 a8021e8:	1804403a 	cmpge	r2,r3,zero
 a8021ec:	1000031e 	bne	r2,zero,a8021fc <show_power+0x38>
 a8021f0:	e0bfff17 	ldw	r2,-4(fp)
 a8021f4:	0085c83a 	sub	r2,zero,r2
 a8021f8:	e0bfff15 	stw	r2,-4(fp)
 a8021fc:	e0ffff17 	ldw	r3,-4(fp)
 a802200:	d0a73317 	ldw	r2,-25396(gp)
 a802204:	1885883a 	add	r2,r3,r2
 a802208:	d0a73315 	stw	r2,-25396(gp)
    cnt++;
 a80220c:	d0a7320b 	ldhu	r2,-25400(gp)
 a802210:	10800044 	addi	r2,r2,1
 a802214:	d0a7320d 	sth	r2,-25400(gp)
    if (cnt == 32){
 a802218:	d0a7320b 	ldhu	r2,-25400(gp)
 a80221c:	10bfffcc 	andi	r2,r2,65535
 a802220:	10800818 	cmpnei	r2,r2,32
 a802224:	1000081e 	bne	r2,zero,a802248 <show_power+0x84>
        power = sum >> 14;
 a802228:	d0a73317 	ldw	r2,-25396(gp)
 a80222c:	1004d3ba 	srli	r2,r2,14
 a802230:	e0bffd0d 	sth	r2,-12(fp)
        LED_LightCount(power); 
 a802234:	e0bffd0b 	ldhu	r2,-12(fp)
 a802238:	11003fcc 	andi	r4,r2,255
 a80223c:	a8018c40 	call	a8018c4 <LED_LightCount>
        sum = 0;
 a802240:	d0273315 	stw	zero,-25396(gp)
        cnt = 0;
 a802244:	d027320d 	sth	zero,-25400(gp)
    }
}
 a802248:	e037883a 	mov	sp,fp
 a80224c:	dfc00117 	ldw	ra,4(sp)
 a802250:	df000017 	ldw	fp,0(sp)
 a802254:	dec00204 	addi	sp,sp,8
 a802258:	f800283a 	ret

0a80225c <init>:


bool init(void){
 a80225c:	defffd04 	addi	sp,sp,-12
 a802260:	dfc00215 	stw	ra,8(sp)
 a802264:	df000115 	stw	fp,4(sp)
 a802268:	df000104 	addi	fp,sp,4
    bool bSuccess = TRUE;
 a80226c:	00800044 	movi	r2,1
 a802270:	e0bfff15 	stw	r2,-4(fp)
    
    SEG7_Clear();
 a802274:	a8019300 	call	a801930 <SEG7_Clear>
    LCD_Open();    
 a802278:	a8016b00 	call	a8016b0 <LCD_Open>
    LCD_TextOut("Welcome\nAudio Demo\n");
 a80227c:	0102a074 	movhi	r4,2689
 a802280:	210c6004 	addi	r4,r4,12672
 a802284:	a80170c0 	call	a80170c <LCD_TextOut>

    SEG7_Decimal(0x00000000, 0x00);
 a802288:	0009883a 	mov	r4,zero
 a80228c:	000b883a 	mov	r5,zero
 a802290:	a801b280 	call	a801b28 <SEG7_Decimal>

    // prepare    
    if (!AUDIO_Init()){
 a802294:	a8002000 	call	a800200 <AUDIO_Init>
 a802298:	1004c03a 	cmpne	r2,r2,zero
 a80229c:	1000071e 	bne	r2,zero,a8022bc <init+0x60>
        LCD_TextOut("Audio Error\n\n");
 a8022a0:	0102a074 	movhi	r4,2689
 a8022a4:	210c6504 	addi	r4,r4,12692
 a8022a8:	a80170c0 	call	a80170c <LCD_TextOut>
        printf("Audio Init Error\r\n");
 a8022ac:	0102a074 	movhi	r4,2689
 a8022b0:	210c6904 	addi	r4,r4,12708
 a8022b4:	a8048b80 	call	a8048b8 <puts>
        bSuccess = FALSE;
 a8022b8:	e03fff15 	stw	zero,-4(fp)
    }
    
        
    return bSuccess;
 a8022bc:	e0bfff17 	ldw	r2,-4(fp)
}
 a8022c0:	e037883a 	mov	sp,fp
 a8022c4:	dfc00117 	ldw	ra,4(sp)
 a8022c8:	df000017 	ldw	fp,0(sp)
 a8022cc:	dec00204 	addi	sp,sp,8
 a8022d0:	f800283a 	ret

0a8022d4 <dump_record_data>:

void dump_record_data(alt_u32 *pData, alt_u32 len){
 a8022d4:	defff804 	addi	sp,sp,-32
 a8022d8:	dfc00715 	stw	ra,28(sp)
 a8022dc:	df000615 	stw	fp,24(sp)
 a8022e0:	df000604 	addi	fp,sp,24
 a8022e4:	e13ffe15 	stw	r4,-8(fp)
 a8022e8:	e17fff15 	stw	r5,-4(fp)
    short sample_l, sample_r, sample_max = 0;
 a8022ec:	e03ffc0d 	sth	zero,-16(fp)
    alt_u32 data;
    int i;
    //return ;
    for(i=0;i<len;i++){
 a8022f0:	e03ffa15 	stw	zero,-24(fp)
 a8022f4:	00003206 	br	a8023c0 <dump_record_data+0xec>
        data = *pData++;
 a8022f8:	e0bffe17 	ldw	r2,-8(fp)
 a8022fc:	10800017 	ldw	r2,0(r2)
 a802300:	e0bffb15 	stw	r2,-20(fp)
 a802304:	e0bffe17 	ldw	r2,-8(fp)
 a802308:	10800104 	addi	r2,r2,4
 a80230c:	e0bffe15 	stw	r2,-8(fp)
        sample_l = (short)((data >> 16) & 0xFFFF); 
 a802310:	e0bffb17 	ldw	r2,-20(fp)
 a802314:	1004d43a 	srli	r2,r2,16
 a802318:	e0bffd0d 	sth	r2,-12(fp)
        sample_r = (short)(data & 0xFFFF);
 a80231c:	e0bffb17 	ldw	r2,-20(fp)
 a802320:	e0bffc8d 	sth	r2,-14(fp)
        //printf("[%d]%d/%d\n", i, sample_l, sample_r);
        if (sample_l > 0 && sample_max <  sample_l)
 a802324:	e0bffd0f 	ldh	r2,-12(fp)
 a802328:	10800050 	cmplti	r2,r2,1
 a80232c:	1000051e 	bne	r2,zero,a802344 <dump_record_data+0x70>
 a802330:	e0fffc0f 	ldh	r3,-16(fp)
 a802334:	e0bffd0f 	ldh	r2,-12(fp)
 a802338:	1880020e 	bge	r3,r2,a802344 <dump_record_data+0x70>
            sample_max = sample_l;
 a80233c:	e0bffd0b 	ldhu	r2,-12(fp)
 a802340:	e0bffc0d 	sth	r2,-16(fp)
        if (sample_l < 0 && sample_max <  -sample_l)
 a802344:	e0bffd0f 	ldh	r2,-12(fp)
 a802348:	1004403a 	cmpge	r2,r2,zero
 a80234c:	1000071e 	bne	r2,zero,a80236c <dump_record_data+0x98>
 a802350:	e0bffc0f 	ldh	r2,-16(fp)
 a802354:	e0fffd0f 	ldh	r3,-12(fp)
 a802358:	00c7c83a 	sub	r3,zero,r3
 a80235c:	10c0030e 	bge	r2,r3,a80236c <dump_record_data+0x98>
            sample_max = -sample_l;
 a802360:	e0bffd0b 	ldhu	r2,-12(fp)
 a802364:	0085c83a 	sub	r2,zero,r2
 a802368:	e0bffc0d 	sth	r2,-16(fp)
        if (sample_r > 0 && sample_max <  sample_r)
 a80236c:	e0bffc8f 	ldh	r2,-14(fp)
 a802370:	10800050 	cmplti	r2,r2,1
 a802374:	1000051e 	bne	r2,zero,a80238c <dump_record_data+0xb8>
 a802378:	e0fffc0f 	ldh	r3,-16(fp)
 a80237c:	e0bffc8f 	ldh	r2,-14(fp)
 a802380:	1880020e 	bge	r3,r2,a80238c <dump_record_data+0xb8>
            sample_max = sample_r;
 a802384:	e0bffc8b 	ldhu	r2,-14(fp)
 a802388:	e0bffc0d 	sth	r2,-16(fp)
        if (sample_r < 0 && sample_max <  -sample_r)
 a80238c:	e0bffc8f 	ldh	r2,-14(fp)
 a802390:	1004403a 	cmpge	r2,r2,zero
 a802394:	1000071e 	bne	r2,zero,a8023b4 <dump_record_data+0xe0>
 a802398:	e0bffc0f 	ldh	r2,-16(fp)
 a80239c:	e0fffc8f 	ldh	r3,-14(fp)
 a8023a0:	00c7c83a 	sub	r3,zero,r3
 a8023a4:	10c0030e 	bge	r2,r3,a8023b4 <dump_record_data+0xe0>
            sample_max = -sample_r;
 a8023a8:	e0bffc8b 	ldhu	r2,-14(fp)
 a8023ac:	0085c83a 	sub	r2,zero,r2
 a8023b0:	e0bffc0d 	sth	r2,-16(fp)
void dump_record_data(alt_u32 *pData, alt_u32 len){
    short sample_l, sample_r, sample_max = 0;
    alt_u32 data;
    int i;
    //return ;
    for(i=0;i<len;i++){
 a8023b4:	e0bffa17 	ldw	r2,-24(fp)
 a8023b8:	10800044 	addi	r2,r2,1
 a8023bc:	e0bffa15 	stw	r2,-24(fp)
 a8023c0:	e0fffa17 	ldw	r3,-24(fp)
 a8023c4:	e0bfff17 	ldw	r2,-4(fp)
 a8023c8:	18bfcb36 	bltu	r3,r2,a8022f8 <dump_record_data+0x24>
        if (sample_r > 0 && sample_max <  sample_r)
            sample_max = sample_r;
        if (sample_r < 0 && sample_max <  -sample_r)
            sample_max = -sample_r;
    }
    printf("max=%d\n", sample_max);
 a8023cc:	e17ffc0f 	ldh	r5,-16(fp)
 a8023d0:	0102a074 	movhi	r4,2689
 a8023d4:	210c6e04 	addi	r4,r4,12728
 a8023d8:	a8047a00 	call	a8047a0 <printf>
}
 a8023dc:	e037883a 	mov	sp,fp
 a8023e0:	dfc00117 	ldw	ra,4(sp)
 a8023e4:	df000017 	ldw	fp,0(sp)
 a8023e8:	dec00204 	addi	sp,sp,8
 a8023ec:	f800283a 	ret

0a8023f0 <show_menu>:
    "  LED:  Display audio singal strength.\n",
    "  SEG7: Display time elapsed for playing/recording.\n"
    "\n\n"
};

void show_menu(void){
 a8023f0:	defffd04 	addi	sp,sp,-12
 a8023f4:	dfc00215 	stw	ra,8(sp)
 a8023f8:	df000115 	stw	fp,4(sp)
 a8023fc:	df000104 	addi	fp,sp,4
    int i;
    for(i=0;i<sizeof(szMenu)/sizeof(szMenu[0]);i++)
 a802400:	e03fff15 	stw	zero,-4(fp)
 a802404:	00000b06 	br	a802434 <show_menu+0x44>
        printf(szMenu[i]);
 a802408:	e0bfff17 	ldw	r2,-4(fp)
 a80240c:	100491fa 	slli	r2,r2,7
 a802410:	1007883a 	mov	r3,r2
 a802414:	0082a074 	movhi	r2,2689
 a802418:	108c7004 	addi	r2,r2,12736
 a80241c:	1885883a 	add	r2,r3,r2
 a802420:	1009883a 	mov	r4,r2
 a802424:	a8047a00 	call	a8047a0 <printf>
    "\n\n"
};

void show_menu(void){
    int i;
    for(i=0;i<sizeof(szMenu)/sizeof(szMenu[0]);i++)
 a802428:	e0bfff17 	ldw	r2,-4(fp)
 a80242c:	10800044 	addi	r2,r2,1
 a802430:	e0bfff15 	stw	r2,-4(fp)
 a802434:	e0bfff17 	ldw	r2,-4(fp)
 a802438:	10800470 	cmpltui	r2,r2,17
 a80243c:	103ff21e 	bne	r2,zero,a802408 <show_menu+0x18>
        printf(szMenu[i]);
}
 a802440:	e037883a 	mov	sp,fp
 a802444:	dfc00117 	ldw	ra,4(sp)
 a802448:	df000017 	ldw	fp,0(sp)
 a80244c:	dec00204 	addi	sp,sp,8
 a802450:	f800283a 	ret

0a802454 <main>:

int main()
{
 a802454:	deffc504 	addi	sp,sp,-236
 a802458:	dfc03a15 	stw	ra,232(sp)
 a80245c:	df003915 	stw	fp,228(sp)
 a802460:	df003904 	addi	fp,sp,228
    typedef enum{
        ST_STANDY,
        ST_RECODING,
        ST_PLAYING
    }STATE;
    STATE state = ST_STANDY;
 a802464:	e03fd715 	stw	zero,-164(fp)
    volatile alt_u32 button_mask=0;
 a802468:	e03fd815 	stw	zero,-160(fp)
    bool bRecordPressed, bPlayPressed, bError = FALSE;
 a80246c:	e03fd415 	stw	zero,-176(fp)
    alt_u32 *pBuf, *pPlaying, *pRecording, RecordLen, PlayLen, data, try_cnt, buf_sample_size;
    alt_u16 ch_right, ch_left;
    char szText[128];
    
    printf("\nHello World\n");
 a802470:	0102a074 	movhi	r4,2689
 a802474:	210e9004 	addi	r4,r4,14912
 a802478:	a8048b80 	call	a8048b8 <puts>

    show_menu();    
 a80247c:	a8023f00 	call	a8023f0 <show_menu>
    if (!init())
 a802480:	a80225c0 	call	a80225c <init>
 a802484:	1004c03a 	cmpne	r2,r2,zero
 a802488:	1000031e 	bne	r2,zero,a802498 <main+0x44>
        return 0;
 a80248c:	0005883a 	mov	r2,zero
 a802490:	e0bfff15 	stw	r2,-4(fp)
 a802494:	00014b06 	br	a8029c4 <main+0x570>
        
    
#ifdef USE_SDRAM_FOR_DATA
    pBuf = (alt_u32 *)SDRAM_BASE;
 a802498:	e03fd315 	stw	zero,-180(fp)
    buf_sample_size = SDRAM_SPAN/sizeof(alt_u32);
 a80249c:	00808034 	movhi	r2,512
 a8024a0:	e0bfcc15 	stw	r2,-208(fp)
        LCD_TextOut("malloc fail\n\n");
        printf("malloc fail\r\n");
        return 0;
    }
#endif    
    button_monitor_start(&button_mask);  // button IRQ
 a8024a4:	e13fd804 	addi	r4,fp,-160
 a8024a8:	a801f640 	call	a801f64 <button_monitor_start>
    printf("ready\n");
 a8024ac:	0102a074 	movhi	r4,2689
 a8024b0:	210e9404 	addi	r4,r4,14928
 a8024b4:	a8048b80 	call	a8048b8 <puts>
    
    
    // test
    record_sample_rate = ui_get_sample_rate(); 
 a8024b8:	a801e600 	call	a801e60 <ui_get_sample_rate>
 a8024bc:	d0a73415 	stw	r2,-25392(gp)
    RecordLen = buf_sample_size;
 a8024c0:	e0bfcc17 	ldw	r2,-208(fp)
 a8024c4:	e0bfd015 	stw	r2,-192(fp)
 a8024c8:	00000006 	br	a8024cc <main+0x78>
    //
    
    // infinite loop
    while(1){
        // 
        bRecordPressed = (button_mask & RECORD_BUTTON)?TRUE:FALSE;
 a8024cc:	e0bfd817 	ldw	r2,-160(fp)
 a8024d0:	1080020c 	andi	r2,r2,8
 a8024d4:	1004c03a 	cmpne	r2,r2,zero
 a8024d8:	e0bfd615 	stw	r2,-168(fp)
        bPlayPressed = (button_mask & PLAY_BUTTON)?TRUE:FALSE;
 a8024dc:	e0bfd817 	ldw	r2,-160(fp)
 a8024e0:	1080010c 	andi	r2,r2,4
 a8024e4:	1004c03a 	cmpne	r2,r2,zero
 a8024e8:	e0bfd515 	stw	r2,-172(fp)
        if (bPlayPressed || bRecordPressed) 
 a8024ec:	e0bfd517 	ldw	r2,-172(fp)
 a8024f0:	1004c03a 	cmpne	r2,r2,zero
 a8024f4:	1000031e 	bne	r2,zero,a802504 <main+0xb0>
 a8024f8:	e0bfd617 	ldw	r2,-168(fp)
 a8024fc:	1005003a 	cmpeq	r2,r2,zero
 a802500:	1000011e 	bne	r2,zero,a802508 <main+0xb4>
            button_mask = 0;
 a802504:	e03fd815 	stw	zero,-160(fp)
        if (state == ST_STANDY){
 a802508:	e0bfd717 	ldw	r2,-164(fp)
 a80250c:	1004c03a 	cmpne	r2,r2,zero
 a802510:	10007d1e 	bne	r2,zero,a802708 <main+0x2b4>
            if (bRecordPressed){
 a802514:	e0bfd617 	ldw	r2,-168(fp)
 a802518:	1005003a 	cmpeq	r2,r2,zero
 a80251c:	1000471e 	bne	r2,zero,a80263c <main+0x1e8>
                bool bMicRecord;
                record_sample_rate = ui_get_sample_rate();
 a802520:	a801e600 	call	a801e60 <ui_get_sample_rate>
 a802524:	d0a73415 	stw	r2,-25392(gp)
                bMicRecord = ui_is_mic_record();
 a802528:	a801d9c0 	call	a801d9c <ui_is_mic_record>
 a80252c:	e0bfcb15 	stw	r2,-212(fp)
                AUDIO_FifoClear();
 a802530:	a800f6c0 	call	a800f6c <AUDIO_FifoClear>
                init_audio(bMicRecord?MIC_RECORD:LINEIN_RECORD);
 a802534:	e0bfcb17 	ldw	r2,-212(fp)
 a802538:	1009003a 	cmpeq	r4,r2,zero
 a80253c:	a801fec0 	call	a801fec <init_audio>
                AUDIO_FifoClear();
 a802540:	a800f6c0 	call	a800f6c <AUDIO_FifoClear>
                state = ST_RECODING;
 a802544:	00800044 	movi	r2,1
 a802548:	e0bfd715 	stw	r2,-164(fp)
                if (bMicRecord){
 a80254c:	e0bfcb17 	ldw	r2,-212(fp)
 a802550:	1005003a 	cmpeq	r2,r2,zero
 a802554:	1000271e 	bne	r2,zero,a8025f4 <main+0x1a0>
                    bool bMicBoost = ui_is_mic_boost();
 a802558:	a801df00 	call	a801df0 <ui_is_mic_boost>
 a80255c:	e0bfca15 	stw	r2,-216(fp)
                    printf("MIC %srecording (sample rate = %d)...\r\n", bMicBoost?"Boost ":"", record_sample_rate);
 a802560:	e0bfca17 	ldw	r2,-216(fp)
 a802564:	1005003a 	cmpeq	r2,r2,zero
 a802568:	1000041e 	bne	r2,zero,a80257c <main+0x128>
 a80256c:	0082a074 	movhi	r2,2689
 a802570:	108e9604 	addi	r2,r2,14936
 a802574:	e0bffe15 	stw	r2,-8(fp)
 a802578:	00000306 	br	a802588 <main+0x134>
 a80257c:	0082a074 	movhi	r2,2689
 a802580:	108e9804 	addi	r2,r2,14944
 a802584:	e0bffe15 	stw	r2,-8(fp)
 a802588:	d1a73417 	ldw	r6,-25392(gp)
 a80258c:	0102a074 	movhi	r4,2689
 a802590:	210e9904 	addi	r4,r4,14948
 a802594:	e17ffe17 	ldw	r5,-8(fp)
 a802598:	a8047a00 	call	a8047a0 <printf>
                    sprintf(szText,"MIC %s (%dK)\nRecording...\n",bMicBoost?"Boost":"", record_sample_rate/1000);
 a80259c:	e0bfca17 	ldw	r2,-216(fp)
 a8025a0:	1005003a 	cmpeq	r2,r2,zero
 a8025a4:	1000041e 	bne	r2,zero,a8025b8 <main+0x164>
 a8025a8:	0082a074 	movhi	r2,2689
 a8025ac:	108ea304 	addi	r2,r2,14988
 a8025b0:	e0bffd15 	stw	r2,-12(fp)
 a8025b4:	00000306 	br	a8025c4 <main+0x170>
 a8025b8:	0082a074 	movhi	r2,2689
 a8025bc:	108e9804 	addi	r2,r2,14944
 a8025c0:	e0bffd15 	stw	r2,-12(fp)
 a8025c4:	d1273417 	ldw	r4,-25392(gp)
 a8025c8:	0140fa04 	movi	r5,1000
 a8025cc:	a802a580 	call	a802a58 <__divsi3>
 a8025d0:	100f883a 	mov	r7,r2
 a8025d4:	e13fda04 	addi	r4,fp,-152
 a8025d8:	0142a074 	movhi	r5,2689
 a8025dc:	294ea504 	addi	r5,r5,14996
 a8025e0:	e1bffd17 	ldw	r6,-12(fp)
 a8025e4:	a804b1c0 	call	a804b1c <sprintf>
                    LCD_TextOut(szText);
 a8025e8:	e13fda04 	addi	r4,fp,-152
 a8025ec:	a80170c0 	call	a80170c <LCD_TextOut>
 a8025f0:	00000e06 	br	a80262c <main+0x1d8>
                }else{
                    printf("LINE-IN recording (sample rate = %d)...\r\n", record_sample_rate);
 a8025f4:	d1673417 	ldw	r5,-25392(gp)
 a8025f8:	0102a074 	movhi	r4,2689
 a8025fc:	210eac04 	addi	r4,r4,15024
 a802600:	a8047a00 	call	a8047a0 <printf>
                    sprintf(szText,"LINE-IN (%dK)\nRecording...\n",record_sample_rate/1000);
 a802604:	d1273417 	ldw	r4,-25392(gp)
 a802608:	0140fa04 	movi	r5,1000
 a80260c:	a802a580 	call	a802a58 <__divsi3>
 a802610:	100d883a 	mov	r6,r2
 a802614:	e13fda04 	addi	r4,fp,-152
 a802618:	0142a074 	movhi	r5,2689
 a80261c:	294eb704 	addi	r5,r5,15068
 a802620:	a804b1c0 	call	a804b1c <sprintf>
                    LCD_TextOut(szText);
 a802624:	e13fda04 	addi	r4,fp,-152
 a802628:	a80170c0 	call	a80170c <LCD_TextOut>
                }                    
                pRecording = pBuf;
 a80262c:	e0bfd317 	ldw	r2,-180(fp)
 a802630:	e0bfd115 	stw	r2,-188(fp)
                RecordLen = 0;
 a802634:	e03fd015 	stw	zero,-192(fp)
 a802638:	00003106 	br	a802700 <main+0x2ac>
            }else if (bPlayPressed){
 a80263c:	e0bfd517 	ldw	r2,-172(fp)
 a802640:	1005003a 	cmpeq	r2,r2,zero
 a802644:	10002e1e 	bne	r2,zero,a802700 <main+0x2ac>
                if (RecordLen == 0){
 a802648:	e0bfd017 	ldw	r2,-192(fp)
 a80264c:	1004c03a 	cmpne	r2,r2,zero
 a802650:	1000071e 	bne	r2,zero,a802670 <main+0x21c>
                    printf("Please record before play audio\r\n");
 a802654:	0102a074 	movhi	r4,2689
 a802658:	210ebe04 	addi	r4,r4,15096
 a80265c:	a8048b80 	call	a8048b8 <puts>
                    LCD_TextOut("Record First\nBefore Play\n");
 a802660:	0102a074 	movhi	r4,2689
 a802664:	210ec704 	addi	r4,r4,15132
 a802668:	a80170c0 	call	a80170c <LCD_TextOut>
 a80266c:	00002406 	br	a802700 <main+0x2ac>
                }else{
                    bool bZeroCross = ui_is_dac_zero_cross();
 a802670:	a801e280 	call	a801e28 <ui_is_dac_zero_cross>
 a802674:	e0bfc915 	stw	r2,-220(fp)
                    AUDIO_FifoClear();
 a802678:	a800f6c0 	call	a800f6c <AUDIO_FifoClear>
                    init_audio(LINEOUT_PLAY);
 a80267c:	01000084 	movi	r4,2
 a802680:	a801fec0 	call	a801fec <init_audio>
                    state = ST_PLAYING;
 a802684:	00800084 	movi	r2,2
 a802688:	e0bfd715 	stw	r2,-164(fp)
                    printf("playing (sample rate = %d)...\r\n", record_sample_rate);
 a80268c:	d1673417 	ldw	r5,-25392(gp)
 a802690:	0102a074 	movhi	r4,2689
 a802694:	210ece04 	addi	r4,r4,15160
 a802698:	a8047a00 	call	a8047a0 <printf>
                    sprintf(szText,"Playing (%dK)\n%s...\n",record_sample_rate/1000, bZeroCross?"Zero Cross":"");
 a80269c:	d1273417 	ldw	r4,-25392(gp)
 a8026a0:	0140fa04 	movi	r5,1000
 a8026a4:	a802a580 	call	a802a58 <__divsi3>
 a8026a8:	e0bffc15 	stw	r2,-16(fp)
 a8026ac:	e0bfc917 	ldw	r2,-220(fp)
 a8026b0:	1005003a 	cmpeq	r2,r2,zero
 a8026b4:	1000041e 	bne	r2,zero,a8026c8 <main+0x274>
 a8026b8:	0082a074 	movhi	r2,2689
 a8026bc:	108ed604 	addi	r2,r2,15192
 a8026c0:	e0bffb15 	stw	r2,-20(fp)
 a8026c4:	00000306 	br	a8026d4 <main+0x280>
 a8026c8:	0082a074 	movhi	r2,2689
 a8026cc:	108e9804 	addi	r2,r2,14944
 a8026d0:	e0bffb15 	stw	r2,-20(fp)
 a8026d4:	e13fda04 	addi	r4,fp,-152
 a8026d8:	0142a074 	movhi	r5,2689
 a8026dc:	294ed904 	addi	r5,r5,15204
 a8026e0:	e1bffc17 	ldw	r6,-16(fp)
 a8026e4:	e1fffb17 	ldw	r7,-20(fp)
 a8026e8:	a804b1c0 	call	a804b1c <sprintf>
                    LCD_TextOut(szText);
 a8026ec:	e13fda04 	addi	r4,fp,-152
 a8026f0:	a80170c0 	call	a80170c <LCD_TextOut>
                    pPlaying = pBuf;
 a8026f4:	e0bfd317 	ldw	r2,-180(fp)
 a8026f8:	e0bfd215 	stw	r2,-184(fp)
                    PlayLen = 0;
 a8026fc:	e03fcf15 	stw	zero,-196(fp)
                }  
            }
            bError = FALSE;
 a802700:	e03fd415 	stw	zero,-176(fp)
 a802704:	003f7106 	br	a8024cc <main+0x78>
        }else if (state == ST_RECODING){
 a802708:	e0bfd717 	ldw	r2,-164(fp)
 a80270c:	10800058 	cmpnei	r2,r2,1
 a802710:	1000511e 	bne	r2,zero,a802858 <main+0x404>
            if (bRecordPressed || (RecordLen >= buf_sample_size) || bError){
 a802714:	e0bfd617 	ldw	r2,-168(fp)
 a802718:	1004c03a 	cmpne	r2,r2,zero
 a80271c:	1000061e 	bne	r2,zero,a802738 <main+0x2e4>
 a802720:	e0ffd017 	ldw	r3,-192(fp)
 a802724:	e0bfcc17 	ldw	r2,-208(fp)
 a802728:	1880032e 	bgeu	r3,r2,a802738 <main+0x2e4>
 a80272c:	e0bfd417 	ldw	r2,-176(fp)
 a802730:	1005003a 	cmpeq	r2,r2,zero
 a802734:	1000111e 	bne	r2,zero,a80277c <main+0x328>
                // stop record
                printf("record %d samples\n", (int)RecordLen);
 a802738:	e17fd017 	ldw	r5,-192(fp)
 a80273c:	0102a074 	movhi	r4,2689
 a802740:	210edf04 	addi	r4,r4,15228
 a802744:	a8047a00 	call	a8047a0 <printf>
                sprintf(szText, "record\n%d samples\n", (int)RecordLen);
 a802748:	e1bfd017 	ldw	r6,-192(fp)
 a80274c:	e13fda04 	addi	r4,fp,-152
 a802750:	0142a074 	movhi	r5,2689
 a802754:	294ee404 	addi	r5,r5,15248
 a802758:	a804b1c0 	call	a804b1c <sprintf>
                LCD_TextOut(szText);
 a80275c:	e13fda04 	addi	r4,fp,-152
 a802760:	a80170c0 	call	a80170c <LCD_TextOut>
                state = ST_STANDY;
 a802764:	e03fd715 	stw	zero,-164(fp)
                LED_AllOff();
 a802768:	a8018980 	call	a801898 <LED_AllOff>
                dump_record_data(pBuf, RecordLen);
 a80276c:	e13fd317 	ldw	r4,-180(fp)
 a802770:	e17fd017 	ldw	r5,-192(fp)
 a802774:	a8022d40 	call	a8022d4 <dump_record_data>
                    PlayLen = 0;
                }  
            }
            bError = FALSE;
        }else if (state == ST_RECODING){
            if (bRecordPressed || (RecordLen >= buf_sample_size) || bError){
 a802778:	003f5406 	br	a8024cc <main+0x78>
                LED_AllOff();
                dump_record_data(pBuf, RecordLen);
                
            }else{
                // continue recoding
                int i = 0;
 a80277c:	e03fc815 	stw	zero,-224(fp)
                while ((i < RECORD_BLOCK_SIZE) && (RecordLen < buf_sample_size)){
 a802780:	00002c06 	br	a802834 <main+0x3e0>
                    try_cnt = 0;
 a802784:	e03fcd15 	stw	zero,-204(fp)
                    while (!AUDIO_AdcFifoNotEmpty() && try_cnt < MAX_TRY_CNT){ // wait while empty
 a802788:	00000306 	br	a802798 <main+0x344>
                        try_cnt++;    
 a80278c:	e0bfcd17 	ldw	r2,-204(fp)
 a802790:	10800044 	addi	r2,r2,1
 a802794:	e0bfcd15 	stw	r2,-204(fp)
            }else{
                // continue recoding
                int i = 0;
                while ((i < RECORD_BLOCK_SIZE) && (RecordLen < buf_sample_size)){
                    try_cnt = 0;
                    while (!AUDIO_AdcFifoNotEmpty() && try_cnt < MAX_TRY_CNT){ // wait while empty
 a802798:	a800ee00 	call	a800ee0 <AUDIO_AdcFifoNotEmpty>
 a80279c:	1004c03a 	cmpne	r2,r2,zero
 a8027a0:	1000031e 	bne	r2,zero,a8027b0 <main+0x35c>
 a8027a4:	e0bfcd17 	ldw	r2,-204(fp)
 a8027a8:	10810030 	cmpltui	r2,r2,1024
 a8027ac:	103ff71e 	bne	r2,zero,a80278c <main+0x338>
                        try_cnt++;    
                    }    
                    if (try_cnt >= MAX_TRY_CNT){
 a8027b0:	e0bfcd17 	ldw	r2,-204(fp)
 a8027b4:	10810030 	cmpltui	r2,r2,1024
 a8027b8:	1000031e 	bne	r2,zero,a8027c8 <main+0x374>
                        bError = TRUE;
 a8027bc:	00800044 	movi	r2,1
 a8027c0:	e0bfd415 	stw	r2,-176(fp)
                        break;
 a8027c4:	00002106 	br	a80284c <main+0x3f8>
                    }    
                    AUDIO_AdcFifoGetData(&ch_left, &ch_right);
 a8027c8:	e13fd984 	addi	r4,fp,-154
 a8027cc:	e17fd904 	addi	r5,fp,-156
 a8027d0:	a800f180 	call	a800f18 <AUDIO_AdcFifoGetData>
                    data = (ch_left << 16) | ch_right;
 a8027d4:	e0bfd98b 	ldhu	r2,-154(fp)
 a8027d8:	10bfffcc 	andi	r2,r2,65535
 a8027dc:	1006943a 	slli	r3,r2,16
 a8027e0:	e0bfd90b 	ldhu	r2,-156(fp)
 a8027e4:	10bfffcc 	andi	r2,r2,65535
 a8027e8:	1884b03a 	or	r2,r3,r2
 a8027ec:	e0bfce15 	stw	r2,-200(fp)
                    *pRecording++ = data;
 a8027f0:	e0ffd117 	ldw	r3,-188(fp)
 a8027f4:	e0bfce17 	ldw	r2,-200(fp)
 a8027f8:	18800015 	stw	r2,0(r3)
 a8027fc:	e0bfd117 	ldw	r2,-188(fp)
 a802800:	10800104 	addi	r2,r2,4
 a802804:	e0bfd115 	stw	r2,-188(fp)
                    RecordLen++;
 a802808:	e0bfd017 	ldw	r2,-192(fp)
 a80280c:	10800044 	addi	r2,r2,1
 a802810:	e0bfd015 	stw	r2,-192(fp)
                    i++;
 a802814:	e0bfc817 	ldw	r2,-224(fp)
 a802818:	10800044 	addi	r2,r2,1
 a80281c:	e0bfc815 	stw	r2,-224(fp)
                    show_power(data & 0xFFFF);
 a802820:	e0bfce17 	ldw	r2,-200(fp)
 a802824:	113fffcc 	andi	r4,r2,65535
 a802828:	2120001c 	xori	r4,r4,32768
 a80282c:	21200004 	addi	r4,r4,-32768
 a802830:	a8021c40 	call	a8021c4 <show_power>
                dump_record_data(pBuf, RecordLen);
                
            }else{
                // continue recoding
                int i = 0;
                while ((i < RECORD_BLOCK_SIZE) && (RecordLen < buf_sample_size)){
 a802834:	e0bfc817 	ldw	r2,-224(fp)
 a802838:	10803e88 	cmpgei	r2,r2,250
 a80283c:	1000031e 	bne	r2,zero,a80284c <main+0x3f8>
 a802840:	e0ffd017 	ldw	r3,-192(fp)
 a802844:	e0bfcc17 	ldw	r2,-208(fp)
 a802848:	18bfce36 	bltu	r3,r2,a802784 <main+0x330>
                    *pRecording++ = data;
                    RecordLen++;
                    i++;
                    show_power(data & 0xFFFF);
                }  // while
                display_time_elapsed(RecordLen);    
 a80284c:	e13fd017 	ldw	r4,-192(fp)
 a802850:	a8021780 	call	a802178 <display_time_elapsed>
 a802854:	003f1d06 	br	a8024cc <main+0x78>
            }     
        }else if (state == ST_PLAYING){
 a802858:	e0bfd717 	ldw	r2,-164(fp)
 a80285c:	10800098 	cmpnei	r2,r2,2
 a802860:	103f1a1e 	bne	r2,zero,a8024cc <main+0x78>
            if (bPlayPressed || (PlayLen >= RecordLen) || bError){
 a802864:	e0bfd517 	ldw	r2,-172(fp)
 a802868:	1004c03a 	cmpne	r2,r2,zero
 a80286c:	1000061e 	bne	r2,zero,a802888 <main+0x434>
 a802870:	e0ffcf17 	ldw	r3,-196(fp)
 a802874:	e0bfd017 	ldw	r2,-192(fp)
 a802878:	1880032e 	bgeu	r3,r2,a802888 <main+0x434>
 a80287c:	e0bfd417 	ldw	r2,-176(fp)
 a802880:	1005003a 	cmpeq	r2,r2,zero
 a802884:	1000141e 	bne	r2,zero,a8028d8 <main+0x484>
                // stop playing
                printf("Play Stop %s\r\n", bError?"(Error)":"");
 a802888:	e0bfd417 	ldw	r2,-176(fp)
 a80288c:	1005003a 	cmpeq	r2,r2,zero
 a802890:	1000041e 	bne	r2,zero,a8028a4 <main+0x450>
 a802894:	0082a074 	movhi	r2,2689
 a802898:	108ee904 	addi	r2,r2,15268
 a80289c:	e0bffa15 	stw	r2,-24(fp)
 a8028a0:	00000306 	br	a8028b0 <main+0x45c>
 a8028a4:	0082a074 	movhi	r2,2689
 a8028a8:	108e9804 	addi	r2,r2,14944
 a8028ac:	e0bffa15 	stw	r2,-24(fp)
 a8028b0:	0102a074 	movhi	r4,2689
 a8028b4:	210eeb04 	addi	r4,r4,15276
 a8028b8:	e17ffa17 	ldw	r5,-24(fp)
 a8028bc:	a8047a00 	call	a8047a0 <printf>
                LCD_TextOut("Standby\n\n");
 a8028c0:	0102a074 	movhi	r4,2689
 a8028c4:	210eef04 	addi	r4,r4,15292
 a8028c8:	a80170c0 	call	a80170c <LCD_TextOut>
                state = ST_STANDY;
 a8028cc:	e03fd715 	stw	zero,-164(fp)
                LED_AllOff();
 a8028d0:	a8018980 	call	a801898 <LED_AllOff>
                    show_power(data & 0xFFFF);
                }  // while
                display_time_elapsed(RecordLen);    
            }     
        }else if (state == ST_PLAYING){
            if (bPlayPressed || (PlayLen >= RecordLen) || bError){
 a8028d4:	003efd06 	br	a8024cc <main+0x78>
                LCD_TextOut("Standby\n\n");
                state = ST_STANDY;
                LED_AllOff();
            }else{
                // continue playing
                int i = 0;
 a8028d8:	e03fc715 	stw	zero,-228(fp)
                while ((i < PLAY_BLOCK_SIZE) && (PlayLen < RecordLen)){
 a8028dc:	00003006 	br	a8029a0 <main+0x54c>
                    try_cnt = 0;                
 a8028e0:	e03fcd15 	stw	zero,-204(fp)
                    while (!AUDIO_DacFifoNotFull() && try_cnt < MAX_TRY_CNT){  // wait while full
 a8028e4:	00000306 	br	a8028f4 <main+0x4a0>
                        try_cnt++;
 a8028e8:	e0bfcd17 	ldw	r2,-204(fp)
 a8028ec:	10800044 	addi	r2,r2,1
 a8028f0:	e0bfcd15 	stw	r2,-204(fp)
            }else{
                // continue playing
                int i = 0;
                while ((i < PLAY_BLOCK_SIZE) && (PlayLen < RecordLen)){
                    try_cnt = 0;                
                    while (!AUDIO_DacFifoNotFull() && try_cnt < MAX_TRY_CNT){  // wait while full
 a8028f4:	a800e480 	call	a800e48 <AUDIO_DacFifoNotFull>
 a8028f8:	1004c03a 	cmpne	r2,r2,zero
 a8028fc:	1000031e 	bne	r2,zero,a80290c <main+0x4b8>
 a802900:	e0bfcd17 	ldw	r2,-204(fp)
 a802904:	10810030 	cmpltui	r2,r2,1024
 a802908:	103ff71e 	bne	r2,zero,a8028e8 <main+0x494>
                        try_cnt++;
                    }    
                    if (try_cnt >= MAX_TRY_CNT){
 a80290c:	e0bfcd17 	ldw	r2,-204(fp)
 a802910:	10810030 	cmpltui	r2,r2,1024
 a802914:	1000031e 	bne	r2,zero,a802924 <main+0x4d0>
                        bError = TRUE;
 a802918:	00800044 	movi	r2,1
 a80291c:	e0bfd415 	stw	r2,-176(fp)
                        break;
 a802920:	00002506 	br	a8029b8 <main+0x564>
                    }    
                    data = *pPlaying++;
 a802924:	e0bfd217 	ldw	r2,-184(fp)
 a802928:	10800017 	ldw	r2,0(r2)
 a80292c:	e0bfce15 	stw	r2,-200(fp)
 a802930:	e0bfd217 	ldw	r2,-184(fp)
 a802934:	10800104 	addi	r2,r2,4
 a802938:	e0bfd215 	stw	r2,-184(fp)
                   
                    //data = 0;
                    ch_left = data >> 16;
 a80293c:	e0bfce17 	ldw	r2,-200(fp)
 a802940:	1004d43a 	srli	r2,r2,16
 a802944:	e0bfd98d 	sth	r2,-154(fp)
                    ch_right = data & 0xFFFF;
 a802948:	e0bfce17 	ldw	r2,-200(fp)
 a80294c:	e0bfd90d 	sth	r2,-156(fp)
                    AUDIO_DacFifoSetData(ch_left, ch_right);  
 a802950:	e0bfd98b 	ldhu	r2,-154(fp)
 a802954:	113fffcc 	andi	r4,r2,65535
 a802958:	2120001c 	xori	r4,r4,32768
 a80295c:	21200004 	addi	r4,r4,-32768
 a802960:	e0bfd90b 	ldhu	r2,-156(fp)
 a802964:	117fffcc 	andi	r5,r2,65535
 a802968:	2960001c 	xori	r5,r5,32768
 a80296c:	29600004 	addi	r5,r5,-32768
 a802970:	a800e9c0 	call	a800e9c <AUDIO_DacFifoSetData>
                    i++;
 a802974:	e0bfc717 	ldw	r2,-228(fp)
 a802978:	10800044 	addi	r2,r2,1
 a80297c:	e0bfc715 	stw	r2,-228(fp)
                    PlayLen++;
 a802980:	e0bfcf17 	ldw	r2,-196(fp)
 a802984:	10800044 	addi	r2,r2,1
 a802988:	e0bfcf15 	stw	r2,-196(fp)
                    show_power(data & 0xFFFF);
 a80298c:	e0bfce17 	ldw	r2,-200(fp)
 a802990:	113fffcc 	andi	r4,r2,65535
 a802994:	2120001c 	xori	r4,r4,32768
 a802998:	21200004 	addi	r4,r4,-32768
 a80299c:	a8021c40 	call	a8021c4 <show_power>
                state = ST_STANDY;
                LED_AllOff();
            }else{
                // continue playing
                int i = 0;
                while ((i < PLAY_BLOCK_SIZE) && (PlayLen < RecordLen)){
 a8029a0:	e0bfc717 	ldw	r2,-228(fp)
 a8029a4:	10803e88 	cmpgei	r2,r2,250
 a8029a8:	1000031e 	bne	r2,zero,a8029b8 <main+0x564>
 a8029ac:	e0ffcf17 	ldw	r3,-196(fp)
 a8029b0:	e0bfd017 	ldw	r2,-192(fp)
 a8029b4:	18bfca36 	bltu	r3,r2,a8028e0 <main+0x48c>
                    i++;
                    PlayLen++;
                    show_power(data & 0xFFFF);
                    //printf("[%d] %d/%d\n", PlayLen, (short)((data >> 16) & 0xFFFF), (short)(data & 0xFFFF));
                }
                display_time_elapsed(PlayLen);     
 a8029b8:	e13fcf17 	ldw	r4,-196(fp)
 a8029bc:	a8021780 	call	a802178 <display_time_elapsed>
            }
        }        
    }
 a8029c0:	003ec206 	br	a8024cc <main+0x78>
    
}
 a8029c4:	e0bfff17 	ldw	r2,-4(fp)
 a8029c8:	e037883a 	mov	sp,fp
 a8029cc:	dfc00117 	ldw	ra,4(sp)
 a8029d0:	df000017 	ldw	fp,0(sp)
 a8029d4:	dec00204 	addi	sp,sp,8
 a8029d8:	f800283a 	ret

0a8029dc <udivmodsi4>:
 a8029dc:	29001b2e 	bgeu	r5,r4,a802a4c <udivmodsi4+0x70>
 a8029e0:	28001a16 	blt	r5,zero,a802a4c <udivmodsi4+0x70>
 a8029e4:	00800044 	movi	r2,1
 a8029e8:	0007883a 	mov	r3,zero
 a8029ec:	01c007c4 	movi	r7,31
 a8029f0:	00000306 	br	a802a00 <udivmodsi4+0x24>
 a8029f4:	19c01326 	beq	r3,r7,a802a44 <udivmodsi4+0x68>
 a8029f8:	18c00044 	addi	r3,r3,1
 a8029fc:	28000416 	blt	r5,zero,a802a10 <udivmodsi4+0x34>
 a802a00:	294b883a 	add	r5,r5,r5
 a802a04:	1085883a 	add	r2,r2,r2
 a802a08:	293ffa36 	bltu	r5,r4,a8029f4 <udivmodsi4+0x18>
 a802a0c:	10000d26 	beq	r2,zero,a802a44 <udivmodsi4+0x68>
 a802a10:	0007883a 	mov	r3,zero
 a802a14:	21400236 	bltu	r4,r5,a802a20 <udivmodsi4+0x44>
 a802a18:	2149c83a 	sub	r4,r4,r5
 a802a1c:	1886b03a 	or	r3,r3,r2
 a802a20:	1004d07a 	srli	r2,r2,1
 a802a24:	280ad07a 	srli	r5,r5,1
 a802a28:	103ffa1e 	bne	r2,zero,a802a14 <udivmodsi4+0x38>
 a802a2c:	30000226 	beq	r6,zero,a802a38 <udivmodsi4+0x5c>
 a802a30:	2005883a 	mov	r2,r4
 a802a34:	f800283a 	ret
 a802a38:	1809883a 	mov	r4,r3
 a802a3c:	2005883a 	mov	r2,r4
 a802a40:	f800283a 	ret
 a802a44:	0007883a 	mov	r3,zero
 a802a48:	003ff806 	br	a802a2c <udivmodsi4+0x50>
 a802a4c:	00800044 	movi	r2,1
 a802a50:	0007883a 	mov	r3,zero
 a802a54:	003fef06 	br	a802a14 <udivmodsi4+0x38>

0a802a58 <__divsi3>:
 a802a58:	defffe04 	addi	sp,sp,-8
 a802a5c:	dc000015 	stw	r16,0(sp)
 a802a60:	dfc00115 	stw	ra,4(sp)
 a802a64:	0021883a 	mov	r16,zero
 a802a68:	20000c16 	blt	r4,zero,a802a9c <__divsi3+0x44>
 a802a6c:	000d883a 	mov	r6,zero
 a802a70:	28000e16 	blt	r5,zero,a802aac <__divsi3+0x54>
 a802a74:	a8029dc0 	call	a8029dc <udivmodsi4>
 a802a78:	1007883a 	mov	r3,r2
 a802a7c:	8005003a 	cmpeq	r2,r16,zero
 a802a80:	1000011e 	bne	r2,zero,a802a88 <__divsi3+0x30>
 a802a84:	00c7c83a 	sub	r3,zero,r3
 a802a88:	1805883a 	mov	r2,r3
 a802a8c:	dfc00117 	ldw	ra,4(sp)
 a802a90:	dc000017 	ldw	r16,0(sp)
 a802a94:	dec00204 	addi	sp,sp,8
 a802a98:	f800283a 	ret
 a802a9c:	0109c83a 	sub	r4,zero,r4
 a802aa0:	04000044 	movi	r16,1
 a802aa4:	000d883a 	mov	r6,zero
 a802aa8:	283ff20e 	bge	r5,zero,a802a74 <__divsi3+0x1c>
 a802aac:	014bc83a 	sub	r5,zero,r5
 a802ab0:	8021003a 	cmpeq	r16,r16,zero
 a802ab4:	003fef06 	br	a802a74 <__divsi3+0x1c>

0a802ab8 <__modsi3>:
 a802ab8:	deffff04 	addi	sp,sp,-4
 a802abc:	dfc00015 	stw	ra,0(sp)
 a802ac0:	01800044 	movi	r6,1
 a802ac4:	2807883a 	mov	r3,r5
 a802ac8:	20000416 	blt	r4,zero,a802adc <__modsi3+0x24>
 a802acc:	28000c16 	blt	r5,zero,a802b00 <__modsi3+0x48>
 a802ad0:	dfc00017 	ldw	ra,0(sp)
 a802ad4:	dec00104 	addi	sp,sp,4
 a802ad8:	a8029dc1 	jmpi	a8029dc <udivmodsi4>
 a802adc:	0109c83a 	sub	r4,zero,r4
 a802ae0:	28000b16 	blt	r5,zero,a802b10 <__modsi3+0x58>
 a802ae4:	180b883a 	mov	r5,r3
 a802ae8:	01800044 	movi	r6,1
 a802aec:	a8029dc0 	call	a8029dc <udivmodsi4>
 a802af0:	0085c83a 	sub	r2,zero,r2
 a802af4:	dfc00017 	ldw	ra,0(sp)
 a802af8:	dec00104 	addi	sp,sp,4
 a802afc:	f800283a 	ret
 a802b00:	014bc83a 	sub	r5,zero,r5
 a802b04:	dfc00017 	ldw	ra,0(sp)
 a802b08:	dec00104 	addi	sp,sp,4
 a802b0c:	a8029dc1 	jmpi	a8029dc <udivmodsi4>
 a802b10:	0147c83a 	sub	r3,zero,r5
 a802b14:	003ff306 	br	a802ae4 <__modsi3+0x2c>

0a802b18 <__udivsi3>:
 a802b18:	000d883a 	mov	r6,zero
 a802b1c:	a8029dc1 	jmpi	a8029dc <udivmodsi4>

0a802b20 <__umodsi3>:
 a802b20:	01800044 	movi	r6,1
 a802b24:	a8029dc1 	jmpi	a8029dc <udivmodsi4>

0a802b28 <_fclose_r>:
 a802b28:	defffc04 	addi	sp,sp,-16
 a802b2c:	dc400115 	stw	r17,4(sp)
 a802b30:	dc000015 	stw	r16,0(sp)
 a802b34:	dfc00315 	stw	ra,12(sp)
 a802b38:	dc800215 	stw	r18,8(sp)
 a802b3c:	2821883a 	mov	r16,r5
 a802b40:	2023883a 	mov	r17,r4
 a802b44:	28002926 	beq	r5,zero,a802bec <_fclose_r+0xc4>
 a802b48:	a802ed40 	call	a802ed4 <__sfp_lock_acquire>
 a802b4c:	88000226 	beq	r17,zero,a802b58 <_fclose_r+0x30>
 a802b50:	88800e17 	ldw	r2,56(r17)
 a802b54:	10002d26 	beq	r2,zero,a802c0c <_fclose_r+0xe4>
 a802b58:	8080030f 	ldh	r2,12(r16)
 a802b5c:	10002226 	beq	r2,zero,a802be8 <_fclose_r+0xc0>
 a802b60:	8809883a 	mov	r4,r17
 a802b64:	800b883a 	mov	r5,r16
 a802b68:	a802c4c0 	call	a802c4c <_fflush_r>
 a802b6c:	1025883a 	mov	r18,r2
 a802b70:	80800b17 	ldw	r2,44(r16)
 a802b74:	10000426 	beq	r2,zero,a802b88 <_fclose_r+0x60>
 a802b78:	81400717 	ldw	r5,28(r16)
 a802b7c:	8809883a 	mov	r4,r17
 a802b80:	103ee83a 	callr	r2
 a802b84:	10002a16 	blt	r2,zero,a802c30 <_fclose_r+0x108>
 a802b88:	8080030b 	ldhu	r2,12(r16)
 a802b8c:	1080200c 	andi	r2,r2,128
 a802b90:	1000231e 	bne	r2,zero,a802c20 <_fclose_r+0xf8>
 a802b94:	81400c17 	ldw	r5,48(r16)
 a802b98:	28000526 	beq	r5,zero,a802bb0 <_fclose_r+0x88>
 a802b9c:	80801004 	addi	r2,r16,64
 a802ba0:	28800226 	beq	r5,r2,a802bac <_fclose_r+0x84>
 a802ba4:	8809883a 	mov	r4,r17
 a802ba8:	a8033780 	call	a803378 <_free_r>
 a802bac:	80000c15 	stw	zero,48(r16)
 a802bb0:	81401117 	ldw	r5,68(r16)
 a802bb4:	28000326 	beq	r5,zero,a802bc4 <_fclose_r+0x9c>
 a802bb8:	8809883a 	mov	r4,r17
 a802bbc:	a8033780 	call	a803378 <_free_r>
 a802bc0:	80001115 	stw	zero,68(r16)
 a802bc4:	8000030d 	sth	zero,12(r16)
 a802bc8:	a802ed80 	call	a802ed8 <__sfp_lock_release>
 a802bcc:	9005883a 	mov	r2,r18
 a802bd0:	dfc00317 	ldw	ra,12(sp)
 a802bd4:	dc800217 	ldw	r18,8(sp)
 a802bd8:	dc400117 	ldw	r17,4(sp)
 a802bdc:	dc000017 	ldw	r16,0(sp)
 a802be0:	dec00404 	addi	sp,sp,16
 a802be4:	f800283a 	ret
 a802be8:	a802ed80 	call	a802ed8 <__sfp_lock_release>
 a802bec:	0025883a 	mov	r18,zero
 a802bf0:	9005883a 	mov	r2,r18
 a802bf4:	dfc00317 	ldw	ra,12(sp)
 a802bf8:	dc800217 	ldw	r18,8(sp)
 a802bfc:	dc400117 	ldw	r17,4(sp)
 a802c00:	dc000017 	ldw	r16,0(sp)
 a802c04:	dec00404 	addi	sp,sp,16
 a802c08:	f800283a 	ret
 a802c0c:	8809883a 	mov	r4,r17
 a802c10:	a802ee40 	call	a802ee4 <__sinit>
 a802c14:	8080030f 	ldh	r2,12(r16)
 a802c18:	103fd11e 	bne	r2,zero,a802b60 <_fclose_r+0x38>
 a802c1c:	003ff206 	br	a802be8 <_fclose_r+0xc0>
 a802c20:	81400417 	ldw	r5,16(r16)
 a802c24:	8809883a 	mov	r4,r17
 a802c28:	a8033780 	call	a803378 <_free_r>
 a802c2c:	003fd906 	br	a802b94 <_fclose_r+0x6c>
 a802c30:	04bfffc4 	movi	r18,-1
 a802c34:	003fd406 	br	a802b88 <_fclose_r+0x60>

0a802c38 <fclose>:
 a802c38:	0082a074 	movhi	r2,2689
 a802c3c:	10977204 	addi	r2,r2,24008
 a802c40:	200b883a 	mov	r5,r4
 a802c44:	11000017 	ldw	r4,0(r2)
 a802c48:	a802b281 	jmpi	a802b28 <_fclose_r>

0a802c4c <_fflush_r>:
 a802c4c:	defffb04 	addi	sp,sp,-20
 a802c50:	dcc00315 	stw	r19,12(sp)
 a802c54:	dc800215 	stw	r18,8(sp)
 a802c58:	dfc00415 	stw	ra,16(sp)
 a802c5c:	dc400115 	stw	r17,4(sp)
 a802c60:	dc000015 	stw	r16,0(sp)
 a802c64:	2027883a 	mov	r19,r4
 a802c68:	2825883a 	mov	r18,r5
 a802c6c:	20000226 	beq	r4,zero,a802c78 <_fflush_r+0x2c>
 a802c70:	20800e17 	ldw	r2,56(r4)
 a802c74:	10005626 	beq	r2,zero,a802dd0 <_fflush_r+0x184>
 a802c78:	9100030b 	ldhu	r4,12(r18)
 a802c7c:	20ffffcc 	andi	r3,r4,65535
 a802c80:	18e0001c 	xori	r3,r3,32768
 a802c84:	18e00004 	addi	r3,r3,-32768
 a802c88:	1880020c 	andi	r2,r3,8
 a802c8c:	1000261e 	bne	r2,zero,a802d28 <_fflush_r+0xdc>
 a802c90:	90c00117 	ldw	r3,4(r18)
 a802c94:	20820014 	ori	r2,r4,2048
 a802c98:	9080030d 	sth	r2,12(r18)
 a802c9c:	1009883a 	mov	r4,r2
 a802ca0:	00c0400e 	bge	zero,r3,a802da4 <_fflush_r+0x158>
 a802ca4:	92000a17 	ldw	r8,40(r18)
 a802ca8:	40004026 	beq	r8,zero,a802dac <_fflush_r+0x160>
 a802cac:	2084000c 	andi	r2,r4,4096
 a802cb0:	10005326 	beq	r2,zero,a802e00 <_fflush_r+0x1b4>
 a802cb4:	94001417 	ldw	r16,80(r18)
 a802cb8:	9080030b 	ldhu	r2,12(r18)
 a802cbc:	1080010c 	andi	r2,r2,4
 a802cc0:	1000481e 	bne	r2,zero,a802de4 <_fflush_r+0x198>
 a802cc4:	91400717 	ldw	r5,28(r18)
 a802cc8:	9809883a 	mov	r4,r19
 a802ccc:	800d883a 	mov	r6,r16
 a802cd0:	000f883a 	mov	r7,zero
 a802cd4:	403ee83a 	callr	r8
 a802cd8:	8080261e 	bne	r16,r2,a802d74 <_fflush_r+0x128>
 a802cdc:	9080030b 	ldhu	r2,12(r18)
 a802ce0:	91000417 	ldw	r4,16(r18)
 a802ce4:	90000115 	stw	zero,4(r18)
 a802ce8:	10bdffcc 	andi	r2,r2,63487
 a802cec:	10ffffcc 	andi	r3,r2,65535
 a802cf0:	18c4000c 	andi	r3,r3,4096
 a802cf4:	9080030d 	sth	r2,12(r18)
 a802cf8:	91000015 	stw	r4,0(r18)
 a802cfc:	18002b26 	beq	r3,zero,a802dac <_fflush_r+0x160>
 a802d00:	0007883a 	mov	r3,zero
 a802d04:	1805883a 	mov	r2,r3
 a802d08:	94001415 	stw	r16,80(r18)
 a802d0c:	dfc00417 	ldw	ra,16(sp)
 a802d10:	dcc00317 	ldw	r19,12(sp)
 a802d14:	dc800217 	ldw	r18,8(sp)
 a802d18:	dc400117 	ldw	r17,4(sp)
 a802d1c:	dc000017 	ldw	r16,0(sp)
 a802d20:	dec00504 	addi	sp,sp,20
 a802d24:	f800283a 	ret
 a802d28:	94400417 	ldw	r17,16(r18)
 a802d2c:	88001f26 	beq	r17,zero,a802dac <_fflush_r+0x160>
 a802d30:	90800017 	ldw	r2,0(r18)
 a802d34:	18c000cc 	andi	r3,r3,3
 a802d38:	94400015 	stw	r17,0(r18)
 a802d3c:	1461c83a 	sub	r16,r2,r17
 a802d40:	18002526 	beq	r3,zero,a802dd8 <_fflush_r+0x18c>
 a802d44:	0005883a 	mov	r2,zero
 a802d48:	90800215 	stw	r2,8(r18)
 a802d4c:	0400170e 	bge	zero,r16,a802dac <_fflush_r+0x160>
 a802d50:	90c00917 	ldw	r3,36(r18)
 a802d54:	91400717 	ldw	r5,28(r18)
 a802d58:	880d883a 	mov	r6,r17
 a802d5c:	800f883a 	mov	r7,r16
 a802d60:	9809883a 	mov	r4,r19
 a802d64:	183ee83a 	callr	r3
 a802d68:	88a3883a 	add	r17,r17,r2
 a802d6c:	80a1c83a 	sub	r16,r16,r2
 a802d70:	00bff616 	blt	zero,r2,a802d4c <_fflush_r+0x100>
 a802d74:	9080030b 	ldhu	r2,12(r18)
 a802d78:	00ffffc4 	movi	r3,-1
 a802d7c:	10801014 	ori	r2,r2,64
 a802d80:	9080030d 	sth	r2,12(r18)
 a802d84:	1805883a 	mov	r2,r3
 a802d88:	dfc00417 	ldw	ra,16(sp)
 a802d8c:	dcc00317 	ldw	r19,12(sp)
 a802d90:	dc800217 	ldw	r18,8(sp)
 a802d94:	dc400117 	ldw	r17,4(sp)
 a802d98:	dc000017 	ldw	r16,0(sp)
 a802d9c:	dec00504 	addi	sp,sp,20
 a802da0:	f800283a 	ret
 a802da4:	90800f17 	ldw	r2,60(r18)
 a802da8:	00bfbe16 	blt	zero,r2,a802ca4 <_fflush_r+0x58>
 a802dac:	0007883a 	mov	r3,zero
 a802db0:	1805883a 	mov	r2,r3
 a802db4:	dfc00417 	ldw	ra,16(sp)
 a802db8:	dcc00317 	ldw	r19,12(sp)
 a802dbc:	dc800217 	ldw	r18,8(sp)
 a802dc0:	dc400117 	ldw	r17,4(sp)
 a802dc4:	dc000017 	ldw	r16,0(sp)
 a802dc8:	dec00504 	addi	sp,sp,20
 a802dcc:	f800283a 	ret
 a802dd0:	a802ee40 	call	a802ee4 <__sinit>
 a802dd4:	003fa806 	br	a802c78 <_fflush_r+0x2c>
 a802dd8:	90800517 	ldw	r2,20(r18)
 a802ddc:	90800215 	stw	r2,8(r18)
 a802de0:	003fda06 	br	a802d4c <_fflush_r+0x100>
 a802de4:	90800117 	ldw	r2,4(r18)
 a802de8:	90c00c17 	ldw	r3,48(r18)
 a802dec:	80a1c83a 	sub	r16,r16,r2
 a802df0:	183fb426 	beq	r3,zero,a802cc4 <_fflush_r+0x78>
 a802df4:	90800f17 	ldw	r2,60(r18)
 a802df8:	80a1c83a 	sub	r16,r16,r2
 a802dfc:	003fb106 	br	a802cc4 <_fflush_r+0x78>
 a802e00:	91400717 	ldw	r5,28(r18)
 a802e04:	9809883a 	mov	r4,r19
 a802e08:	000d883a 	mov	r6,zero
 a802e0c:	01c00044 	movi	r7,1
 a802e10:	403ee83a 	callr	r8
 a802e14:	1021883a 	mov	r16,r2
 a802e18:	00bfffc4 	movi	r2,-1
 a802e1c:	80800226 	beq	r16,r2,a802e28 <_fflush_r+0x1dc>
 a802e20:	92000a17 	ldw	r8,40(r18)
 a802e24:	003fa406 	br	a802cb8 <_fflush_r+0x6c>
 a802e28:	98c00017 	ldw	r3,0(r19)
 a802e2c:	00800744 	movi	r2,29
 a802e30:	18bfde26 	beq	r3,r2,a802dac <_fflush_r+0x160>
 a802e34:	9080030b 	ldhu	r2,12(r18)
 a802e38:	8007883a 	mov	r3,r16
 a802e3c:	10801014 	ori	r2,r2,64
 a802e40:	9080030d 	sth	r2,12(r18)
 a802e44:	003fcf06 	br	a802d84 <_fflush_r+0x138>

0a802e48 <fflush>:
 a802e48:	0142a034 	movhi	r5,2688
 a802e4c:	294b1304 	addi	r5,r5,11340
 a802e50:	2007883a 	mov	r3,r4
 a802e54:	20000526 	beq	r4,zero,a802e6c <fflush+0x24>
 a802e58:	0082a074 	movhi	r2,2689
 a802e5c:	10977204 	addi	r2,r2,24008
 a802e60:	11000017 	ldw	r4,0(r2)
 a802e64:	180b883a 	mov	r5,r3
 a802e68:	a802c4c1 	jmpi	a802c4c <_fflush_r>
 a802e6c:	0082a074 	movhi	r2,2689
 a802e70:	10977304 	addi	r2,r2,24012
 a802e74:	11000017 	ldw	r4,0(r2)
 a802e78:	a803b601 	jmpi	a803b60 <_fwalk_reent>

0a802e7c <std>:
 a802e7c:	0082a034 	movhi	r2,2688
 a802e80:	1092fc04 	addi	r2,r2,19440
 a802e84:	20800b15 	stw	r2,44(r4)
 a802e88:	0082a034 	movhi	r2,2688
 a802e8c:	10933704 	addi	r2,r2,19676
 a802e90:	20800815 	stw	r2,32(r4)
 a802e94:	00c2a034 	movhi	r3,2688
 a802e98:	18d31804 	addi	r3,r3,19552
 a802e9c:	0082a034 	movhi	r2,2688
 a802ea0:	1092fe04 	addi	r2,r2,19448
 a802ea4:	2140030d 	sth	r5,12(r4)
 a802ea8:	2180038d 	sth	r6,14(r4)
 a802eac:	20c00915 	stw	r3,36(r4)
 a802eb0:	20800a15 	stw	r2,40(r4)
 a802eb4:	20000015 	stw	zero,0(r4)
 a802eb8:	20000115 	stw	zero,4(r4)
 a802ebc:	20000215 	stw	zero,8(r4)
 a802ec0:	20000415 	stw	zero,16(r4)
 a802ec4:	20000515 	stw	zero,20(r4)
 a802ec8:	20000615 	stw	zero,24(r4)
 a802ecc:	21000715 	stw	r4,28(r4)
 a802ed0:	f800283a 	ret

0a802ed4 <__sfp_lock_acquire>:
 a802ed4:	f800283a 	ret

0a802ed8 <__sfp_lock_release>:
 a802ed8:	f800283a 	ret

0a802edc <__sinit_lock_acquire>:
 a802edc:	f800283a 	ret

0a802ee0 <__sinit_lock_release>:
 a802ee0:	f800283a 	ret

0a802ee4 <__sinit>:
 a802ee4:	20800e17 	ldw	r2,56(r4)
 a802ee8:	defffd04 	addi	sp,sp,-12
 a802eec:	dc400115 	stw	r17,4(sp)
 a802ef0:	dc000015 	stw	r16,0(sp)
 a802ef4:	dfc00215 	stw	ra,8(sp)
 a802ef8:	04400044 	movi	r17,1
 a802efc:	01400104 	movi	r5,4
 a802f00:	000d883a 	mov	r6,zero
 a802f04:	2021883a 	mov	r16,r4
 a802f08:	2200bb04 	addi	r8,r4,748
 a802f0c:	200f883a 	mov	r7,r4
 a802f10:	10000526 	beq	r2,zero,a802f28 <__sinit+0x44>
 a802f14:	dfc00217 	ldw	ra,8(sp)
 a802f18:	dc400117 	ldw	r17,4(sp)
 a802f1c:	dc000017 	ldw	r16,0(sp)
 a802f20:	dec00304 	addi	sp,sp,12
 a802f24:	f800283a 	ret
 a802f28:	21000117 	ldw	r4,4(r4)
 a802f2c:	0082a034 	movhi	r2,2688
 a802f30:	108bf204 	addi	r2,r2,12232
 a802f34:	00c000c4 	movi	r3,3
 a802f38:	80800f15 	stw	r2,60(r16)
 a802f3c:	80c0b915 	stw	r3,740(r16)
 a802f40:	8200ba15 	stw	r8,744(r16)
 a802f44:	84400e15 	stw	r17,56(r16)
 a802f48:	8000b815 	stw	zero,736(r16)
 a802f4c:	a802e7c0 	call	a802e7c <std>
 a802f50:	81000217 	ldw	r4,8(r16)
 a802f54:	880d883a 	mov	r6,r17
 a802f58:	800f883a 	mov	r7,r16
 a802f5c:	01400284 	movi	r5,10
 a802f60:	a802e7c0 	call	a802e7c <std>
 a802f64:	81000317 	ldw	r4,12(r16)
 a802f68:	800f883a 	mov	r7,r16
 a802f6c:	01400484 	movi	r5,18
 a802f70:	01800084 	movi	r6,2
 a802f74:	dfc00217 	ldw	ra,8(sp)
 a802f78:	dc400117 	ldw	r17,4(sp)
 a802f7c:	dc000017 	ldw	r16,0(sp)
 a802f80:	dec00304 	addi	sp,sp,12
 a802f84:	a802e7c1 	jmpi	a802e7c <std>

0a802f88 <__fp_lock>:
 a802f88:	0005883a 	mov	r2,zero
 a802f8c:	f800283a 	ret

0a802f90 <__fp_unlock>:
 a802f90:	0005883a 	mov	r2,zero
 a802f94:	f800283a 	ret

0a802f98 <__fp_unlock_all>:
 a802f98:	0082a074 	movhi	r2,2689
 a802f9c:	10977204 	addi	r2,r2,24008
 a802fa0:	11000017 	ldw	r4,0(r2)
 a802fa4:	0142a034 	movhi	r5,2688
 a802fa8:	294be404 	addi	r5,r5,12176
 a802fac:	a803c281 	jmpi	a803c28 <_fwalk>

0a802fb0 <__fp_lock_all>:
 a802fb0:	0082a074 	movhi	r2,2689
 a802fb4:	10977204 	addi	r2,r2,24008
 a802fb8:	11000017 	ldw	r4,0(r2)
 a802fbc:	0142a034 	movhi	r5,2688
 a802fc0:	294be204 	addi	r5,r5,12168
 a802fc4:	a803c281 	jmpi	a803c28 <_fwalk>

0a802fc8 <_cleanup_r>:
 a802fc8:	0142a034 	movhi	r5,2688
 a802fcc:	294b0e04 	addi	r5,r5,11320
 a802fd0:	a803c281 	jmpi	a803c28 <_fwalk>

0a802fd4 <_cleanup>:
 a802fd4:	0082a074 	movhi	r2,2689
 a802fd8:	10977304 	addi	r2,r2,24012
 a802fdc:	11000017 	ldw	r4,0(r2)
 a802fe0:	a802fc81 	jmpi	a802fc8 <_cleanup_r>

0a802fe4 <__sfmoreglue>:
 a802fe4:	defffc04 	addi	sp,sp,-16
 a802fe8:	dc400115 	stw	r17,4(sp)
 a802fec:	2c401724 	muli	r17,r5,92
 a802ff0:	dc800215 	stw	r18,8(sp)
 a802ff4:	2825883a 	mov	r18,r5
 a802ff8:	89400304 	addi	r5,r17,12
 a802ffc:	dc000015 	stw	r16,0(sp)
 a803000:	dfc00315 	stw	ra,12(sp)
 a803004:	a803f500 	call	a803f50 <_malloc_r>
 a803008:	0021883a 	mov	r16,zero
 a80300c:	880d883a 	mov	r6,r17
 a803010:	000b883a 	mov	r5,zero
 a803014:	10000626 	beq	r2,zero,a803030 <__sfmoreglue+0x4c>
 a803018:	11000304 	addi	r4,r2,12
 a80301c:	14800115 	stw	r18,4(r2)
 a803020:	10000015 	stw	zero,0(r2)
 a803024:	11000215 	stw	r4,8(r2)
 a803028:	1021883a 	mov	r16,r2
 a80302c:	a8046900 	call	a804690 <memset>
 a803030:	8005883a 	mov	r2,r16
 a803034:	dfc00317 	ldw	ra,12(sp)
 a803038:	dc800217 	ldw	r18,8(sp)
 a80303c:	dc400117 	ldw	r17,4(sp)
 a803040:	dc000017 	ldw	r16,0(sp)
 a803044:	dec00404 	addi	sp,sp,16
 a803048:	f800283a 	ret

0a80304c <__sfp>:
 a80304c:	defffd04 	addi	sp,sp,-12
 a803050:	0082a074 	movhi	r2,2689
 a803054:	10977304 	addi	r2,r2,24012
 a803058:	dc000015 	stw	r16,0(sp)
 a80305c:	14000017 	ldw	r16,0(r2)
 a803060:	dc400115 	stw	r17,4(sp)
 a803064:	dfc00215 	stw	ra,8(sp)
 a803068:	80800e17 	ldw	r2,56(r16)
 a80306c:	2023883a 	mov	r17,r4
 a803070:	10002626 	beq	r2,zero,a80310c <__sfp+0xc0>
 a803074:	8400b804 	addi	r16,r16,736
 a803078:	80800117 	ldw	r2,4(r16)
 a80307c:	81000217 	ldw	r4,8(r16)
 a803080:	10ffffc4 	addi	r3,r2,-1
 a803084:	18000916 	blt	r3,zero,a8030ac <__sfp+0x60>
 a803088:	2080030f 	ldh	r2,12(r4)
 a80308c:	10000b26 	beq	r2,zero,a8030bc <__sfp+0x70>
 a803090:	017fffc4 	movi	r5,-1
 a803094:	00000206 	br	a8030a0 <__sfp+0x54>
 a803098:	2080030f 	ldh	r2,12(r4)
 a80309c:	10000726 	beq	r2,zero,a8030bc <__sfp+0x70>
 a8030a0:	18ffffc4 	addi	r3,r3,-1
 a8030a4:	21001704 	addi	r4,r4,92
 a8030a8:	197ffb1e 	bne	r3,r5,a803098 <__sfp+0x4c>
 a8030ac:	80800017 	ldw	r2,0(r16)
 a8030b0:	10001926 	beq	r2,zero,a803118 <__sfp+0xcc>
 a8030b4:	1021883a 	mov	r16,r2
 a8030b8:	003fef06 	br	a803078 <__sfp+0x2c>
 a8030bc:	00bfffc4 	movi	r2,-1
 a8030c0:	00c00044 	movi	r3,1
 a8030c4:	2080038d 	sth	r2,14(r4)
 a8030c8:	20c0030d 	sth	r3,12(r4)
 a8030cc:	20000015 	stw	zero,0(r4)
 a8030d0:	20000215 	stw	zero,8(r4)
 a8030d4:	20000115 	stw	zero,4(r4)
 a8030d8:	20000415 	stw	zero,16(r4)
 a8030dc:	20000515 	stw	zero,20(r4)
 a8030e0:	20000615 	stw	zero,24(r4)
 a8030e4:	20000c15 	stw	zero,48(r4)
 a8030e8:	20000d15 	stw	zero,52(r4)
 a8030ec:	20001115 	stw	zero,68(r4)
 a8030f0:	20001215 	stw	zero,72(r4)
 a8030f4:	2005883a 	mov	r2,r4
 a8030f8:	dfc00217 	ldw	ra,8(sp)
 a8030fc:	dc400117 	ldw	r17,4(sp)
 a803100:	dc000017 	ldw	r16,0(sp)
 a803104:	dec00304 	addi	sp,sp,12
 a803108:	f800283a 	ret
 a80310c:	8009883a 	mov	r4,r16
 a803110:	a802ee40 	call	a802ee4 <__sinit>
 a803114:	003fd706 	br	a803074 <__sfp+0x28>
 a803118:	8809883a 	mov	r4,r17
 a80311c:	01400104 	movi	r5,4
 a803120:	a802fe40 	call	a802fe4 <__sfmoreglue>
 a803124:	80800015 	stw	r2,0(r16)
 a803128:	103fe21e 	bne	r2,zero,a8030b4 <__sfp+0x68>
 a80312c:	00800304 	movi	r2,12
 a803130:	0009883a 	mov	r4,zero
 a803134:	88800015 	stw	r2,0(r17)
 a803138:	003fee06 	br	a8030f4 <__sfp+0xa8>

0a80313c <_fopen_r>:
 a80313c:	defffa04 	addi	sp,sp,-24
 a803140:	dcc00415 	stw	r19,16(sp)
 a803144:	2827883a 	mov	r19,r5
 a803148:	300b883a 	mov	r5,r6
 a80314c:	d80d883a 	mov	r6,sp
 a803150:	dc800315 	stw	r18,12(sp)
 a803154:	dc400215 	stw	r17,8(sp)
 a803158:	dc000115 	stw	r16,4(sp)
 a80315c:	dfc00515 	stw	ra,20(sp)
 a803160:	2021883a 	mov	r16,r4
 a803164:	a8087bc0 	call	a8087bc <__sflags>
 a803168:	1025883a 	mov	r18,r2
 a80316c:	8009883a 	mov	r4,r16
 a803170:	0023883a 	mov	r17,zero
 a803174:	1000081e 	bne	r2,zero,a803198 <_fopen_r+0x5c>
 a803178:	8805883a 	mov	r2,r17
 a80317c:	dfc00517 	ldw	ra,20(sp)
 a803180:	dcc00417 	ldw	r19,16(sp)
 a803184:	dc800317 	ldw	r18,12(sp)
 a803188:	dc400217 	ldw	r17,8(sp)
 a80318c:	dc000117 	ldw	r16,4(sp)
 a803190:	dec00604 	addi	sp,sp,24
 a803194:	f800283a 	ret
 a803198:	a80304c0 	call	a80304c <__sfp>
 a80319c:	1023883a 	mov	r17,r2
 a8031a0:	980b883a 	mov	r5,r19
 a8031a4:	8009883a 	mov	r4,r16
 a8031a8:	01c06d84 	movi	r7,438
 a8031ac:	103ff226 	beq	r2,zero,a803178 <_fopen_r+0x3c>
 a8031b0:	d9800017 	ldw	r6,0(sp)
 a8031b4:	a8047280 	call	a804728 <_open_r>
 a8031b8:	10001816 	blt	r2,zero,a80321c <_fopen_r+0xe0>
 a8031bc:	00c2a034 	movhi	r3,2688
 a8031c0:	18d31804 	addi	r3,r3,19552
 a8031c4:	923fffcc 	andi	r8,r18,65535
 a8031c8:	8880038d 	sth	r2,14(r17)
 a8031cc:	0082a034 	movhi	r2,2688
 a8031d0:	10933704 	addi	r2,r2,19676
 a8031d4:	88800815 	stw	r2,32(r17)
 a8031d8:	88c00915 	stw	r3,36(r17)
 a8031dc:	0082a034 	movhi	r2,2688
 a8031e0:	1092fe04 	addi	r2,r2,19448
 a8031e4:	00c2a034 	movhi	r3,2688
 a8031e8:	18d2fc04 	addi	r3,r3,19440
 a8031ec:	4200400c 	andi	r8,r8,256
 a8031f0:	8c80030d 	sth	r18,12(r17)
 a8031f4:	8009883a 	mov	r4,r16
 a8031f8:	880b883a 	mov	r5,r17
 a8031fc:	000d883a 	mov	r6,zero
 a803200:	01c00084 	movi	r7,2
 a803204:	88800a15 	stw	r2,40(r17)
 a803208:	88c00b15 	stw	r3,44(r17)
 a80320c:	8c400715 	stw	r17,28(r17)
 a803210:	403fd926 	beq	r8,zero,a803178 <_fopen_r+0x3c>
 a803214:	a80368c0 	call	a80368c <_fseek_r>
 a803218:	003fd706 	br	a803178 <_fopen_r+0x3c>
 a80321c:	a802ed40 	call	a802ed4 <__sfp_lock_acquire>
 a803220:	8800030d 	sth	zero,12(r17)
 a803224:	a802ed80 	call	a802ed8 <__sfp_lock_release>
 a803228:	0023883a 	mov	r17,zero
 a80322c:	003fd206 	br	a803178 <_fopen_r+0x3c>

0a803230 <fopen>:
 a803230:	0182a074 	movhi	r6,2689
 a803234:	31977204 	addi	r6,r6,24008
 a803238:	2007883a 	mov	r3,r4
 a80323c:	31000017 	ldw	r4,0(r6)
 a803240:	280d883a 	mov	r6,r5
 a803244:	180b883a 	mov	r5,r3
 a803248:	a80313c1 	jmpi	a80313c <_fopen_r>

0a80324c <_malloc_trim_r>:
 a80324c:	defffb04 	addi	sp,sp,-20
 a803250:	dcc00315 	stw	r19,12(sp)
 a803254:	04c2a074 	movhi	r19,2689
 a803258:	9cd16d04 	addi	r19,r19,17844
 a80325c:	dc800215 	stw	r18,8(sp)
 a803260:	dc400115 	stw	r17,4(sp)
 a803264:	dc000015 	stw	r16,0(sp)
 a803268:	2823883a 	mov	r17,r5
 a80326c:	2025883a 	mov	r18,r4
 a803270:	dfc00415 	stw	ra,16(sp)
 a803274:	a80d4700 	call	a80d470 <__malloc_lock>
 a803278:	98800217 	ldw	r2,8(r19)
 a80327c:	9009883a 	mov	r4,r18
 a803280:	000b883a 	mov	r5,zero
 a803284:	10c00117 	ldw	r3,4(r2)
 a803288:	00bfff04 	movi	r2,-4
 a80328c:	18a0703a 	and	r16,r3,r2
 a803290:	8463c83a 	sub	r17,r16,r17
 a803294:	8c43fbc4 	addi	r17,r17,4079
 a803298:	8822d33a 	srli	r17,r17,12
 a80329c:	0083ffc4 	movi	r2,4095
 a8032a0:	8c7fffc4 	addi	r17,r17,-1
 a8032a4:	8822933a 	slli	r17,r17,12
 a8032a8:	1440060e 	bge	r2,r17,a8032c4 <_malloc_trim_r+0x78>
 a8032ac:	a804aac0 	call	a804aac <_sbrk_r>
 a8032b0:	98c00217 	ldw	r3,8(r19)
 a8032b4:	9009883a 	mov	r4,r18
 a8032b8:	044bc83a 	sub	r5,zero,r17
 a8032bc:	80c7883a 	add	r3,r16,r3
 a8032c0:	10c00926 	beq	r2,r3,a8032e8 <_malloc_trim_r+0x9c>
 a8032c4:	a80d4900 	call	a80d490 <__malloc_unlock>
 a8032c8:	0005883a 	mov	r2,zero
 a8032cc:	dfc00417 	ldw	ra,16(sp)
 a8032d0:	dcc00317 	ldw	r19,12(sp)
 a8032d4:	dc800217 	ldw	r18,8(sp)
 a8032d8:	dc400117 	ldw	r17,4(sp)
 a8032dc:	dc000017 	ldw	r16,0(sp)
 a8032e0:	dec00504 	addi	sp,sp,20
 a8032e4:	f800283a 	ret
 a8032e8:	9009883a 	mov	r4,r18
 a8032ec:	a804aac0 	call	a804aac <_sbrk_r>
 a8032f0:	844dc83a 	sub	r6,r16,r17
 a8032f4:	00ffffc4 	movi	r3,-1
 a8032f8:	9009883a 	mov	r4,r18
 a8032fc:	000b883a 	mov	r5,zero
 a803300:	01c2a074 	movhi	r7,2689
 a803304:	39debe04 	addi	r7,r7,31480
 a803308:	31800054 	ori	r6,r6,1
 a80330c:	10c00926 	beq	r2,r3,a803334 <_malloc_trim_r+0xe8>
 a803310:	38800017 	ldw	r2,0(r7)
 a803314:	98c00217 	ldw	r3,8(r19)
 a803318:	9009883a 	mov	r4,r18
 a80331c:	1445c83a 	sub	r2,r2,r17
 a803320:	38800015 	stw	r2,0(r7)
 a803324:	19800115 	stw	r6,4(r3)
 a803328:	a80d4900 	call	a80d490 <__malloc_unlock>
 a80332c:	00800044 	movi	r2,1
 a803330:	003fe606 	br	a8032cc <_malloc_trim_r+0x80>
 a803334:	a804aac0 	call	a804aac <_sbrk_r>
 a803338:	99800217 	ldw	r6,8(r19)
 a80333c:	100f883a 	mov	r7,r2
 a803340:	9009883a 	mov	r4,r18
 a803344:	1187c83a 	sub	r3,r2,r6
 a803348:	008003c4 	movi	r2,15
 a80334c:	19400054 	ori	r5,r3,1
 a803350:	10ffdc0e 	bge	r2,r3,a8032c4 <_malloc_trim_r+0x78>
 a803354:	0082a074 	movhi	r2,2689
 a803358:	10977504 	addi	r2,r2,24020
 a80335c:	10c00017 	ldw	r3,0(r2)
 a803360:	0082a074 	movhi	r2,2689
 a803364:	109ebe04 	addi	r2,r2,31480
 a803368:	31400115 	stw	r5,4(r6)
 a80336c:	38c7c83a 	sub	r3,r7,r3
 a803370:	10c00015 	stw	r3,0(r2)
 a803374:	003fd306 	br	a8032c4 <_malloc_trim_r+0x78>

0a803378 <_free_r>:
 a803378:	defffd04 	addi	sp,sp,-12
 a80337c:	dc400115 	stw	r17,4(sp)
 a803380:	dc000015 	stw	r16,0(sp)
 a803384:	dfc00215 	stw	ra,8(sp)
 a803388:	2821883a 	mov	r16,r5
 a80338c:	2023883a 	mov	r17,r4
 a803390:	28005a26 	beq	r5,zero,a8034fc <_free_r+0x184>
 a803394:	a80d4700 	call	a80d470 <__malloc_lock>
 a803398:	823ffe04 	addi	r8,r16,-8
 a80339c:	41400117 	ldw	r5,4(r8)
 a8033a0:	00bfff84 	movi	r2,-2
 a8033a4:	0282a074 	movhi	r10,2689
 a8033a8:	52916d04 	addi	r10,r10,17844
 a8033ac:	288e703a 	and	r7,r5,r2
 a8033b0:	41cd883a 	add	r6,r8,r7
 a8033b4:	30c00117 	ldw	r3,4(r6)
 a8033b8:	51000217 	ldw	r4,8(r10)
 a8033bc:	00bfff04 	movi	r2,-4
 a8033c0:	1892703a 	and	r9,r3,r2
 a8033c4:	5017883a 	mov	r11,r10
 a8033c8:	31006726 	beq	r6,r4,a803568 <_free_r+0x1f0>
 a8033cc:	2880004c 	andi	r2,r5,1
 a8033d0:	1005003a 	cmpeq	r2,r2,zero
 a8033d4:	32400115 	stw	r9,4(r6)
 a8033d8:	10001a1e 	bne	r2,zero,a803444 <_free_r+0xcc>
 a8033dc:	000b883a 	mov	r5,zero
 a8033e0:	3247883a 	add	r3,r6,r9
 a8033e4:	18800117 	ldw	r2,4(r3)
 a8033e8:	1080004c 	andi	r2,r2,1
 a8033ec:	1000231e 	bne	r2,zero,a80347c <_free_r+0x104>
 a8033f0:	280ac03a 	cmpne	r5,r5,zero
 a8033f4:	3a4f883a 	add	r7,r7,r9
 a8033f8:	2800451e 	bne	r5,zero,a803510 <_free_r+0x198>
 a8033fc:	31000217 	ldw	r4,8(r6)
 a803400:	0082a074 	movhi	r2,2689
 a803404:	10916f04 	addi	r2,r2,17852
 a803408:	20807b26 	beq	r4,r2,a8035f8 <_free_r+0x280>
 a80340c:	30800317 	ldw	r2,12(r6)
 a803410:	3a07883a 	add	r3,r7,r8
 a803414:	19c00015 	stw	r7,0(r3)
 a803418:	11000215 	stw	r4,8(r2)
 a80341c:	20800315 	stw	r2,12(r4)
 a803420:	38800054 	ori	r2,r7,1
 a803424:	40800115 	stw	r2,4(r8)
 a803428:	28001a26 	beq	r5,zero,a803494 <_free_r+0x11c>
 a80342c:	8809883a 	mov	r4,r17
 a803430:	dfc00217 	ldw	ra,8(sp)
 a803434:	dc400117 	ldw	r17,4(sp)
 a803438:	dc000017 	ldw	r16,0(sp)
 a80343c:	dec00304 	addi	sp,sp,12
 a803440:	a80d4901 	jmpi	a80d490 <__malloc_unlock>
 a803444:	80bffe17 	ldw	r2,-8(r16)
 a803448:	50c00204 	addi	r3,r10,8
 a80344c:	4091c83a 	sub	r8,r8,r2
 a803450:	41000217 	ldw	r4,8(r8)
 a803454:	388f883a 	add	r7,r7,r2
 a803458:	20c06126 	beq	r4,r3,a8035e0 <_free_r+0x268>
 a80345c:	40800317 	ldw	r2,12(r8)
 a803460:	3247883a 	add	r3,r6,r9
 a803464:	000b883a 	mov	r5,zero
 a803468:	11000215 	stw	r4,8(r2)
 a80346c:	20800315 	stw	r2,12(r4)
 a803470:	18800117 	ldw	r2,4(r3)
 a803474:	1080004c 	andi	r2,r2,1
 a803478:	103fdd26 	beq	r2,zero,a8033f0 <_free_r+0x78>
 a80347c:	38800054 	ori	r2,r7,1
 a803480:	3a07883a 	add	r3,r7,r8
 a803484:	280ac03a 	cmpne	r5,r5,zero
 a803488:	40800115 	stw	r2,4(r8)
 a80348c:	19c00015 	stw	r7,0(r3)
 a803490:	283fe61e 	bne	r5,zero,a80342c <_free_r+0xb4>
 a803494:	00807fc4 	movi	r2,511
 a803498:	11c01f2e 	bgeu	r2,r7,a803518 <_free_r+0x1a0>
 a80349c:	3806d27a 	srli	r3,r7,9
 a8034a0:	1800481e 	bne	r3,zero,a8035c4 <_free_r+0x24c>
 a8034a4:	3804d0fa 	srli	r2,r7,3
 a8034a8:	100690fa 	slli	r3,r2,3
 a8034ac:	1acd883a 	add	r6,r3,r11
 a8034b0:	31400217 	ldw	r5,8(r6)
 a8034b4:	31405926 	beq	r6,r5,a80361c <_free_r+0x2a4>
 a8034b8:	28800117 	ldw	r2,4(r5)
 a8034bc:	00ffff04 	movi	r3,-4
 a8034c0:	10c4703a 	and	r2,r2,r3
 a8034c4:	3880022e 	bgeu	r7,r2,a8034d0 <_free_r+0x158>
 a8034c8:	29400217 	ldw	r5,8(r5)
 a8034cc:	317ffa1e 	bne	r6,r5,a8034b8 <_free_r+0x140>
 a8034d0:	29800317 	ldw	r6,12(r5)
 a8034d4:	41800315 	stw	r6,12(r8)
 a8034d8:	41400215 	stw	r5,8(r8)
 a8034dc:	8809883a 	mov	r4,r17
 a8034e0:	2a000315 	stw	r8,12(r5)
 a8034e4:	32000215 	stw	r8,8(r6)
 a8034e8:	dfc00217 	ldw	ra,8(sp)
 a8034ec:	dc400117 	ldw	r17,4(sp)
 a8034f0:	dc000017 	ldw	r16,0(sp)
 a8034f4:	dec00304 	addi	sp,sp,12
 a8034f8:	a80d4901 	jmpi	a80d490 <__malloc_unlock>
 a8034fc:	dfc00217 	ldw	ra,8(sp)
 a803500:	dc400117 	ldw	r17,4(sp)
 a803504:	dc000017 	ldw	r16,0(sp)
 a803508:	dec00304 	addi	sp,sp,12
 a80350c:	f800283a 	ret
 a803510:	31000217 	ldw	r4,8(r6)
 a803514:	003fbd06 	br	a80340c <_free_r+0x94>
 a803518:	3806d0fa 	srli	r3,r7,3
 a80351c:	00800044 	movi	r2,1
 a803520:	51400117 	ldw	r5,4(r10)
 a803524:	180890fa 	slli	r4,r3,3
 a803528:	1807d0ba 	srai	r3,r3,2
 a80352c:	22c9883a 	add	r4,r4,r11
 a803530:	21800217 	ldw	r6,8(r4)
 a803534:	10c4983a 	sll	r2,r2,r3
 a803538:	41000315 	stw	r4,12(r8)
 a80353c:	41800215 	stw	r6,8(r8)
 a803540:	288ab03a 	or	r5,r5,r2
 a803544:	22000215 	stw	r8,8(r4)
 a803548:	8809883a 	mov	r4,r17
 a80354c:	51400115 	stw	r5,4(r10)
 a803550:	32000315 	stw	r8,12(r6)
 a803554:	dfc00217 	ldw	ra,8(sp)
 a803558:	dc400117 	ldw	r17,4(sp)
 a80355c:	dc000017 	ldw	r16,0(sp)
 a803560:	dec00304 	addi	sp,sp,12
 a803564:	a80d4901 	jmpi	a80d490 <__malloc_unlock>
 a803568:	2880004c 	andi	r2,r5,1
 a80356c:	3a4d883a 	add	r6,r7,r9
 a803570:	1000071e 	bne	r2,zero,a803590 <_free_r+0x218>
 a803574:	80bffe17 	ldw	r2,-8(r16)
 a803578:	4091c83a 	sub	r8,r8,r2
 a80357c:	41000317 	ldw	r4,12(r8)
 a803580:	40c00217 	ldw	r3,8(r8)
 a803584:	308d883a 	add	r6,r6,r2
 a803588:	20c00215 	stw	r3,8(r4)
 a80358c:	19000315 	stw	r4,12(r3)
 a803590:	0082a074 	movhi	r2,2689
 a803594:	10977404 	addi	r2,r2,24016
 a803598:	11000017 	ldw	r4,0(r2)
 a80359c:	30c00054 	ori	r3,r6,1
 a8035a0:	52000215 	stw	r8,8(r10)
 a8035a4:	40c00115 	stw	r3,4(r8)
 a8035a8:	313fa036 	bltu	r6,r4,a80342c <_free_r+0xb4>
 a8035ac:	0082a074 	movhi	r2,2689
 a8035b0:	109ea804 	addi	r2,r2,31392
 a8035b4:	11400017 	ldw	r5,0(r2)
 a8035b8:	8809883a 	mov	r4,r17
 a8035bc:	a80324c0 	call	a80324c <_malloc_trim_r>
 a8035c0:	003f9a06 	br	a80342c <_free_r+0xb4>
 a8035c4:	00800104 	movi	r2,4
 a8035c8:	10c0072e 	bgeu	r2,r3,a8035e8 <_free_r+0x270>
 a8035cc:	00800504 	movi	r2,20
 a8035d0:	10c01936 	bltu	r2,r3,a803638 <_free_r+0x2c0>
 a8035d4:	188016c4 	addi	r2,r3,91
 a8035d8:	100690fa 	slli	r3,r2,3
 a8035dc:	003fb306 	br	a8034ac <_free_r+0x134>
 a8035e0:	01400044 	movi	r5,1
 a8035e4:	003f7e06 	br	a8033e0 <_free_r+0x68>
 a8035e8:	3804d1ba 	srli	r2,r7,6
 a8035ec:	10800e04 	addi	r2,r2,56
 a8035f0:	100690fa 	slli	r3,r2,3
 a8035f4:	003fad06 	br	a8034ac <_free_r+0x134>
 a8035f8:	22000315 	stw	r8,12(r4)
 a8035fc:	22000215 	stw	r8,8(r4)
 a803600:	3a05883a 	add	r2,r7,r8
 a803604:	38c00054 	ori	r3,r7,1
 a803608:	11c00015 	stw	r7,0(r2)
 a80360c:	41000215 	stw	r4,8(r8)
 a803610:	40c00115 	stw	r3,4(r8)
 a803614:	41000315 	stw	r4,12(r8)
 a803618:	003f8406 	br	a80342c <_free_r+0xb4>
 a80361c:	1005d0ba 	srai	r2,r2,2
 a803620:	00c00044 	movi	r3,1
 a803624:	51000117 	ldw	r4,4(r10)
 a803628:	1886983a 	sll	r3,r3,r2
 a80362c:	20c8b03a 	or	r4,r4,r3
 a803630:	51000115 	stw	r4,4(r10)
 a803634:	003fa706 	br	a8034d4 <_free_r+0x15c>
 a803638:	00801504 	movi	r2,84
 a80363c:	10c00436 	bltu	r2,r3,a803650 <_free_r+0x2d8>
 a803640:	3804d33a 	srli	r2,r7,12
 a803644:	10801b84 	addi	r2,r2,110
 a803648:	100690fa 	slli	r3,r2,3
 a80364c:	003f9706 	br	a8034ac <_free_r+0x134>
 a803650:	00805504 	movi	r2,340
 a803654:	10c00436 	bltu	r2,r3,a803668 <_free_r+0x2f0>
 a803658:	3804d3fa 	srli	r2,r7,15
 a80365c:	10801dc4 	addi	r2,r2,119
 a803660:	100690fa 	slli	r3,r2,3
 a803664:	003f9106 	br	a8034ac <_free_r+0x134>
 a803668:	00815504 	movi	r2,1364
 a80366c:	10c0032e 	bgeu	r2,r3,a80367c <_free_r+0x304>
 a803670:	00801f84 	movi	r2,126
 a803674:	00c0fc04 	movi	r3,1008
 a803678:	003f8c06 	br	a8034ac <_free_r+0x134>
 a80367c:	3804d4ba 	srli	r2,r7,18
 a803680:	10801f04 	addi	r2,r2,124
 a803684:	100690fa 	slli	r3,r2,3
 a803688:	003f8806 	br	a8034ac <_free_r+0x134>

0a80368c <_fseek_r>:
 a80368c:	deffe804 	addi	sp,sp,-96
 a803690:	dd801515 	stw	r22,84(sp)
 a803694:	dcc01215 	stw	r19,72(sp)
 a803698:	dc801115 	stw	r18,68(sp)
 a80369c:	dc000f15 	stw	r16,60(sp)
 a8036a0:	dfc01715 	stw	ra,92(sp)
 a8036a4:	ddc01615 	stw	r23,88(sp)
 a8036a8:	dd401415 	stw	r21,80(sp)
 a8036ac:	dd001315 	stw	r20,76(sp)
 a8036b0:	dc401015 	stw	r17,64(sp)
 a8036b4:	2025883a 	mov	r18,r4
 a8036b8:	2821883a 	mov	r16,r5
 a8036bc:	302d883a 	mov	r22,r6
 a8036c0:	3827883a 	mov	r19,r7
 a8036c4:	20000226 	beq	r4,zero,a8036d0 <_fseek_r+0x44>
 a8036c8:	20800e17 	ldw	r2,56(r4)
 a8036cc:	10007826 	beq	r2,zero,a8038b0 <_fseek_r+0x224>
 a8036d0:	8080030b 	ldhu	r2,12(r16)
 a8036d4:	00c04204 	movi	r3,264
 a8036d8:	1080420c 	andi	r2,r2,264
 a8036dc:	10c07926 	beq	r2,r3,a8038c4 <_fseek_r+0x238>
 a8036e0:	85400a17 	ldw	r21,40(r16)
 a8036e4:	a800ea26 	beq	r21,zero,a803a90 <_fseek_r+0x404>
 a8036e8:	00800044 	movi	r2,1
 a8036ec:	98805f26 	beq	r19,r2,a80386c <_fseek_r+0x1e0>
 a8036f0:	00800084 	movi	r2,2
 a8036f4:	98801026 	beq	r19,r2,a803738 <_fseek_r+0xac>
 a8036f8:	98000f26 	beq	r19,zero,a803738 <_fseek_r+0xac>
 a8036fc:	00800584 	movi	r2,22
 a803700:	013fffc4 	movi	r4,-1
 a803704:	90800015 	stw	r2,0(r18)
 a803708:	2005883a 	mov	r2,r4
 a80370c:	dfc01717 	ldw	ra,92(sp)
 a803710:	ddc01617 	ldw	r23,88(sp)
 a803714:	dd801517 	ldw	r22,84(sp)
 a803718:	dd401417 	ldw	r21,80(sp)
 a80371c:	dd001317 	ldw	r20,76(sp)
 a803720:	dcc01217 	ldw	r19,72(sp)
 a803724:	dc801117 	ldw	r18,68(sp)
 a803728:	dc401017 	ldw	r17,64(sp)
 a80372c:	dc000f17 	ldw	r16,60(sp)
 a803730:	dec01804 	addi	sp,sp,96
 a803734:	f800283a 	ret
 a803738:	81800417 	ldw	r6,16(r16)
 a80373c:	0023883a 	mov	r17,zero
 a803740:	002f883a 	mov	r23,zero
 a803744:	3000a626 	beq	r6,zero,a8039e0 <_fseek_r+0x354>
 a803748:	8100030b 	ldhu	r4,12(r16)
 a80374c:	2082068c 	andi	r2,r4,2074
 a803750:	1000081e 	bne	r2,zero,a803774 <_fseek_r+0xe8>
 a803754:	2081000c 	andi	r2,r4,1024
 a803758:	10001b1e 	bne	r2,zero,a8037c8 <_fseek_r+0x13c>
 a80375c:	0082a034 	movhi	r2,2688
 a803760:	1092fe04 	addi	r2,r2,19448
 a803764:	a8800926 	beq	r21,r2,a80378c <_fseek_r+0x100>
 a803768:	8080030b 	ldhu	r2,12(r16)
 a80376c:	10820014 	ori	r2,r2,2048
 a803770:	8080030d 	sth	r2,12(r16)
 a803774:	9009883a 	mov	r4,r18
 a803778:	800b883a 	mov	r5,r16
 a80377c:	a802c4c0 	call	a802c4c <_fflush_r>
 a803780:	1000a326 	beq	r2,zero,a803a10 <_fseek_r+0x384>
 a803784:	013fffc4 	movi	r4,-1
 a803788:	003fdf06 	br	a803708 <_fseek_r+0x7c>
 a80378c:	8140038f 	ldh	r5,14(r16)
 a803790:	283ff516 	blt	r5,zero,a803768 <_fseek_r+0xdc>
 a803794:	9009883a 	mov	r4,r18
 a803798:	d80d883a 	mov	r6,sp
 a80379c:	a803aec0 	call	a803aec <_fstat_r>
 a8037a0:	103ff11e 	bne	r2,zero,a803768 <_fseek_r+0xdc>
 a8037a4:	d8800117 	ldw	r2,4(sp)
 a8037a8:	00e00014 	movui	r3,32768
 a8037ac:	10bc000c 	andi	r2,r2,61440
 a8037b0:	10ffed1e 	bne	r2,r3,a803768 <_fseek_r+0xdc>
 a8037b4:	80c0030b 	ldhu	r3,12(r16)
 a8037b8:	00810004 	movi	r2,1024
 a8037bc:	80801315 	stw	r2,76(r16)
 a8037c0:	1886b03a 	or	r3,r3,r2
 a8037c4:	80c0030d 	sth	r3,12(r16)
 a8037c8:	9800701e 	bne	r19,zero,a80398c <_fseek_r+0x300>
 a8037cc:	b029883a 	mov	r20,r22
 a8037d0:	b804c03a 	cmpne	r2,r23,zero
 a8037d4:	10003f1e 	bne	r2,zero,a8038d4 <_fseek_r+0x248>
 a8037d8:	8100030b 	ldhu	r4,12(r16)
 a8037dc:	2084000c 	andi	r2,r4,4096
 a8037e0:	1000a126 	beq	r2,zero,a803a68 <_fseek_r+0x3dc>
 a8037e4:	81801417 	ldw	r6,80(r16)
 a8037e8:	80c00117 	ldw	r3,4(r16)
 a8037ec:	81400c17 	ldw	r5,48(r16)
 a8037f0:	30e3c83a 	sub	r17,r6,r3
 a8037f4:	28008026 	beq	r5,zero,a8039f8 <_fseek_r+0x36c>
 a8037f8:	81c00f17 	ldw	r7,60(r16)
 a8037fc:	89e3c83a 	sub	r17,r17,r7
 a803800:	80800e17 	ldw	r2,56(r16)
 a803804:	81800417 	ldw	r6,16(r16)
 a803808:	88c7883a 	add	r3,r17,r3
 a80380c:	1185c83a 	sub	r2,r2,r6
 a803810:	11cf883a 	add	r7,r2,r7
 a803814:	1887c83a 	sub	r3,r3,r2
 a803818:	2088000c 	andi	r2,r4,8192
 a80381c:	10003e1e 	bne	r2,zero,a803918 <_fseek_r+0x28c>
 a803820:	a0c03d16 	blt	r20,r3,a803918 <_fseek_r+0x28c>
 a803824:	38c5883a 	add	r2,r7,r3
 a803828:	a0803b2e 	bgeu	r20,r2,a803918 <_fseek_r+0x28c>
 a80382c:	a0c5c83a 	sub	r2,r20,r3
 a803830:	3887c83a 	sub	r3,r7,r2
 a803834:	3085883a 	add	r2,r6,r2
 a803838:	80800015 	stw	r2,0(r16)
 a80383c:	80c00115 	stw	r3,4(r16)
 a803840:	28000526 	beq	r5,zero,a803858 <_fseek_r+0x1cc>
 a803844:	80801004 	addi	r2,r16,64
 a803848:	28800226 	beq	r5,r2,a803854 <_fseek_r+0x1c8>
 a80384c:	9009883a 	mov	r4,r18
 a803850:	a8033780 	call	a803378 <_free_r>
 a803854:	80000c15 	stw	zero,48(r16)
 a803858:	8080030b 	ldhu	r2,12(r16)
 a80385c:	0009883a 	mov	r4,zero
 a803860:	10bff7cc 	andi	r2,r2,65503
 a803864:	8080030d 	sth	r2,12(r16)
 a803868:	003fa706 	br	a803708 <_fseek_r+0x7c>
 a80386c:	9009883a 	mov	r4,r18
 a803870:	800b883a 	mov	r5,r16
 a803874:	a802c4c0 	call	a802c4c <_fflush_r>
 a803878:	8100030b 	ldhu	r4,12(r16)
 a80387c:	2084000c 	andi	r2,r4,4096
 a803880:	10008726 	beq	r2,zero,a803aa0 <_fseek_r+0x414>
 a803884:	84401417 	ldw	r17,80(r16)
 a803888:	2080010c 	andi	r2,r4,4
 a80388c:	1000171e 	bne	r2,zero,a8038ec <_fseek_r+0x260>
 a803890:	2080020c 	andi	r2,r4,8
 a803894:	10003b26 	beq	r2,zero,a803984 <_fseek_r+0x2f8>
 a803898:	80800017 	ldw	r2,0(r16)
 a80389c:	10003926 	beq	r2,zero,a803984 <_fseek_r+0x2f8>
 a8038a0:	81800417 	ldw	r6,16(r16)
 a8038a4:	1185c83a 	sub	r2,r2,r6
 a8038a8:	88a3883a 	add	r17,r17,r2
 a8038ac:	00001606 	br	a803908 <_fseek_r+0x27c>
 a8038b0:	a802ee40 	call	a802ee4 <__sinit>
 a8038b4:	8080030b 	ldhu	r2,12(r16)
 a8038b8:	00c04204 	movi	r3,264
 a8038bc:	1080420c 	andi	r2,r2,264
 a8038c0:	10ff871e 	bne	r2,r3,a8036e0 <_fseek_r+0x54>
 a8038c4:	9009883a 	mov	r4,r18
 a8038c8:	800b883a 	mov	r5,r16
 a8038cc:	a802c4c0 	call	a802c4c <_fflush_r>
 a8038d0:	003f8306 	br	a8036e0 <_fseek_r+0x54>
 a8038d4:	81400c17 	ldw	r5,48(r16)
 a8038d8:	28004526 	beq	r5,zero,a8039f0 <_fseek_r+0x364>
 a8038dc:	8100030b 	ldhu	r4,12(r16)
 a8038e0:	80c00117 	ldw	r3,4(r16)
 a8038e4:	81c00f17 	ldw	r7,60(r16)
 a8038e8:	003fc506 	br	a803800 <_fseek_r+0x174>
 a8038ec:	80c00117 	ldw	r3,4(r16)
 a8038f0:	80800c17 	ldw	r2,48(r16)
 a8038f4:	88e3c83a 	sub	r17,r17,r3
 a8038f8:	10002226 	beq	r2,zero,a803984 <_fseek_r+0x2f8>
 a8038fc:	81c00f17 	ldw	r7,60(r16)
 a803900:	81800417 	ldw	r6,16(r16)
 a803904:	89e3c83a 	sub	r17,r17,r7
 a803908:	b46d883a 	add	r22,r22,r17
 a80390c:	0027883a 	mov	r19,zero
 a803910:	05c00044 	movi	r23,1
 a803914:	003f8b06 	br	a803744 <_fseek_r+0xb8>
 a803918:	80801317 	ldw	r2,76(r16)
 a80391c:	81400717 	ldw	r5,28(r16)
 a803920:	9009883a 	mov	r4,r18
 a803924:	0085c83a 	sub	r2,zero,r2
 a803928:	a0a2703a 	and	r17,r20,r2
 a80392c:	880d883a 	mov	r6,r17
 a803930:	000f883a 	mov	r7,zero
 a803934:	a83ee83a 	callr	r21
 a803938:	00ffffc4 	movi	r3,-1
 a80393c:	10ff8d26 	beq	r2,r3,a803774 <_fseek_r+0xe8>
 a803940:	80800417 	ldw	r2,16(r16)
 a803944:	81400c17 	ldw	r5,48(r16)
 a803948:	80000115 	stw	zero,4(r16)
 a80394c:	80800015 	stw	r2,0(r16)
 a803950:	28000526 	beq	r5,zero,a803968 <_fseek_r+0x2dc>
 a803954:	80801004 	addi	r2,r16,64
 a803958:	28800226 	beq	r5,r2,a803964 <_fseek_r+0x2d8>
 a80395c:	9009883a 	mov	r4,r18
 a803960:	a8033780 	call	a803378 <_free_r>
 a803964:	80000c15 	stw	zero,48(r16)
 a803968:	8080030b 	ldhu	r2,12(r16)
 a80396c:	a463c83a 	sub	r17,r20,r17
 a803970:	10bff7cc 	andi	r2,r2,65503
 a803974:	8080030d 	sth	r2,12(r16)
 a803978:	88000c1e 	bne	r17,zero,a8039ac <_fseek_r+0x320>
 a80397c:	0009883a 	mov	r4,zero
 a803980:	003f6106 	br	a803708 <_fseek_r+0x7c>
 a803984:	81800417 	ldw	r6,16(r16)
 a803988:	003fdf06 	br	a803908 <_fseek_r+0x27c>
 a80398c:	8140038f 	ldh	r5,14(r16)
 a803990:	9009883a 	mov	r4,r18
 a803994:	d80d883a 	mov	r6,sp
 a803998:	a803aec0 	call	a803aec <_fstat_r>
 a80399c:	103f751e 	bne	r2,zero,a803774 <_fseek_r+0xe8>
 a8039a0:	d8800417 	ldw	r2,16(sp)
 a8039a4:	b0a9883a 	add	r20,r22,r2
 a8039a8:	003f8906 	br	a8037d0 <_fseek_r+0x144>
 a8039ac:	9009883a 	mov	r4,r18
 a8039b0:	800b883a 	mov	r5,r16
 a8039b4:	a8048cc0 	call	a8048cc <__srefill_r>
 a8039b8:	103f6e1e 	bne	r2,zero,a803774 <_fseek_r+0xe8>
 a8039bc:	80c00117 	ldw	r3,4(r16)
 a8039c0:	1c7f6c36 	bltu	r3,r17,a803774 <_fseek_r+0xe8>
 a8039c4:	80800017 	ldw	r2,0(r16)
 a8039c8:	1c47c83a 	sub	r3,r3,r17
 a8039cc:	0009883a 	mov	r4,zero
 a8039d0:	1445883a 	add	r2,r2,r17
 a8039d4:	80c00115 	stw	r3,4(r16)
 a8039d8:	80800015 	stw	r2,0(r16)
 a8039dc:	003f4a06 	br	a803708 <_fseek_r+0x7c>
 a8039e0:	9009883a 	mov	r4,r18
 a8039e4:	800b883a 	mov	r5,r16
 a8039e8:	a803dbc0 	call	a803dbc <__smakebuf_r>
 a8039ec:	003f5606 	br	a803748 <_fseek_r+0xbc>
 a8039f0:	8100030b 	ldhu	r4,12(r16)
 a8039f4:	80c00117 	ldw	r3,4(r16)
 a8039f8:	80800017 	ldw	r2,0(r16)
 a8039fc:	81800417 	ldw	r6,16(r16)
 a803a00:	1185c83a 	sub	r2,r2,r6
 a803a04:	10cf883a 	add	r7,r2,r3
 a803a08:	8887c83a 	sub	r3,r17,r2
 a803a0c:	003f8206 	br	a803818 <_fseek_r+0x18c>
 a803a10:	81400717 	ldw	r5,28(r16)
 a803a14:	b00d883a 	mov	r6,r22
 a803a18:	980f883a 	mov	r7,r19
 a803a1c:	9009883a 	mov	r4,r18
 a803a20:	a83ee83a 	callr	r21
 a803a24:	00ffffc4 	movi	r3,-1
 a803a28:	10ff5626 	beq	r2,r3,a803784 <_fseek_r+0xf8>
 a803a2c:	81400c17 	ldw	r5,48(r16)
 a803a30:	28000526 	beq	r5,zero,a803a48 <_fseek_r+0x3bc>
 a803a34:	80801004 	addi	r2,r16,64
 a803a38:	28800226 	beq	r5,r2,a803a44 <_fseek_r+0x3b8>
 a803a3c:	9009883a 	mov	r4,r18
 a803a40:	a8033780 	call	a803378 <_free_r>
 a803a44:	80000c15 	stw	zero,48(r16)
 a803a48:	8080030b 	ldhu	r2,12(r16)
 a803a4c:	80c00417 	ldw	r3,16(r16)
 a803a50:	0009883a 	mov	r4,zero
 a803a54:	10bdf7cc 	andi	r2,r2,63455
 a803a58:	8080030d 	sth	r2,12(r16)
 a803a5c:	80c00015 	stw	r3,0(r16)
 a803a60:	80000115 	stw	zero,4(r16)
 a803a64:	003f2806 	br	a803708 <_fseek_r+0x7c>
 a803a68:	81400717 	ldw	r5,28(r16)
 a803a6c:	000d883a 	mov	r6,zero
 a803a70:	9009883a 	mov	r4,r18
 a803a74:	01c00044 	movi	r7,1
 a803a78:	a83ee83a 	callr	r21
 a803a7c:	100d883a 	mov	r6,r2
 a803a80:	00bfffc4 	movi	r2,-1
 a803a84:	30bf3b26 	beq	r6,r2,a803774 <_fseek_r+0xe8>
 a803a88:	8100030b 	ldhu	r4,12(r16)
 a803a8c:	003f5606 	br	a8037e8 <_fseek_r+0x15c>
 a803a90:	00800744 	movi	r2,29
 a803a94:	013fffc4 	movi	r4,-1
 a803a98:	90800015 	stw	r2,0(r18)
 a803a9c:	003f1a06 	br	a803708 <_fseek_r+0x7c>
 a803aa0:	81400717 	ldw	r5,28(r16)
 a803aa4:	980f883a 	mov	r7,r19
 a803aa8:	9009883a 	mov	r4,r18
 a803aac:	000d883a 	mov	r6,zero
 a803ab0:	a83ee83a 	callr	r21
 a803ab4:	1023883a 	mov	r17,r2
 a803ab8:	00bfffc4 	movi	r2,-1
 a803abc:	88bf3126 	beq	r17,r2,a803784 <_fseek_r+0xf8>
 a803ac0:	8100030b 	ldhu	r4,12(r16)
 a803ac4:	003f7006 	br	a803888 <_fseek_r+0x1fc>

0a803ac8 <fseek>:
 a803ac8:	0082a074 	movhi	r2,2689
 a803acc:	10977204 	addi	r2,r2,24008
 a803ad0:	2013883a 	mov	r9,r4
 a803ad4:	11000017 	ldw	r4,0(r2)
 a803ad8:	2805883a 	mov	r2,r5
 a803adc:	300f883a 	mov	r7,r6
 a803ae0:	480b883a 	mov	r5,r9
 a803ae4:	100d883a 	mov	r6,r2
 a803ae8:	a80368c1 	jmpi	a80368c <_fseek_r>

0a803aec <_fstat_r>:
 a803aec:	defffd04 	addi	sp,sp,-12
 a803af0:	dc000015 	stw	r16,0(sp)
 a803af4:	0402a074 	movhi	r16,2689
 a803af8:	841ea704 	addi	r16,r16,31388
 a803afc:	dc400115 	stw	r17,4(sp)
 a803b00:	80000015 	stw	zero,0(r16)
 a803b04:	2023883a 	mov	r17,r4
 a803b08:	2809883a 	mov	r4,r5
 a803b0c:	300b883a 	mov	r5,r6
 a803b10:	dfc00215 	stw	ra,8(sp)
 a803b14:	a80cdb40 	call	a80cdb4 <fstat>
 a803b18:	1007883a 	mov	r3,r2
 a803b1c:	00bfffc4 	movi	r2,-1
 a803b20:	18800626 	beq	r3,r2,a803b3c <_fstat_r+0x50>
 a803b24:	1805883a 	mov	r2,r3
 a803b28:	dfc00217 	ldw	ra,8(sp)
 a803b2c:	dc400117 	ldw	r17,4(sp)
 a803b30:	dc000017 	ldw	r16,0(sp)
 a803b34:	dec00304 	addi	sp,sp,12
 a803b38:	f800283a 	ret
 a803b3c:	80800017 	ldw	r2,0(r16)
 a803b40:	103ff826 	beq	r2,zero,a803b24 <_fstat_r+0x38>
 a803b44:	88800015 	stw	r2,0(r17)
 a803b48:	1805883a 	mov	r2,r3
 a803b4c:	dfc00217 	ldw	ra,8(sp)
 a803b50:	dc400117 	ldw	r17,4(sp)
 a803b54:	dc000017 	ldw	r16,0(sp)
 a803b58:	dec00304 	addi	sp,sp,12
 a803b5c:	f800283a 	ret

0a803b60 <_fwalk_reent>:
 a803b60:	defff704 	addi	sp,sp,-36
 a803b64:	dcc00315 	stw	r19,12(sp)
 a803b68:	24c0b804 	addi	r19,r4,736
 a803b6c:	dd800615 	stw	r22,24(sp)
 a803b70:	dd400515 	stw	r21,20(sp)
 a803b74:	dfc00815 	stw	ra,32(sp)
 a803b78:	ddc00715 	stw	r23,28(sp)
 a803b7c:	dd000415 	stw	r20,16(sp)
 a803b80:	dc800215 	stw	r18,8(sp)
 a803b84:	dc400115 	stw	r17,4(sp)
 a803b88:	dc000015 	stw	r16,0(sp)
 a803b8c:	202b883a 	mov	r21,r4
 a803b90:	282d883a 	mov	r22,r5
 a803b94:	a802ed40 	call	a802ed4 <__sfp_lock_acquire>
 a803b98:	98002126 	beq	r19,zero,a803c20 <_fwalk_reent+0xc0>
 a803b9c:	002f883a 	mov	r23,zero
 a803ba0:	9c800117 	ldw	r18,4(r19)
 a803ba4:	9c000217 	ldw	r16,8(r19)
 a803ba8:	90bfffc4 	addi	r2,r18,-1
 a803bac:	10000d16 	blt	r2,zero,a803be4 <_fwalk_reent+0x84>
 a803bb0:	0023883a 	mov	r17,zero
 a803bb4:	053fffc4 	movi	r20,-1
 a803bb8:	8080030f 	ldh	r2,12(r16)
 a803bbc:	8c400044 	addi	r17,r17,1
 a803bc0:	10000626 	beq	r2,zero,a803bdc <_fwalk_reent+0x7c>
 a803bc4:	8080038f 	ldh	r2,14(r16)
 a803bc8:	800b883a 	mov	r5,r16
 a803bcc:	a809883a 	mov	r4,r21
 a803bd0:	15000226 	beq	r2,r20,a803bdc <_fwalk_reent+0x7c>
 a803bd4:	b03ee83a 	callr	r22
 a803bd8:	b8aeb03a 	or	r23,r23,r2
 a803bdc:	84001704 	addi	r16,r16,92
 a803be0:	947ff51e 	bne	r18,r17,a803bb8 <_fwalk_reent+0x58>
 a803be4:	9cc00017 	ldw	r19,0(r19)
 a803be8:	983fed1e 	bne	r19,zero,a803ba0 <_fwalk_reent+0x40>
 a803bec:	a802ed80 	call	a802ed8 <__sfp_lock_release>
 a803bf0:	b805883a 	mov	r2,r23
 a803bf4:	dfc00817 	ldw	ra,32(sp)
 a803bf8:	ddc00717 	ldw	r23,28(sp)
 a803bfc:	dd800617 	ldw	r22,24(sp)
 a803c00:	dd400517 	ldw	r21,20(sp)
 a803c04:	dd000417 	ldw	r20,16(sp)
 a803c08:	dcc00317 	ldw	r19,12(sp)
 a803c0c:	dc800217 	ldw	r18,8(sp)
 a803c10:	dc400117 	ldw	r17,4(sp)
 a803c14:	dc000017 	ldw	r16,0(sp)
 a803c18:	dec00904 	addi	sp,sp,36
 a803c1c:	f800283a 	ret
 a803c20:	002f883a 	mov	r23,zero
 a803c24:	003ff106 	br	a803bec <_fwalk_reent+0x8c>

0a803c28 <_fwalk>:
 a803c28:	defff804 	addi	sp,sp,-32
 a803c2c:	dcc00315 	stw	r19,12(sp)
 a803c30:	24c0b804 	addi	r19,r4,736
 a803c34:	dd400515 	stw	r21,20(sp)
 a803c38:	dfc00715 	stw	ra,28(sp)
 a803c3c:	dd800615 	stw	r22,24(sp)
 a803c40:	dd000415 	stw	r20,16(sp)
 a803c44:	dc800215 	stw	r18,8(sp)
 a803c48:	dc400115 	stw	r17,4(sp)
 a803c4c:	dc000015 	stw	r16,0(sp)
 a803c50:	282b883a 	mov	r21,r5
 a803c54:	a802ed40 	call	a802ed4 <__sfp_lock_acquire>
 a803c58:	98001f26 	beq	r19,zero,a803cd8 <_fwalk+0xb0>
 a803c5c:	002d883a 	mov	r22,zero
 a803c60:	9c800117 	ldw	r18,4(r19)
 a803c64:	9c000217 	ldw	r16,8(r19)
 a803c68:	90bfffc4 	addi	r2,r18,-1
 a803c6c:	10000c16 	blt	r2,zero,a803ca0 <_fwalk+0x78>
 a803c70:	0023883a 	mov	r17,zero
 a803c74:	053fffc4 	movi	r20,-1
 a803c78:	8080030f 	ldh	r2,12(r16)
 a803c7c:	8c400044 	addi	r17,r17,1
 a803c80:	10000526 	beq	r2,zero,a803c98 <_fwalk+0x70>
 a803c84:	8080038f 	ldh	r2,14(r16)
 a803c88:	8009883a 	mov	r4,r16
 a803c8c:	15000226 	beq	r2,r20,a803c98 <_fwalk+0x70>
 a803c90:	a83ee83a 	callr	r21
 a803c94:	b0acb03a 	or	r22,r22,r2
 a803c98:	84001704 	addi	r16,r16,92
 a803c9c:	947ff61e 	bne	r18,r17,a803c78 <_fwalk+0x50>
 a803ca0:	9cc00017 	ldw	r19,0(r19)
 a803ca4:	983fee1e 	bne	r19,zero,a803c60 <_fwalk+0x38>
 a803ca8:	a802ed80 	call	a802ed8 <__sfp_lock_release>
 a803cac:	b005883a 	mov	r2,r22
 a803cb0:	dfc00717 	ldw	ra,28(sp)
 a803cb4:	dd800617 	ldw	r22,24(sp)
 a803cb8:	dd400517 	ldw	r21,20(sp)
 a803cbc:	dd000417 	ldw	r20,16(sp)
 a803cc0:	dcc00317 	ldw	r19,12(sp)
 a803cc4:	dc800217 	ldw	r18,8(sp)
 a803cc8:	dc400117 	ldw	r17,4(sp)
 a803ccc:	dc000017 	ldw	r16,0(sp)
 a803cd0:	dec00804 	addi	sp,sp,32
 a803cd4:	f800283a 	ret
 a803cd8:	002d883a 	mov	r22,zero
 a803cdc:	003ff206 	br	a803ca8 <_fwalk+0x80>

0a803ce0 <_fwrite_r>:
 a803ce0:	defff604 	addi	sp,sp,-40
 a803ce4:	dc400615 	stw	r17,24(sp)
 a803ce8:	39a3383a 	mul	r17,r7,r6
 a803cec:	00800044 	movi	r2,1
 a803cf0:	dcc00815 	stw	r19,32(sp)
 a803cf4:	dc800715 	stw	r18,28(sp)
 a803cf8:	dc000515 	stw	r16,20(sp)
 a803cfc:	dfc00915 	stw	ra,36(sp)
 a803d00:	3825883a 	mov	r18,r7
 a803d04:	3027883a 	mov	r19,r6
 a803d08:	2021883a 	mov	r16,r4
 a803d0c:	d9400015 	stw	r5,0(sp)
 a803d10:	d8800315 	stw	r2,12(sp)
 a803d14:	dc400115 	stw	r17,4(sp)
 a803d18:	dc400415 	stw	r17,16(sp)
 a803d1c:	dec00215 	stw	sp,8(sp)
 a803d20:	20000226 	beq	r4,zero,a803d2c <_fwrite_r+0x4c>
 a803d24:	20800e17 	ldw	r2,56(r4)
 a803d28:	10001226 	beq	r2,zero,a803d74 <_fwrite_r+0x94>
 a803d2c:	d9400a17 	ldw	r5,40(sp)
 a803d30:	8009883a 	mov	r4,r16
 a803d34:	d9800204 	addi	r6,sp,8
 a803d38:	a80885c0 	call	a80885c <__sfvwrite_r>
 a803d3c:	980b883a 	mov	r5,r19
 a803d40:	10000426 	beq	r2,zero,a803d54 <_fwrite_r+0x74>
 a803d44:	d9000417 	ldw	r4,16(sp)
 a803d48:	8909c83a 	sub	r4,r17,r4
 a803d4c:	a802b180 	call	a802b18 <__udivsi3>
 a803d50:	1025883a 	mov	r18,r2
 a803d54:	9005883a 	mov	r2,r18
 a803d58:	dfc00917 	ldw	ra,36(sp)
 a803d5c:	dcc00817 	ldw	r19,32(sp)
 a803d60:	dc800717 	ldw	r18,28(sp)
 a803d64:	dc400617 	ldw	r17,24(sp)
 a803d68:	dc000517 	ldw	r16,20(sp)
 a803d6c:	dec00a04 	addi	sp,sp,40
 a803d70:	f800283a 	ret
 a803d74:	a802ee40 	call	a802ee4 <__sinit>
 a803d78:	003fec06 	br	a803d2c <_fwrite_r+0x4c>

0a803d7c <fwrite>:
 a803d7c:	0082a074 	movhi	r2,2689
 a803d80:	10977204 	addi	r2,r2,24008
 a803d84:	2017883a 	mov	r11,r4
 a803d88:	11000017 	ldw	r4,0(r2)
 a803d8c:	defffe04 	addi	sp,sp,-8
 a803d90:	3013883a 	mov	r9,r6
 a803d94:	2805883a 	mov	r2,r5
 a803d98:	d9c00015 	stw	r7,0(sp)
 a803d9c:	580b883a 	mov	r5,r11
 a803da0:	100d883a 	mov	r6,r2
 a803da4:	480f883a 	mov	r7,r9
 a803da8:	dfc00115 	stw	ra,4(sp)
 a803dac:	a803ce00 	call	a803ce0 <_fwrite_r>
 a803db0:	dfc00117 	ldw	ra,4(sp)
 a803db4:	dec00204 	addi	sp,sp,8
 a803db8:	f800283a 	ret

0a803dbc <__smakebuf_r>:
 a803dbc:	2880030b 	ldhu	r2,12(r5)
 a803dc0:	deffed04 	addi	sp,sp,-76
 a803dc4:	dc401015 	stw	r17,64(sp)
 a803dc8:	1080008c 	andi	r2,r2,2
 a803dcc:	dc000f15 	stw	r16,60(sp)
 a803dd0:	dfc01215 	stw	ra,72(sp)
 a803dd4:	dc801115 	stw	r18,68(sp)
 a803dd8:	2821883a 	mov	r16,r5
 a803ddc:	2023883a 	mov	r17,r4
 a803de0:	10000b26 	beq	r2,zero,a803e10 <__smakebuf_r+0x54>
 a803de4:	28c010c4 	addi	r3,r5,67
 a803de8:	00800044 	movi	r2,1
 a803dec:	28800515 	stw	r2,20(r5)
 a803df0:	28c00415 	stw	r3,16(r5)
 a803df4:	28c00015 	stw	r3,0(r5)
 a803df8:	dfc01217 	ldw	ra,72(sp)
 a803dfc:	dc801117 	ldw	r18,68(sp)
 a803e00:	dc401017 	ldw	r17,64(sp)
 a803e04:	dc000f17 	ldw	r16,60(sp)
 a803e08:	dec01304 	addi	sp,sp,76
 a803e0c:	f800283a 	ret
 a803e10:	2940038f 	ldh	r5,14(r5)
 a803e14:	28002116 	blt	r5,zero,a803e9c <__smakebuf_r+0xe0>
 a803e18:	d80d883a 	mov	r6,sp
 a803e1c:	a803aec0 	call	a803aec <_fstat_r>
 a803e20:	10001e16 	blt	r2,zero,a803e9c <__smakebuf_r+0xe0>
 a803e24:	d8800117 	ldw	r2,4(sp)
 a803e28:	00e00014 	movui	r3,32768
 a803e2c:	113c000c 	andi	r4,r2,61440
 a803e30:	20c03126 	beq	r4,r3,a803ef8 <__smakebuf_r+0x13c>
 a803e34:	8080030b 	ldhu	r2,12(r16)
 a803e38:	00c80004 	movi	r3,8192
 a803e3c:	10820014 	ori	r2,r2,2048
 a803e40:	8080030d 	sth	r2,12(r16)
 a803e44:	20c01e26 	beq	r4,r3,a803ec0 <__smakebuf_r+0x104>
 a803e48:	04810004 	movi	r18,1024
 a803e4c:	8809883a 	mov	r4,r17
 a803e50:	900b883a 	mov	r5,r18
 a803e54:	a803f500 	call	a803f50 <_malloc_r>
 a803e58:	1009883a 	mov	r4,r2
 a803e5c:	10003126 	beq	r2,zero,a803f24 <__smakebuf_r+0x168>
 a803e60:	80c0030b 	ldhu	r3,12(r16)
 a803e64:	0082a034 	movhi	r2,2688
 a803e68:	108bf204 	addi	r2,r2,12232
 a803e6c:	88800f15 	stw	r2,60(r17)
 a803e70:	18c02014 	ori	r3,r3,128
 a803e74:	84800515 	stw	r18,20(r16)
 a803e78:	80c0030d 	sth	r3,12(r16)
 a803e7c:	81000415 	stw	r4,16(r16)
 a803e80:	81000015 	stw	r4,0(r16)
 a803e84:	dfc01217 	ldw	ra,72(sp)
 a803e88:	dc801117 	ldw	r18,68(sp)
 a803e8c:	dc401017 	ldw	r17,64(sp)
 a803e90:	dc000f17 	ldw	r16,60(sp)
 a803e94:	dec01304 	addi	sp,sp,76
 a803e98:	f800283a 	ret
 a803e9c:	80c0030b 	ldhu	r3,12(r16)
 a803ea0:	1880200c 	andi	r2,r3,128
 a803ea4:	10000426 	beq	r2,zero,a803eb8 <__smakebuf_r+0xfc>
 a803ea8:	04801004 	movi	r18,64
 a803eac:	18820014 	ori	r2,r3,2048
 a803eb0:	8080030d 	sth	r2,12(r16)
 a803eb4:	003fe506 	br	a803e4c <__smakebuf_r+0x90>
 a803eb8:	04810004 	movi	r18,1024
 a803ebc:	003ffb06 	br	a803eac <__smakebuf_r+0xf0>
 a803ec0:	8140038f 	ldh	r5,14(r16)
 a803ec4:	8809883a 	mov	r4,r17
 a803ec8:	a808cf80 	call	a808cf8 <_isatty_r>
 a803ecc:	103fde26 	beq	r2,zero,a803e48 <__smakebuf_r+0x8c>
 a803ed0:	8080030b 	ldhu	r2,12(r16)
 a803ed4:	80c010c4 	addi	r3,r16,67
 a803ed8:	04810004 	movi	r18,1024
 a803edc:	10800054 	ori	r2,r2,1
 a803ee0:	8080030d 	sth	r2,12(r16)
 a803ee4:	00800044 	movi	r2,1
 a803ee8:	80c00415 	stw	r3,16(r16)
 a803eec:	80800515 	stw	r2,20(r16)
 a803ef0:	80c00015 	stw	r3,0(r16)
 a803ef4:	003fd506 	br	a803e4c <__smakebuf_r+0x90>
 a803ef8:	80c00a17 	ldw	r3,40(r16)
 a803efc:	0082a034 	movhi	r2,2688
 a803f00:	1092fe04 	addi	r2,r2,19448
 a803f04:	18bfcb1e 	bne	r3,r2,a803e34 <__smakebuf_r+0x78>
 a803f08:	8080030b 	ldhu	r2,12(r16)
 a803f0c:	00c10004 	movi	r3,1024
 a803f10:	1825883a 	mov	r18,r3
 a803f14:	10c4b03a 	or	r2,r2,r3
 a803f18:	8080030d 	sth	r2,12(r16)
 a803f1c:	80c01315 	stw	r3,76(r16)
 a803f20:	003fca06 	br	a803e4c <__smakebuf_r+0x90>
 a803f24:	8100030b 	ldhu	r4,12(r16)
 a803f28:	2080800c 	andi	r2,r4,512
 a803f2c:	103fb21e 	bne	r2,zero,a803df8 <__smakebuf_r+0x3c>
 a803f30:	80c010c4 	addi	r3,r16,67
 a803f34:	21000094 	ori	r4,r4,2
 a803f38:	00800044 	movi	r2,1
 a803f3c:	80800515 	stw	r2,20(r16)
 a803f40:	8100030d 	sth	r4,12(r16)
 a803f44:	80c00415 	stw	r3,16(r16)
 a803f48:	80c00015 	stw	r3,0(r16)
 a803f4c:	003faa06 	br	a803df8 <__smakebuf_r+0x3c>

0a803f50 <_malloc_r>:
 a803f50:	defff604 	addi	sp,sp,-40
 a803f54:	28c002c4 	addi	r3,r5,11
 a803f58:	00800584 	movi	r2,22
 a803f5c:	dc800215 	stw	r18,8(sp)
 a803f60:	dfc00915 	stw	ra,36(sp)
 a803f64:	df000815 	stw	fp,32(sp)
 a803f68:	ddc00715 	stw	r23,28(sp)
 a803f6c:	dd800615 	stw	r22,24(sp)
 a803f70:	dd400515 	stw	r21,20(sp)
 a803f74:	dd000415 	stw	r20,16(sp)
 a803f78:	dcc00315 	stw	r19,12(sp)
 a803f7c:	dc400115 	stw	r17,4(sp)
 a803f80:	dc000015 	stw	r16,0(sp)
 a803f84:	2025883a 	mov	r18,r4
 a803f88:	10c01236 	bltu	r2,r3,a803fd4 <_malloc_r+0x84>
 a803f8c:	04400404 	movi	r17,16
 a803f90:	8940142e 	bgeu	r17,r5,a803fe4 <_malloc_r+0x94>
 a803f94:	00800304 	movi	r2,12
 a803f98:	0007883a 	mov	r3,zero
 a803f9c:	90800015 	stw	r2,0(r18)
 a803fa0:	1805883a 	mov	r2,r3
 a803fa4:	dfc00917 	ldw	ra,36(sp)
 a803fa8:	df000817 	ldw	fp,32(sp)
 a803fac:	ddc00717 	ldw	r23,28(sp)
 a803fb0:	dd800617 	ldw	r22,24(sp)
 a803fb4:	dd400517 	ldw	r21,20(sp)
 a803fb8:	dd000417 	ldw	r20,16(sp)
 a803fbc:	dcc00317 	ldw	r19,12(sp)
 a803fc0:	dc800217 	ldw	r18,8(sp)
 a803fc4:	dc400117 	ldw	r17,4(sp)
 a803fc8:	dc000017 	ldw	r16,0(sp)
 a803fcc:	dec00a04 	addi	sp,sp,40
 a803fd0:	f800283a 	ret
 a803fd4:	00bffe04 	movi	r2,-8
 a803fd8:	18a2703a 	and	r17,r3,r2
 a803fdc:	883fed16 	blt	r17,zero,a803f94 <_malloc_r+0x44>
 a803fe0:	897fec36 	bltu	r17,r5,a803f94 <_malloc_r+0x44>
 a803fe4:	9009883a 	mov	r4,r18
 a803fe8:	a80d4700 	call	a80d470 <__malloc_lock>
 a803fec:	00807dc4 	movi	r2,503
 a803ff0:	14402b2e 	bgeu	r2,r17,a8040a0 <_malloc_r+0x150>
 a803ff4:	8806d27a 	srli	r3,r17,9
 a803ff8:	18003f1e 	bne	r3,zero,a8040f8 <_malloc_r+0x1a8>
 a803ffc:	880cd0fa 	srli	r6,r17,3
 a804000:	300490fa 	slli	r2,r6,3
 a804004:	02c2a074 	movhi	r11,2689
 a804008:	5ad16d04 	addi	r11,r11,17844
 a80400c:	12cb883a 	add	r5,r2,r11
 a804010:	2c000317 	ldw	r16,12(r5)
 a804014:	580f883a 	mov	r7,r11
 a804018:	2c00041e 	bne	r5,r16,a80402c <_malloc_r+0xdc>
 a80401c:	00000a06 	br	a804048 <_malloc_r+0xf8>
 a804020:	1800860e 	bge	r3,zero,a80423c <_malloc_r+0x2ec>
 a804024:	84000317 	ldw	r16,12(r16)
 a804028:	2c000726 	beq	r5,r16,a804048 <_malloc_r+0xf8>
 a80402c:	80800117 	ldw	r2,4(r16)
 a804030:	00ffff04 	movi	r3,-4
 a804034:	10c8703a 	and	r4,r2,r3
 a804038:	2447c83a 	sub	r3,r4,r17
 a80403c:	008003c4 	movi	r2,15
 a804040:	10fff70e 	bge	r2,r3,a804020 <_malloc_r+0xd0>
 a804044:	31bfffc4 	addi	r6,r6,-1
 a804048:	32400044 	addi	r9,r6,1
 a80404c:	0282a074 	movhi	r10,2689
 a804050:	52916f04 	addi	r10,r10,17852
 a804054:	54000217 	ldw	r16,8(r10)
 a804058:	8280a026 	beq	r16,r10,a8042dc <_malloc_r+0x38c>
 a80405c:	80800117 	ldw	r2,4(r16)
 a804060:	00ffff04 	movi	r3,-4
 a804064:	10ca703a 	and	r5,r2,r3
 a804068:	2c4dc83a 	sub	r6,r5,r17
 a80406c:	008003c4 	movi	r2,15
 a804070:	11808316 	blt	r2,r6,a804280 <_malloc_r+0x330>
 a804074:	52800315 	stw	r10,12(r10)
 a804078:	52800215 	stw	r10,8(r10)
 a80407c:	30002916 	blt	r6,zero,a804124 <_malloc_r+0x1d4>
 a804080:	8147883a 	add	r3,r16,r5
 a804084:	18800117 	ldw	r2,4(r3)
 a804088:	9009883a 	mov	r4,r18
 a80408c:	10800054 	ori	r2,r2,1
 a804090:	18800115 	stw	r2,4(r3)
 a804094:	a80d4900 	call	a80d490 <__malloc_unlock>
 a804098:	80c00204 	addi	r3,r16,8
 a80409c:	003fc006 	br	a803fa0 <_malloc_r+0x50>
 a8040a0:	02c2a074 	movhi	r11,2689
 a8040a4:	5ad16d04 	addi	r11,r11,17844
 a8040a8:	8ac5883a 	add	r2,r17,r11
 a8040ac:	14000317 	ldw	r16,12(r2)
 a8040b0:	580f883a 	mov	r7,r11
 a8040b4:	8806d0fa 	srli	r3,r17,3
 a8040b8:	14006c26 	beq	r2,r16,a80426c <_malloc_r+0x31c>
 a8040bc:	80c00117 	ldw	r3,4(r16)
 a8040c0:	00bfff04 	movi	r2,-4
 a8040c4:	81800317 	ldw	r6,12(r16)
 a8040c8:	1886703a 	and	r3,r3,r2
 a8040cc:	80c7883a 	add	r3,r16,r3
 a8040d0:	18800117 	ldw	r2,4(r3)
 a8040d4:	81400217 	ldw	r5,8(r16)
 a8040d8:	9009883a 	mov	r4,r18
 a8040dc:	10800054 	ori	r2,r2,1
 a8040e0:	18800115 	stw	r2,4(r3)
 a8040e4:	31400215 	stw	r5,8(r6)
 a8040e8:	29800315 	stw	r6,12(r5)
 a8040ec:	a80d4900 	call	a80d490 <__malloc_unlock>
 a8040f0:	80c00204 	addi	r3,r16,8
 a8040f4:	003faa06 	br	a803fa0 <_malloc_r+0x50>
 a8040f8:	00800104 	movi	r2,4
 a8040fc:	10c0052e 	bgeu	r2,r3,a804114 <_malloc_r+0x1c4>
 a804100:	00800504 	movi	r2,20
 a804104:	10c07836 	bltu	r2,r3,a8042e8 <_malloc_r+0x398>
 a804108:	198016c4 	addi	r6,r3,91
 a80410c:	300490fa 	slli	r2,r6,3
 a804110:	003fbc06 	br	a804004 <_malloc_r+0xb4>
 a804114:	8804d1ba 	srli	r2,r17,6
 a804118:	11800e04 	addi	r6,r2,56
 a80411c:	300490fa 	slli	r2,r6,3
 a804120:	003fb806 	br	a804004 <_malloc_r+0xb4>
 a804124:	00807fc4 	movi	r2,511
 a804128:	1140bb36 	bltu	r2,r5,a804418 <_malloc_r+0x4c8>
 a80412c:	2806d0fa 	srli	r3,r5,3
 a804130:	573ffe04 	addi	fp,r10,-8
 a804134:	00800044 	movi	r2,1
 a804138:	180890fa 	slli	r4,r3,3
 a80413c:	1807d0ba 	srai	r3,r3,2
 a804140:	e1c00117 	ldw	r7,4(fp)
 a804144:	5909883a 	add	r4,r11,r4
 a804148:	21400217 	ldw	r5,8(r4)
 a80414c:	10c4983a 	sll	r2,r2,r3
 a804150:	81000315 	stw	r4,12(r16)
 a804154:	81400215 	stw	r5,8(r16)
 a804158:	388eb03a 	or	r7,r7,r2
 a80415c:	2c000315 	stw	r16,12(r5)
 a804160:	24000215 	stw	r16,8(r4)
 a804164:	e1c00115 	stw	r7,4(fp)
 a804168:	4807883a 	mov	r3,r9
 a80416c:	4800cd16 	blt	r9,zero,a8044a4 <_malloc_r+0x554>
 a804170:	1807d0ba 	srai	r3,r3,2
 a804174:	00800044 	movi	r2,1
 a804178:	10c8983a 	sll	r4,r2,r3
 a80417c:	39004436 	bltu	r7,r4,a804290 <_malloc_r+0x340>
 a804180:	21c4703a 	and	r2,r4,r7
 a804184:	10000a1e 	bne	r2,zero,a8041b0 <_malloc_r+0x260>
 a804188:	2109883a 	add	r4,r4,r4
 a80418c:	00bfff04 	movi	r2,-4
 a804190:	4884703a 	and	r2,r9,r2
 a804194:	3906703a 	and	r3,r7,r4
 a804198:	12400104 	addi	r9,r2,4
 a80419c:	1800041e 	bne	r3,zero,a8041b0 <_malloc_r+0x260>
 a8041a0:	2109883a 	add	r4,r4,r4
 a8041a4:	3904703a 	and	r2,r7,r4
 a8041a8:	4a400104 	addi	r9,r9,4
 a8041ac:	103ffc26 	beq	r2,zero,a8041a0 <_malloc_r+0x250>
 a8041b0:	480490fa 	slli	r2,r9,3
 a8041b4:	4819883a 	mov	r12,r9
 a8041b8:	023fff04 	movi	r8,-4
 a8041bc:	589b883a 	add	r13,r11,r2
 a8041c0:	6807883a 	mov	r3,r13
 a8041c4:	014003c4 	movi	r5,15
 a8041c8:	1c000317 	ldw	r16,12(r3)
 a8041cc:	1c00041e 	bne	r3,r16,a8041e0 <_malloc_r+0x290>
 a8041d0:	0000a706 	br	a804470 <_malloc_r+0x520>
 a8041d4:	3000ab0e 	bge	r6,zero,a804484 <_malloc_r+0x534>
 a8041d8:	84000317 	ldw	r16,12(r16)
 a8041dc:	1c00a426 	beq	r3,r16,a804470 <_malloc_r+0x520>
 a8041e0:	80800117 	ldw	r2,4(r16)
 a8041e4:	1204703a 	and	r2,r2,r8
 a8041e8:	144dc83a 	sub	r6,r2,r17
 a8041ec:	29bff90e 	bge	r5,r6,a8041d4 <_malloc_r+0x284>
 a8041f0:	81000317 	ldw	r4,12(r16)
 a8041f4:	80c00217 	ldw	r3,8(r16)
 a8041f8:	89400054 	ori	r5,r17,1
 a8041fc:	8445883a 	add	r2,r16,r17
 a804200:	20c00215 	stw	r3,8(r4)
 a804204:	19000315 	stw	r4,12(r3)
 a804208:	81400115 	stw	r5,4(r16)
 a80420c:	1187883a 	add	r3,r2,r6
 a804210:	31000054 	ori	r4,r6,1
 a804214:	50800315 	stw	r2,12(r10)
 a804218:	50800215 	stw	r2,8(r10)
 a80421c:	19800015 	stw	r6,0(r3)
 a804220:	11000115 	stw	r4,4(r2)
 a804224:	12800215 	stw	r10,8(r2)
 a804228:	12800315 	stw	r10,12(r2)
 a80422c:	9009883a 	mov	r4,r18
 a804230:	a80d4900 	call	a80d490 <__malloc_unlock>
 a804234:	80c00204 	addi	r3,r16,8
 a804238:	003f5906 	br	a803fa0 <_malloc_r+0x50>
 a80423c:	8109883a 	add	r4,r16,r4
 a804240:	20800117 	ldw	r2,4(r4)
 a804244:	80c00217 	ldw	r3,8(r16)
 a804248:	81400317 	ldw	r5,12(r16)
 a80424c:	10800054 	ori	r2,r2,1
 a804250:	20800115 	stw	r2,4(r4)
 a804254:	28c00215 	stw	r3,8(r5)
 a804258:	19400315 	stw	r5,12(r3)
 a80425c:	9009883a 	mov	r4,r18
 a804260:	a80d4900 	call	a80d490 <__malloc_unlock>
 a804264:	80c00204 	addi	r3,r16,8
 a804268:	003f4d06 	br	a803fa0 <_malloc_r+0x50>
 a80426c:	80800204 	addi	r2,r16,8
 a804270:	14000317 	ldw	r16,12(r2)
 a804274:	143f911e 	bne	r2,r16,a8040bc <_malloc_r+0x16c>
 a804278:	1a400084 	addi	r9,r3,2
 a80427c:	003f7306 	br	a80404c <_malloc_r+0xfc>
 a804280:	88c00054 	ori	r3,r17,1
 a804284:	8445883a 	add	r2,r16,r17
 a804288:	80c00115 	stw	r3,4(r16)
 a80428c:	003fdf06 	br	a80420c <_malloc_r+0x2bc>
 a804290:	e4000217 	ldw	r16,8(fp)
 a804294:	00bfff04 	movi	r2,-4
 a804298:	80c00117 	ldw	r3,4(r16)
 a80429c:	802d883a 	mov	r22,r16
 a8042a0:	18aa703a 	and	r21,r3,r2
 a8042a4:	ac401636 	bltu	r21,r17,a804300 <_malloc_r+0x3b0>
 a8042a8:	ac49c83a 	sub	r4,r21,r17
 a8042ac:	008003c4 	movi	r2,15
 a8042b0:	1100130e 	bge	r2,r4,a804300 <_malloc_r+0x3b0>
 a8042b4:	88800054 	ori	r2,r17,1
 a8042b8:	8447883a 	add	r3,r16,r17
 a8042bc:	80800115 	stw	r2,4(r16)
 a8042c0:	20800054 	ori	r2,r4,1
 a8042c4:	18800115 	stw	r2,4(r3)
 a8042c8:	e0c00215 	stw	r3,8(fp)
 a8042cc:	9009883a 	mov	r4,r18
 a8042d0:	a80d4900 	call	a80d490 <__malloc_unlock>
 a8042d4:	80c00204 	addi	r3,r16,8
 a8042d8:	003f3106 	br	a803fa0 <_malloc_r+0x50>
 a8042dc:	39c00117 	ldw	r7,4(r7)
 a8042e0:	573ffe04 	addi	fp,r10,-8
 a8042e4:	003fa006 	br	a804168 <_malloc_r+0x218>
 a8042e8:	00801504 	movi	r2,84
 a8042ec:	10c06736 	bltu	r2,r3,a80448c <_malloc_r+0x53c>
 a8042f0:	8804d33a 	srli	r2,r17,12
 a8042f4:	11801b84 	addi	r6,r2,110
 a8042f8:	300490fa 	slli	r2,r6,3
 a8042fc:	003f4106 	br	a804004 <_malloc_r+0xb4>
 a804300:	d0a73617 	ldw	r2,-25384(gp)
 a804304:	d0e00317 	ldw	r3,-32756(gp)
 a804308:	053fffc4 	movi	r20,-1
 a80430c:	10800404 	addi	r2,r2,16
 a804310:	88a7883a 	add	r19,r17,r2
 a804314:	1d000326 	beq	r3,r20,a804324 <_malloc_r+0x3d4>
 a804318:	98c3ffc4 	addi	r3,r19,4095
 a80431c:	00bc0004 	movi	r2,-4096
 a804320:	18a6703a 	and	r19,r3,r2
 a804324:	9009883a 	mov	r4,r18
 a804328:	980b883a 	mov	r5,r19
 a80432c:	a804aac0 	call	a804aac <_sbrk_r>
 a804330:	1009883a 	mov	r4,r2
 a804334:	15000426 	beq	r2,r20,a804348 <_malloc_r+0x3f8>
 a804338:	854b883a 	add	r5,r16,r21
 a80433c:	1029883a 	mov	r20,r2
 a804340:	11405a2e 	bgeu	r2,r5,a8044ac <_malloc_r+0x55c>
 a804344:	87000c26 	beq	r16,fp,a804378 <_malloc_r+0x428>
 a804348:	e4000217 	ldw	r16,8(fp)
 a80434c:	80c00117 	ldw	r3,4(r16)
 a804350:	00bfff04 	movi	r2,-4
 a804354:	1884703a 	and	r2,r3,r2
 a804358:	14400336 	bltu	r2,r17,a804368 <_malloc_r+0x418>
 a80435c:	1449c83a 	sub	r4,r2,r17
 a804360:	008003c4 	movi	r2,15
 a804364:	113fd316 	blt	r2,r4,a8042b4 <_malloc_r+0x364>
 a804368:	9009883a 	mov	r4,r18
 a80436c:	a80d4900 	call	a80d490 <__malloc_unlock>
 a804370:	0007883a 	mov	r3,zero
 a804374:	003f0a06 	br	a803fa0 <_malloc_r+0x50>
 a804378:	05c2a074 	movhi	r23,2689
 a80437c:	bddebe04 	addi	r23,r23,31480
 a804380:	b8800017 	ldw	r2,0(r23)
 a804384:	988d883a 	add	r6,r19,r2
 a804388:	b9800015 	stw	r6,0(r23)
 a80438c:	d0e00317 	ldw	r3,-32756(gp)
 a804390:	00bfffc4 	movi	r2,-1
 a804394:	18808e26 	beq	r3,r2,a8045d0 <_malloc_r+0x680>
 a804398:	2145c83a 	sub	r2,r4,r5
 a80439c:	3085883a 	add	r2,r6,r2
 a8043a0:	b8800015 	stw	r2,0(r23)
 a8043a4:	20c001cc 	andi	r3,r4,7
 a8043a8:	18005f1e 	bne	r3,zero,a804528 <_malloc_r+0x5d8>
 a8043ac:	000b883a 	mov	r5,zero
 a8043b0:	a4c5883a 	add	r2,r20,r19
 a8043b4:	1083ffcc 	andi	r2,r2,4095
 a8043b8:	00c40004 	movi	r3,4096
 a8043bc:	1887c83a 	sub	r3,r3,r2
 a8043c0:	28e7883a 	add	r19,r5,r3
 a8043c4:	9009883a 	mov	r4,r18
 a8043c8:	980b883a 	mov	r5,r19
 a8043cc:	a804aac0 	call	a804aac <_sbrk_r>
 a8043d0:	1007883a 	mov	r3,r2
 a8043d4:	00bfffc4 	movi	r2,-1
 a8043d8:	18807a26 	beq	r3,r2,a8045c4 <_malloc_r+0x674>
 a8043dc:	1d05c83a 	sub	r2,r3,r20
 a8043e0:	9885883a 	add	r2,r19,r2
 a8043e4:	10c00054 	ori	r3,r2,1
 a8043e8:	b8800017 	ldw	r2,0(r23)
 a8043ec:	a021883a 	mov	r16,r20
 a8043f0:	a0c00115 	stw	r3,4(r20)
 a8043f4:	9885883a 	add	r2,r19,r2
 a8043f8:	b8800015 	stw	r2,0(r23)
 a8043fc:	e5000215 	stw	r20,8(fp)
 a804400:	b7003626 	beq	r22,fp,a8044dc <_malloc_r+0x58c>
 a804404:	018003c4 	movi	r6,15
 a804408:	35404b36 	bltu	r6,r21,a804538 <_malloc_r+0x5e8>
 a80440c:	00800044 	movi	r2,1
 a804410:	a0800115 	stw	r2,4(r20)
 a804414:	003fcd06 	br	a80434c <_malloc_r+0x3fc>
 a804418:	2808d27a 	srli	r4,r5,9
 a80441c:	2000371e 	bne	r4,zero,a8044fc <_malloc_r+0x5ac>
 a804420:	2808d0fa 	srli	r4,r5,3
 a804424:	200690fa 	slli	r3,r4,3
 a804428:	1ad1883a 	add	r8,r3,r11
 a80442c:	41800217 	ldw	r6,8(r8)
 a804430:	41805b26 	beq	r8,r6,a8045a0 <_malloc_r+0x650>
 a804434:	30800117 	ldw	r2,4(r6)
 a804438:	00ffff04 	movi	r3,-4
 a80443c:	10c4703a 	and	r2,r2,r3
 a804440:	2880022e 	bgeu	r5,r2,a80444c <_malloc_r+0x4fc>
 a804444:	31800217 	ldw	r6,8(r6)
 a804448:	41bffa1e 	bne	r8,r6,a804434 <_malloc_r+0x4e4>
 a80444c:	32000317 	ldw	r8,12(r6)
 a804450:	39c00117 	ldw	r7,4(r7)
 a804454:	82000315 	stw	r8,12(r16)
 a804458:	81800215 	stw	r6,8(r16)
 a80445c:	0702a074 	movhi	fp,2689
 a804460:	e7116d04 	addi	fp,fp,17844
 a804464:	34000315 	stw	r16,12(r6)
 a804468:	44000215 	stw	r16,8(r8)
 a80446c:	003f3e06 	br	a804168 <_malloc_r+0x218>
 a804470:	63000044 	addi	r12,r12,1
 a804474:	608000cc 	andi	r2,r12,3
 a804478:	10005d26 	beq	r2,zero,a8045f0 <_malloc_r+0x6a0>
 a80447c:	18c00204 	addi	r3,r3,8
 a804480:	003f5106 	br	a8041c8 <_malloc_r+0x278>
 a804484:	8089883a 	add	r4,r16,r2
 a804488:	003f6d06 	br	a804240 <_malloc_r+0x2f0>
 a80448c:	00805504 	movi	r2,340
 a804490:	10c02036 	bltu	r2,r3,a804514 <_malloc_r+0x5c4>
 a804494:	8804d3fa 	srli	r2,r17,15
 a804498:	11801dc4 	addi	r6,r2,119
 a80449c:	300490fa 	slli	r2,r6,3
 a8044a0:	003ed806 	br	a804004 <_malloc_r+0xb4>
 a8044a4:	48c000c4 	addi	r3,r9,3
 a8044a8:	003f3106 	br	a804170 <_malloc_r+0x220>
 a8044ac:	05c2a074 	movhi	r23,2689
 a8044b0:	bddebe04 	addi	r23,r23,31480
 a8044b4:	b8800017 	ldw	r2,0(r23)
 a8044b8:	988d883a 	add	r6,r19,r2
 a8044bc:	b9800015 	stw	r6,0(r23)
 a8044c0:	293fb21e 	bne	r5,r4,a80438c <_malloc_r+0x43c>
 a8044c4:	2083ffcc 	andi	r2,r4,4095
 a8044c8:	103fb01e 	bne	r2,zero,a80438c <_malloc_r+0x43c>
 a8044cc:	e4000217 	ldw	r16,8(fp)
 a8044d0:	9d45883a 	add	r2,r19,r21
 a8044d4:	10800054 	ori	r2,r2,1
 a8044d8:	80800115 	stw	r2,4(r16)
 a8044dc:	b8c00017 	ldw	r3,0(r23)
 a8044e0:	d0a73717 	ldw	r2,-25380(gp)
 a8044e4:	10c0012e 	bgeu	r2,r3,a8044ec <_malloc_r+0x59c>
 a8044e8:	d0e73715 	stw	r3,-25380(gp)
 a8044ec:	d0a73817 	ldw	r2,-25376(gp)
 a8044f0:	10ff962e 	bgeu	r2,r3,a80434c <_malloc_r+0x3fc>
 a8044f4:	d0e73815 	stw	r3,-25376(gp)
 a8044f8:	003f9406 	br	a80434c <_malloc_r+0x3fc>
 a8044fc:	00800104 	movi	r2,4
 a804500:	11001e36 	bltu	r2,r4,a80457c <_malloc_r+0x62c>
 a804504:	2804d1ba 	srli	r2,r5,6
 a804508:	11000e04 	addi	r4,r2,56
 a80450c:	200690fa 	slli	r3,r4,3
 a804510:	003fc506 	br	a804428 <_malloc_r+0x4d8>
 a804514:	00815504 	movi	r2,1364
 a804518:	10c01d2e 	bgeu	r2,r3,a804590 <_malloc_r+0x640>
 a80451c:	01801f84 	movi	r6,126
 a804520:	0080fc04 	movi	r2,1008
 a804524:	003eb706 	br	a804004 <_malloc_r+0xb4>
 a804528:	00800204 	movi	r2,8
 a80452c:	10cbc83a 	sub	r5,r2,r3
 a804530:	2169883a 	add	r20,r4,r5
 a804534:	003f9e06 	br	a8043b0 <_malloc_r+0x460>
 a804538:	00bffe04 	movi	r2,-8
 a80453c:	a93ffd04 	addi	r4,r21,-12
 a804540:	2088703a 	and	r4,r4,r2
 a804544:	b10b883a 	add	r5,r22,r4
 a804548:	00c00144 	movi	r3,5
 a80454c:	28c00215 	stw	r3,8(r5)
 a804550:	28c00115 	stw	r3,4(r5)
 a804554:	b0800117 	ldw	r2,4(r22)
 a804558:	1080004c 	andi	r2,r2,1
 a80455c:	2084b03a 	or	r2,r4,r2
 a804560:	b0800115 	stw	r2,4(r22)
 a804564:	313fdd2e 	bgeu	r6,r4,a8044dc <_malloc_r+0x58c>
 a804568:	b1400204 	addi	r5,r22,8
 a80456c:	9009883a 	mov	r4,r18
 a804570:	a8033780 	call	a803378 <_free_r>
 a804574:	e4000217 	ldw	r16,8(fp)
 a804578:	003fd806 	br	a8044dc <_malloc_r+0x58c>
 a80457c:	00800504 	movi	r2,20
 a804580:	11001536 	bltu	r2,r4,a8045d8 <_malloc_r+0x688>
 a804584:	210016c4 	addi	r4,r4,91
 a804588:	200690fa 	slli	r3,r4,3
 a80458c:	003fa606 	br	a804428 <_malloc_r+0x4d8>
 a804590:	8804d4ba 	srli	r2,r17,18
 a804594:	11801f04 	addi	r6,r2,124
 a804598:	300490fa 	slli	r2,r6,3
 a80459c:	003e9906 	br	a804004 <_malloc_r+0xb4>
 a8045a0:	2009d0ba 	srai	r4,r4,2
 a8045a4:	0142a074 	movhi	r5,2689
 a8045a8:	29516d04 	addi	r5,r5,17844
 a8045ac:	00c00044 	movi	r3,1
 a8045b0:	28800117 	ldw	r2,4(r5)
 a8045b4:	1906983a 	sll	r3,r3,r4
 a8045b8:	10c4b03a 	or	r2,r2,r3
 a8045bc:	28800115 	stw	r2,4(r5)
 a8045c0:	003fa306 	br	a804450 <_malloc_r+0x500>
 a8045c4:	0027883a 	mov	r19,zero
 a8045c8:	00c00044 	movi	r3,1
 a8045cc:	003f8606 	br	a8043e8 <_malloc_r+0x498>
 a8045d0:	d1200315 	stw	r4,-32756(gp)
 a8045d4:	003f7306 	br	a8043a4 <_malloc_r+0x454>
 a8045d8:	00801504 	movi	r2,84
 a8045dc:	11001936 	bltu	r2,r4,a804644 <_malloc_r+0x6f4>
 a8045e0:	2804d33a 	srli	r2,r5,12
 a8045e4:	11001b84 	addi	r4,r2,110
 a8045e8:	200690fa 	slli	r3,r4,3
 a8045ec:	003f8e06 	br	a804428 <_malloc_r+0x4d8>
 a8045f0:	480b883a 	mov	r5,r9
 a8045f4:	6807883a 	mov	r3,r13
 a8045f8:	288000cc 	andi	r2,r5,3
 a8045fc:	18fffe04 	addi	r3,r3,-8
 a804600:	297fffc4 	addi	r5,r5,-1
 a804604:	10001526 	beq	r2,zero,a80465c <_malloc_r+0x70c>
 a804608:	18800217 	ldw	r2,8(r3)
 a80460c:	10fffa26 	beq	r2,r3,a8045f8 <_malloc_r+0x6a8>
 a804610:	2109883a 	add	r4,r4,r4
 a804614:	393f1e36 	bltu	r7,r4,a804290 <_malloc_r+0x340>
 a804618:	203f1d26 	beq	r4,zero,a804290 <_malloc_r+0x340>
 a80461c:	21c4703a 	and	r2,r4,r7
 a804620:	10000226 	beq	r2,zero,a80462c <_malloc_r+0x6dc>
 a804624:	6013883a 	mov	r9,r12
 a804628:	003ee106 	br	a8041b0 <_malloc_r+0x260>
 a80462c:	2109883a 	add	r4,r4,r4
 a804630:	3904703a 	and	r2,r7,r4
 a804634:	63000104 	addi	r12,r12,4
 a804638:	103ffc26 	beq	r2,zero,a80462c <_malloc_r+0x6dc>
 a80463c:	6013883a 	mov	r9,r12
 a804640:	003edb06 	br	a8041b0 <_malloc_r+0x260>
 a804644:	00805504 	movi	r2,340
 a804648:	11000836 	bltu	r2,r4,a80466c <_malloc_r+0x71c>
 a80464c:	2804d3fa 	srli	r2,r5,15
 a804650:	11001dc4 	addi	r4,r2,119
 a804654:	200690fa 	slli	r3,r4,3
 a804658:	003f7306 	br	a804428 <_malloc_r+0x4d8>
 a80465c:	0104303a 	nor	r2,zero,r4
 a804660:	388e703a 	and	r7,r7,r2
 a804664:	e1c00115 	stw	r7,4(fp)
 a804668:	003fe906 	br	a804610 <_malloc_r+0x6c0>
 a80466c:	00815504 	movi	r2,1364
 a804670:	1100032e 	bgeu	r2,r4,a804680 <_malloc_r+0x730>
 a804674:	01001f84 	movi	r4,126
 a804678:	00c0fc04 	movi	r3,1008
 a80467c:	003f6a06 	br	a804428 <_malloc_r+0x4d8>
 a804680:	2804d4ba 	srli	r2,r5,18
 a804684:	11001f04 	addi	r4,r2,124
 a804688:	200690fa 	slli	r3,r4,3
 a80468c:	003f6606 	br	a804428 <_malloc_r+0x4d8>

0a804690 <memset>:
 a804690:	008000c4 	movi	r2,3
 a804694:	29403fcc 	andi	r5,r5,255
 a804698:	2007883a 	mov	r3,r4
 a80469c:	1180022e 	bgeu	r2,r6,a8046a8 <memset+0x18>
 a8046a0:	2084703a 	and	r2,r4,r2
 a8046a4:	10000826 	beq	r2,zero,a8046c8 <memset+0x38>
 a8046a8:	30000526 	beq	r6,zero,a8046c0 <memset+0x30>
 a8046ac:	2805883a 	mov	r2,r5
 a8046b0:	30cd883a 	add	r6,r6,r3
 a8046b4:	18800005 	stb	r2,0(r3)
 a8046b8:	18c00044 	addi	r3,r3,1
 a8046bc:	19bffd1e 	bne	r3,r6,a8046b4 <memset+0x24>
 a8046c0:	2005883a 	mov	r2,r4
 a8046c4:	f800283a 	ret
 a8046c8:	2804923a 	slli	r2,r5,8
 a8046cc:	020003c4 	movi	r8,15
 a8046d0:	200f883a 	mov	r7,r4
 a8046d4:	2884b03a 	or	r2,r5,r2
 a8046d8:	1006943a 	slli	r3,r2,16
 a8046dc:	10c6b03a 	or	r3,r2,r3
 a8046e0:	41800a2e 	bgeu	r8,r6,a80470c <memset+0x7c>
 a8046e4:	4005883a 	mov	r2,r8
 a8046e8:	31bffc04 	addi	r6,r6,-16
 a8046ec:	38c00015 	stw	r3,0(r7)
 a8046f0:	38c00115 	stw	r3,4(r7)
 a8046f4:	38c00215 	stw	r3,8(r7)
 a8046f8:	38c00315 	stw	r3,12(r7)
 a8046fc:	39c00404 	addi	r7,r7,16
 a804700:	11bff936 	bltu	r2,r6,a8046e8 <memset+0x58>
 a804704:	008000c4 	movi	r2,3
 a804708:	1180052e 	bgeu	r2,r6,a804720 <memset+0x90>
 a80470c:	31bfff04 	addi	r6,r6,-4
 a804710:	008000c4 	movi	r2,3
 a804714:	38c00015 	stw	r3,0(r7)
 a804718:	39c00104 	addi	r7,r7,4
 a80471c:	11bffb36 	bltu	r2,r6,a80470c <memset+0x7c>
 a804720:	3807883a 	mov	r3,r7
 a804724:	003fe006 	br	a8046a8 <memset+0x18>

0a804728 <_open_r>:
 a804728:	defffd04 	addi	sp,sp,-12
 a80472c:	dc000015 	stw	r16,0(sp)
 a804730:	0402a074 	movhi	r16,2689
 a804734:	841ea704 	addi	r16,r16,31388
 a804738:	dc400115 	stw	r17,4(sp)
 a80473c:	80000015 	stw	zero,0(r16)
 a804740:	2023883a 	mov	r17,r4
 a804744:	2809883a 	mov	r4,r5
 a804748:	300b883a 	mov	r5,r6
 a80474c:	380d883a 	mov	r6,r7
 a804750:	dfc00215 	stw	ra,8(sp)
 a804754:	a80d58c0 	call	a80d58c <open>
 a804758:	1007883a 	mov	r3,r2
 a80475c:	00bfffc4 	movi	r2,-1
 a804760:	18800626 	beq	r3,r2,a80477c <_open_r+0x54>
 a804764:	1805883a 	mov	r2,r3
 a804768:	dfc00217 	ldw	ra,8(sp)
 a80476c:	dc400117 	ldw	r17,4(sp)
 a804770:	dc000017 	ldw	r16,0(sp)
 a804774:	dec00304 	addi	sp,sp,12
 a804778:	f800283a 	ret
 a80477c:	80800017 	ldw	r2,0(r16)
 a804780:	103ff826 	beq	r2,zero,a804764 <_open_r+0x3c>
 a804784:	88800015 	stw	r2,0(r17)
 a804788:	1805883a 	mov	r2,r3
 a80478c:	dfc00217 	ldw	ra,8(sp)
 a804790:	dc400117 	ldw	r17,4(sp)
 a804794:	dc000017 	ldw	r16,0(sp)
 a804798:	dec00304 	addi	sp,sp,12
 a80479c:	f800283a 	ret

0a8047a0 <printf>:
 a8047a0:	defffb04 	addi	sp,sp,-20
 a8047a4:	dfc00115 	stw	ra,4(sp)
 a8047a8:	d9400215 	stw	r5,8(sp)
 a8047ac:	d9800315 	stw	r6,12(sp)
 a8047b0:	d9c00415 	stw	r7,16(sp)
 a8047b4:	0082a074 	movhi	r2,2689
 a8047b8:	10977204 	addi	r2,r2,24008
 a8047bc:	10c00017 	ldw	r3,0(r2)
 a8047c0:	200b883a 	mov	r5,r4
 a8047c4:	d8800204 	addi	r2,sp,8
 a8047c8:	19000217 	ldw	r4,8(r3)
 a8047cc:	100d883a 	mov	r6,r2
 a8047d0:	d8800015 	stw	r2,0(sp)
 a8047d4:	a806cb40 	call	a806cb4 <__vfprintf_internal>
 a8047d8:	dfc00117 	ldw	ra,4(sp)
 a8047dc:	dec00504 	addi	sp,sp,20
 a8047e0:	f800283a 	ret

0a8047e4 <_printf_r>:
 a8047e4:	defffc04 	addi	sp,sp,-16
 a8047e8:	dfc00115 	stw	ra,4(sp)
 a8047ec:	d9800215 	stw	r6,8(sp)
 a8047f0:	d9c00315 	stw	r7,12(sp)
 a8047f4:	280d883a 	mov	r6,r5
 a8047f8:	21400217 	ldw	r5,8(r4)
 a8047fc:	d8c00204 	addi	r3,sp,8
 a804800:	180f883a 	mov	r7,r3
 a804804:	d8c00015 	stw	r3,0(sp)
 a804808:	a804e080 	call	a804e08 <___vfprintf_internal_r>
 a80480c:	dfc00117 	ldw	ra,4(sp)
 a804810:	dec00404 	addi	sp,sp,16
 a804814:	f800283a 	ret

0a804818 <_puts_r>:
 a804818:	defff604 	addi	sp,sp,-40
 a80481c:	dc400715 	stw	r17,28(sp)
 a804820:	2023883a 	mov	r17,r4
 a804824:	2809883a 	mov	r4,r5
 a804828:	dfc00915 	stw	ra,36(sp)
 a80482c:	dcc00815 	stw	r19,32(sp)
 a804830:	2827883a 	mov	r19,r5
 a804834:	a804d3c0 	call	a804d3c <strlen>
 a804838:	89400217 	ldw	r5,8(r17)
 a80483c:	00c2a074 	movhi	r3,2689
 a804840:	18cef304 	addi	r3,r3,15308
 a804844:	01c00044 	movi	r7,1
 a804848:	12000044 	addi	r8,r2,1
 a80484c:	d8c00515 	stw	r3,20(sp)
 a804850:	d9c00615 	stw	r7,24(sp)
 a804854:	d8c00304 	addi	r3,sp,12
 a804858:	01c00084 	movi	r7,2
 a80485c:	8809883a 	mov	r4,r17
 a804860:	d80d883a 	mov	r6,sp
 a804864:	d8c00015 	stw	r3,0(sp)
 a804868:	dcc00315 	stw	r19,12(sp)
 a80486c:	da000215 	stw	r8,8(sp)
 a804870:	d9c00115 	stw	r7,4(sp)
 a804874:	d8800415 	stw	r2,16(sp)
 a804878:	a80885c0 	call	a80885c <__sfvwrite_r>
 a80487c:	00ffffc4 	movi	r3,-1
 a804880:	10000626 	beq	r2,zero,a80489c <_puts_r+0x84>
 a804884:	1805883a 	mov	r2,r3
 a804888:	dfc00917 	ldw	ra,36(sp)
 a80488c:	dcc00817 	ldw	r19,32(sp)
 a804890:	dc400717 	ldw	r17,28(sp)
 a804894:	dec00a04 	addi	sp,sp,40
 a804898:	f800283a 	ret
 a80489c:	00c00284 	movi	r3,10
 a8048a0:	1805883a 	mov	r2,r3
 a8048a4:	dfc00917 	ldw	ra,36(sp)
 a8048a8:	dcc00817 	ldw	r19,32(sp)
 a8048ac:	dc400717 	ldw	r17,28(sp)
 a8048b0:	dec00a04 	addi	sp,sp,40
 a8048b4:	f800283a 	ret

0a8048b8 <puts>:
 a8048b8:	0082a074 	movhi	r2,2689
 a8048bc:	10977204 	addi	r2,r2,24008
 a8048c0:	200b883a 	mov	r5,r4
 a8048c4:	11000017 	ldw	r4,0(r2)
 a8048c8:	a8048181 	jmpi	a804818 <_puts_r>

0a8048cc <__srefill_r>:
 a8048cc:	defffd04 	addi	sp,sp,-12
 a8048d0:	dc400115 	stw	r17,4(sp)
 a8048d4:	dc000015 	stw	r16,0(sp)
 a8048d8:	dfc00215 	stw	ra,8(sp)
 a8048dc:	2023883a 	mov	r17,r4
 a8048e0:	2821883a 	mov	r16,r5
 a8048e4:	20000226 	beq	r4,zero,a8048f0 <__srefill_r+0x24>
 a8048e8:	20800e17 	ldw	r2,56(r4)
 a8048ec:	10004126 	beq	r2,zero,a8049f4 <__srefill_r+0x128>
 a8048f0:	80c0030b 	ldhu	r3,12(r16)
 a8048f4:	80000115 	stw	zero,4(r16)
 a8048f8:	1880080c 	andi	r2,r3,32
 a8048fc:	1000361e 	bne	r2,zero,a8049d8 <__srefill_r+0x10c>
 a804900:	1880010c 	andi	r2,r3,4
 a804904:	1000211e 	bne	r2,zero,a80498c <__srefill_r+0xc0>
 a804908:	1880040c 	andi	r2,r3,16
 a80490c:	10005026 	beq	r2,zero,a804a50 <__srefill_r+0x184>
 a804910:	1880020c 	andi	r2,r3,8
 a804914:	1000541e 	bne	r2,zero,a804a68 <__srefill_r+0x19c>
 a804918:	8080030b 	ldhu	r2,12(r16)
 a80491c:	10800114 	ori	r2,r2,4
 a804920:	8080030d 	sth	r2,12(r16)
 a804924:	80800417 	ldw	r2,16(r16)
 a804928:	10004526 	beq	r2,zero,a804a40 <__srefill_r+0x174>
 a80492c:	8080030b 	ldhu	r2,12(r16)
 a804930:	108000cc 	andi	r2,r2,3
 a804934:	1000361e 	bne	r2,zero,a804a10 <__srefill_r+0x144>
 a804938:	81800417 	ldw	r6,16(r16)
 a80493c:	80c00817 	ldw	r3,32(r16)
 a804940:	81400717 	ldw	r5,28(r16)
 a804944:	81c00517 	ldw	r7,20(r16)
 a804948:	8809883a 	mov	r4,r17
 a80494c:	81800015 	stw	r6,0(r16)
 a804950:	183ee83a 	callr	r3
 a804954:	80c0030b 	ldhu	r3,12(r16)
 a804958:	1009883a 	mov	r4,r2
 a80495c:	80800115 	stw	r2,4(r16)
 a804960:	00b7ffc4 	movi	r2,-8193
 a804964:	1884703a 	and	r2,r3,r2
 a804968:	8080030d 	sth	r2,12(r16)
 a80496c:	0100230e 	bge	zero,r4,a8049fc <__srefill_r+0x130>
 a804970:	0009883a 	mov	r4,zero
 a804974:	2005883a 	mov	r2,r4
 a804978:	dfc00217 	ldw	ra,8(sp)
 a80497c:	dc400117 	ldw	r17,4(sp)
 a804980:	dc000017 	ldw	r16,0(sp)
 a804984:	dec00304 	addi	sp,sp,12
 a804988:	f800283a 	ret
 a80498c:	81400c17 	ldw	r5,48(r16)
 a804990:	283fe426 	beq	r5,zero,a804924 <__srefill_r+0x58>
 a804994:	80801004 	addi	r2,r16,64
 a804998:	28800226 	beq	r5,r2,a8049a4 <__srefill_r+0xd8>
 a80499c:	8809883a 	mov	r4,r17
 a8049a0:	a8033780 	call	a803378 <_free_r>
 a8049a4:	80800f17 	ldw	r2,60(r16)
 a8049a8:	80000c15 	stw	zero,48(r16)
 a8049ac:	80800115 	stw	r2,4(r16)
 a8049b0:	103fdc26 	beq	r2,zero,a804924 <__srefill_r+0x58>
 a8049b4:	80800e17 	ldw	r2,56(r16)
 a8049b8:	0009883a 	mov	r4,zero
 a8049bc:	80800015 	stw	r2,0(r16)
 a8049c0:	2005883a 	mov	r2,r4
 a8049c4:	dfc00217 	ldw	ra,8(sp)
 a8049c8:	dc400117 	ldw	r17,4(sp)
 a8049cc:	dc000017 	ldw	r16,0(sp)
 a8049d0:	dec00304 	addi	sp,sp,12
 a8049d4:	f800283a 	ret
 a8049d8:	013fffc4 	movi	r4,-1
 a8049dc:	2005883a 	mov	r2,r4
 a8049e0:	dfc00217 	ldw	ra,8(sp)
 a8049e4:	dc400117 	ldw	r17,4(sp)
 a8049e8:	dc000017 	ldw	r16,0(sp)
 a8049ec:	dec00304 	addi	sp,sp,12
 a8049f0:	f800283a 	ret
 a8049f4:	a802ee40 	call	a802ee4 <__sinit>
 a8049f8:	003fbd06 	br	a8048f0 <__srefill_r+0x24>
 a8049fc:	20000b1e 	bne	r4,zero,a804a2c <__srefill_r+0x160>
 a804a00:	10800814 	ori	r2,r2,32
 a804a04:	013fffc4 	movi	r4,-1
 a804a08:	8080030d 	sth	r2,12(r16)
 a804a0c:	003fd906 	br	a804974 <__srefill_r+0xa8>
 a804a10:	0082a074 	movhi	r2,2689
 a804a14:	10977304 	addi	r2,r2,24012
 a804a18:	11000017 	ldw	r4,0(r2)
 a804a1c:	0142a034 	movhi	r5,2688
 a804a20:	2952a404 	addi	r5,r5,19088
 a804a24:	a803c280 	call	a803c28 <_fwalk>
 a804a28:	003fc306 	br	a804938 <__srefill_r+0x6c>
 a804a2c:	10801014 	ori	r2,r2,64
 a804a30:	013fffc4 	movi	r4,-1
 a804a34:	8080030d 	sth	r2,12(r16)
 a804a38:	80000115 	stw	zero,4(r16)
 a804a3c:	003fcd06 	br	a804974 <__srefill_r+0xa8>
 a804a40:	8809883a 	mov	r4,r17
 a804a44:	800b883a 	mov	r5,r16
 a804a48:	a803dbc0 	call	a803dbc <__smakebuf_r>
 a804a4c:	003fb706 	br	a80492c <__srefill_r+0x60>
 a804a50:	18c01014 	ori	r3,r3,64
 a804a54:	00800244 	movi	r2,9
 a804a58:	013fffc4 	movi	r4,-1
 a804a5c:	88800015 	stw	r2,0(r17)
 a804a60:	80c0030d 	sth	r3,12(r16)
 a804a64:	003fc306 	br	a804974 <__srefill_r+0xa8>
 a804a68:	8809883a 	mov	r4,r17
 a804a6c:	800b883a 	mov	r5,r16
 a804a70:	a802c4c0 	call	a802c4c <_fflush_r>
 a804a74:	103fd81e 	bne	r2,zero,a8049d8 <__srefill_r+0x10c>
 a804a78:	8080030b 	ldhu	r2,12(r16)
 a804a7c:	80000215 	stw	zero,8(r16)
 a804a80:	80000615 	stw	zero,24(r16)
 a804a84:	10bffdcc 	andi	r2,r2,65527
 a804a88:	8080030d 	sth	r2,12(r16)
 a804a8c:	003fa206 	br	a804918 <__srefill_r+0x4c>

0a804a90 <lflush>:
 a804a90:	20c0030b 	ldhu	r3,12(r4)
 a804a94:	01400244 	movi	r5,9
 a804a98:	0005883a 	mov	r2,zero
 a804a9c:	18c0024c 	andi	r3,r3,9
 a804aa0:	19400126 	beq	r3,r5,a804aa8 <lflush+0x18>
 a804aa4:	f800283a 	ret
 a804aa8:	a802e481 	jmpi	a802e48 <fflush>

0a804aac <_sbrk_r>:
 a804aac:	defffd04 	addi	sp,sp,-12
 a804ab0:	dc000015 	stw	r16,0(sp)
 a804ab4:	0402a074 	movhi	r16,2689
