Archive member included because of file (symbol)

d:/altera13.0sp1/nios2eds/bin/gnu/h-i686-mingw32/bin/../lib/gcc/nios2-elf/4.1.2\libgcc.a(lib2-divmod.o)
                              obj/default/main.o (__divsi3)
d:/altera13.0sp1/nios2eds/bin/gnu/h-i686-mingw32/bin/../lib/gcc/nios2-elf/4.1.2/../../../../nios2-elf/lib\libc.a(lib_a-fclose.o)
                              obj/default/LCD.o (fclose)
d:/altera13.0sp1/nios2eds/bin/gnu/h-i686-mingw32/bin/../lib/gcc/nios2-elf/4.1.2/../../../../nios2-elf/lib\libc.a(lib_a-fflush.o)
                              d:/altera13.0sp1/nios2eds/bin/gnu/h-i686-mingw32/bin/../lib/gcc/nios2-elf/4.1.2/../../../../nios2-elf/lib\libc.a(lib_a-fclose.o) (_fflush_r)
d:/altera13.0sp1/nios2eds/bin/gnu/h-i686-mingw32/bin/../lib/gcc/nios2-elf/4.1.2/../../../../nios2-elf/lib\libc.a(lib_a-findfp.o)
                              d:/altera13.0sp1/nios2eds/bin/gnu/h-i686-mingw32/bin/../lib/gcc/nios2-elf/4.1.2/../../../../nios2-elf/lib\libc.a(lib_a-fclose.o) (__sfp_lock_acquire)
d:/altera13.0sp1/nios2eds/bin/gnu/h-i686-mingw32/bin/../lib/gcc/nios2-elf/4.1.2/../../../../nios2-elf/lib\libc.a(lib_a-fopen.o)
                              obj/default/LCD.o (fopen)
d:/altera13.0sp1/nios2eds/bin/gnu/h-i686-mingw32/bin/../lib/gcc/nios2-elf/4.1.2/../../../../nios2-elf/lib\libc.a(lib_a-freer.o)
                              d:/altera13.0sp1/nios2eds/bin/gnu/h-i686-mingw32/bin/../lib/gcc/nios2-elf/4.1.2/../../../../nios2-elf/lib\libc.a(lib_a-fclose.o) (_free_r)
d:/altera13.0sp1/nios2eds/bin/gnu/h-i686-mingw32/bin/../lib/gcc/nios2-elf/4.1.2/../../../../nios2-elf/lib\libc.a(lib_a-fseek.o)
                              d:/altera13.0sp1/nios2eds/bin/gnu/h-i686-mingw32/bin/../lib/gcc/nios2-elf/4.1.2/../../../../nios2-elf/lib\libc.a(lib_a-fopen.o) (_fseek_r)
d:/altera13.0sp1/nios2eds/bin/gnu/h-i686-mingw32/bin/../lib/gcc/nios2-elf/4.1.2/../../../../nios2-elf/lib\libc.a(lib_a-fstatr.o)
                              d:/altera13.0sp1/nios2eds/bin/gnu/h-i686-mingw32/bin/../lib/gcc/nios2-elf/4.1.2/../../../../nios2-elf/lib\libc.a(lib_a-fseek.o) (_fstat_r)
d:/altera13.0sp1/nios2eds/bin/gnu/h-i686-mingw32/bin/../lib/gcc/nios2-elf/4.1.2/../../../../nios2-elf/lib\libc.a(lib_a-fwalk.o)
                              d:/altera13.0sp1/nios2eds/bin/gnu/h-i686-mingw32/bin/../lib/gcc/nios2-elf/4.1.2/../../../../nios2-elf/lib\libc.a(lib_a-fflush.o) (_fwalk_reent)
d:/altera13.0sp1/nios2eds/bin/gnu/h-i686-mingw32/bin/../lib/gcc/nios2-elf/4.1.2/../../../../nios2-elf/lib\libc.a(lib_a-fwrite.o)
                              obj/default/LCD.o (fwrite)
d:/altera13.0sp1/nios2eds/bin/gnu/h-i686-mingw32/bin/../lib/gcc/nios2-elf/4.1.2/../../../../nios2-elf/lib\libc.a(lib_a-impure.o)
                              d:/altera13.0sp1/nios2eds/bin/gnu/h-i686-mingw32/bin/../lib/gcc/nios2-elf/4.1.2/../../../../nios2-elf/lib\libc.a(lib_a-fclose.o) (_impure_ptr)
d:/altera13.0sp1/nios2eds/bin/gnu/h-i686-mingw32/bin/../lib/gcc/nios2-elf/4.1.2/../../../../nios2-elf/lib\libc.a(lib_a-int_errno.o)
                              d:/altera13.0sp1/nios2eds/bin/gnu/h-i686-mingw32/bin/../lib/gcc/nios2-elf/4.1.2/../../../../nios2-elf/lib\libc.a(lib_a-fstatr.o) (errno)
d:/altera13.0sp1/nios2eds/bin/gnu/h-i686-mingw32/bin/../lib/gcc/nios2-elf/4.1.2/../../../../nios2-elf/lib\libc.a(lib_a-makebuf.o)
                              d:/altera13.0sp1/nios2eds/bin/gnu/h-i686-mingw32/bin/../lib/gcc/nios2-elf/4.1.2/../../../../nios2-elf/lib\libc.a(lib_a-fseek.o) (__smakebuf_r)
d:/altera13.0sp1/nios2eds/bin/gnu/h-i686-mingw32/bin/../lib/gcc/nios2-elf/4.1.2/../../../../nios2-elf/lib\libc.a(lib_a-mallocr.o)
                              d:/altera13.0sp1/nios2eds/bin/gnu/h-i686-mingw32/bin/../lib/gcc/nios2-elf/4.1.2/../../../../nios2-elf/lib\libc.a(lib_a-findfp.o) (_malloc_r)
d:/altera13.0sp1/nios2eds/bin/gnu/h-i686-mingw32/bin/../lib/gcc/nios2-elf/4.1.2/../../../../nios2-elf/lib\libc.a(lib_a-memset.o)
                              obj/default/LCD.o (memset)
d:/altera13.0sp1/nios2eds/bin/gnu/h-i686-mingw32/bin/../lib/gcc/nios2-elf/4.1.2/../../../../nios2-elf/lib\libc.a(lib_a-openr.o)
                              d:/altera13.0sp1/nios2eds/bin/gnu/h-i686-mingw32/bin/../lib/gcc/nios2-elf/4.1.2/../../../../nios2-elf/lib\libc.a(lib_a-fopen.o) (_open_r)
d:/altera13.0sp1/nios2eds/bin/gnu/h-i686-mingw32/bin/../lib/gcc/nios2-elf/4.1.2/../../../../nios2-elf/lib\libc.a(lib_a-printf.o)
                              obj/default/debug.o (printf)
d:/altera13.0sp1/nios2eds/bin/gnu/h-i686-mingw32/bin/../lib/gcc/nios2-elf/4.1.2/../../../../nios2-elf/lib\libc.a(lib_a-puts.o)
                              obj/default/main.o (puts)
d:/altera13.0sp1/nios2eds/bin/gnu/h-i686-mingw32/bin/../lib/gcc/nios2-elf/4.1.2/../../../../nios2-elf/lib\libc.a(lib_a-refill.o)
                              d:/altera13.0sp1/nios2eds/bin/gnu/h-i686-mingw32/bin/../lib/gcc/nios2-elf/4.1.2/../../../../nios2-elf/lib\libc.a(lib_a-fseek.o) (__srefill_r)
d:/altera13.0sp1/nios2eds/bin/gnu/h-i686-mingw32/bin/../lib/gcc/nios2-elf/4.1.2/../../../../nios2-elf/lib\libc.a(lib_a-sbrkr.o)
                              d:/altera13.0sp1/nios2eds/bin/gnu/h-i686-mingw32/bin/../lib/gcc/nios2-elf/4.1.2/../../../../nios2-elf/lib\libc.a(lib_a-freer.o) (_sbrk_r)
d:/altera13.0sp1/nios2eds/bin/gnu/h-i686-mingw32/bin/../lib/gcc/nios2-elf/4.1.2/../../../../nios2-elf/lib\libc.a(lib_a-sprintf.o)
                              obj/default/debug.o (sprintf)
d:/altera13.0sp1/nios2eds/bin/gnu/h-i686-mingw32/bin/../lib/gcc/nios2-elf/4.1.2/../../../../nios2-elf/lib\libc.a(lib_a-stdio.o)
                              d:/altera13.0sp1/nios2eds/bin/gnu/h-i686-mingw32/bin/../lib/gcc/nios2-elf/4.1.2/../../../../nios2-elf/lib\libc.a(lib_a-findfp.o) (__sclose)
d:/altera13.0sp1/nios2eds/bin/gnu/h-i686-mingw32/bin/../lib/gcc/nios2-elf/4.1.2/../../../../nios2-elf/lib\libc.a(lib_a-strlen.o)
                              obj/default/LCD.o (strlen)
d:/altera13.0sp1/nios2eds/bin/gnu/h-i686-mingw32/bin/../lib/gcc/nios2-elf/4.1.2/../../../../nios2-elf/lib\libc.a(lib_a-vfprintf.o)
                              d:/altera13.0sp1/nios2eds/bin/gnu/h-i686-mingw32/bin/../lib/gcc/nios2-elf/4.1.2/../../../../nios2-elf/lib\libc.a(lib_a-printf.o) (___vfprintf_internal_r)
d:/altera13.0sp1/nios2eds/bin/gnu/h-i686-mingw32/bin/../lib/gcc/nios2-elf/4.1.2/../../../../nios2-elf/lib\libc.a(lib_a-vsnprintf.o)
                              obj/default/debug.o (vsnprintf)
d:/altera13.0sp1/nios2eds/bin/gnu/h-i686-mingw32/bin/../lib/gcc/nios2-elf/4.1.2/../../../../nios2-elf/lib\libc.a(lib_a-writer.o)
                              d:/altera13.0sp1/nios2eds/bin/gnu/h-i686-mingw32/bin/../lib/gcc/nios2-elf/4.1.2/../../../../nios2-elf/lib\libc.a(lib_a-stdio.o) (_write_r)
d:/altera13.0sp1/nios2eds/bin/gnu/h-i686-mingw32/bin/../lib/gcc/nios2-elf/4.1.2/../../../../nios2-elf/lib\libc.a(lib_a-wsetup.o)
                              d:/altera13.0sp1/nios2eds/bin/gnu/h-i686-mingw32/bin/../lib/gcc/nios2-elf/4.1.2/../../../../nios2-elf/lib\libc.a(lib_a-vfprintf.o) (__swsetup_r)
d:/altera13.0sp1/nios2eds/bin/gnu/h-i686-mingw32/bin/../lib/gcc/nios2-elf/4.1.2/../../../../nios2-elf/lib\libc.a(lib_a-closer.o)
                              d:/altera13.0sp1/nios2eds/bin/gnu/h-i686-mingw32/bin/../lib/gcc/nios2-elf/4.1.2/../../../../nios2-elf/lib\libc.a(lib_a-stdio.o) (_close_r)
d:/altera13.0sp1/nios2eds/bin/gnu/h-i686-mingw32/bin/../lib/gcc/nios2-elf/4.1.2/../../../../nios2-elf/lib\libc.a(lib_a-dtoa.o)
                              d:/altera13.0sp1/nios2eds/bin/gnu/h-i686-mingw32/bin/../lib/gcc/nios2-elf/4.1.2/../../../../nios2-elf/lib\libc.a(lib_a-vfprintf.o) (_dtoa_r)
d:/altera13.0sp1/nios2eds/bin/gnu/h-i686-mingw32/bin/../lib/gcc/nios2-elf/4.1.2/../../../../nios2-elf/lib\libc.a(lib_a-flags.o)
                              d:/altera13.0sp1/nios2eds/bin/gnu/h-i686-mingw32/bin/../lib/gcc/nios2-elf/4.1.2/../../../../nios2-elf/lib\libc.a(lib_a-fopen.o) (__sflags)
d:/altera13.0sp1/nios2eds/bin/gnu/h-i686-mingw32/bin/../lib/gcc/nios2-elf/4.1.2/../../../../nios2-elf/lib\libc.a(lib_a-fvwrite.o)
                              d:/altera13.0sp1/nios2eds/bin/gnu/h-i686-mingw32/bin/../lib/gcc/nios2-elf/4.1.2/../../../../nios2-elf/lib\libc.a(lib_a-fwrite.o) (__sfvwrite_r)
d:/altera13.0sp1/nios2eds/bin/gnu/h-i686-mingw32/bin/../lib/gcc/nios2-elf/4.1.2/../../../../nios2-elf/lib\libc.a(lib_a-isattyr.o)
                              d:/altera13.0sp1/nios2eds/bin/gnu/h-i686-mingw32/bin/../lib/gcc/nios2-elf/4.1.2/../../../../nios2-elf/lib\libc.a(lib_a-makebuf.o) (_isatty_r)
d:/altera13.0sp1/nios2eds/bin/gnu/h-i686-mingw32/bin/../lib/gcc/nios2-elf/4.1.2/../../../../nios2-elf/lib\libc.a(lib_a-locale.o)
                              d:/altera13.0sp1/nios2eds/bin/gnu/h-i686-mingw32/bin/../lib/gcc/nios2-elf/4.1.2/../../../../nios2-elf/lib\libc.a(lib_a-vfprintf.o) (_localeconv_r)
d:/altera13.0sp1/nios2eds/bin/gnu/h-i686-mingw32/bin/../lib/gcc/nios2-elf/4.1.2/../../../../nios2-elf/lib\libc.a(lib_a-lseekr.o)
                              d:/altera13.0sp1/nios2eds/bin/gnu/h-i686-mingw32/bin/../lib/gcc/nios2-elf/4.1.2/../../../../nios2-elf/lib\libc.a(lib_a-stdio.o) (_lseek_r)
d:/altera13.0sp1/nios2eds/bin/gnu/h-i686-mingw32/bin/../lib/gcc/nios2-elf/4.1.2/../../../../nios2-elf/lib\libc.a(lib_a-memchr.o)
                              d:/altera13.0sp1/nios2eds/bin/gnu/h-i686-mingw32/bin/../lib/gcc/nios2-elf/4.1.2/../../../../nios2-elf/lib\libc.a(lib_a-vfprintf.o) (memchr)
d:/altera13.0sp1/nios2eds/bin/gnu/h-i686-mingw32/bin/../lib/gcc/nios2-elf/4.1.2/../../../../nios2-elf/lib\libc.a(lib_a-memcpy.o)
                              d:/altera13.0sp1/nios2eds/bin/gnu/h-i686-mingw32/bin/../lib/gcc/nios2-elf/4.1.2/../../../../nios2-elf/lib\libc.a(lib_a-dtoa.o) (memcpy)
d:/altera13.0sp1/nios2eds/bin/gnu/h-i686-mingw32/bin/../lib/gcc/nios2-elf/4.1.2/../../../../nios2-elf/lib\libc.a(lib_a-memmove.o)
                              d:/altera13.0sp1/nios2eds/bin/gnu/h-i686-mingw32/bin/../lib/gcc/nios2-elf/4.1.2/../../../../nios2-elf/lib\libc.a(lib_a-fvwrite.o) (memmove)
d:/altera13.0sp1/nios2eds/bin/gnu/h-i686-mingw32/bin/../lib/gcc/nios2-elf/4.1.2/../../../../nios2-elf/lib\libc.a(lib_a-mprec.o)
                              d:/altera13.0sp1/nios2eds/bin/gnu/h-i686-mingw32/bin/../lib/gcc/nios2-elf/4.1.2/../../../../nios2-elf/lib\libc.a(lib_a-dtoa.o) (_Bfree)
d:/altera13.0sp1/nios2eds/bin/gnu/h-i686-mingw32/bin/../lib/gcc/nios2-elf/4.1.2/../../../../nios2-elf/lib\libc.a(lib_a-readr.o)
                              d:/altera13.0sp1/nios2eds/bin/gnu/h-i686-mingw32/bin/../lib/gcc/nios2-elf/4.1.2/../../../../nios2-elf/lib\libc.a(lib_a-stdio.o) (_read_r)
d:/altera13.0sp1/nios2eds/bin/gnu/h-i686-mingw32/bin/../lib/gcc/nios2-elf/4.1.2/../../../../nios2-elf/lib\libc.a(lib_a-reallocr.o)
                              d:/altera13.0sp1/nios2eds/bin/gnu/h-i686-mingw32/bin/../lib/gcc/nios2-elf/4.1.2/../../../../nios2-elf/lib\libc.a(lib_a-fvwrite.o) (_realloc_r)
d:/altera13.0sp1/nios2eds/bin/gnu/h-i686-mingw32/bin/../lib/gcc/nios2-elf/4.1.2/../../../../nios2-elf/lib\libc.a(lib_a-s_isinfd.o)
                              d:/altera13.0sp1/nios2eds/bin/gnu/h-i686-mingw32/bin/../lib/gcc/nios2-elf/4.1.2/../../../../nios2-elf/lib\libc.a(lib_a-vfprintf.o) (__isinfd)
d:/altera13.0sp1/nios2eds/bin/gnu/h-i686-mingw32/bin/../lib/gcc/nios2-elf/4.1.2/../../../../nios2-elf/lib\libc.a(lib_a-s_isnand.o)
                              d:/altera13.0sp1/nios2eds/bin/gnu/h-i686-mingw32/bin/../lib/gcc/nios2-elf/4.1.2/../../../../nios2-elf/lib\libc.a(lib_a-vfprintf.o) (__isnand)
d:/altera13.0sp1/nios2eds/bin/gnu/h-i686-mingw32/bin/../lib/gcc/nios2-elf/4.1.2/../../../../nios2-elf/lib\libc.a(lib_a-strcmp.o)
                              d:/altera13.0sp1/nios2eds/bin/gnu/h-i686-mingw32/bin/../lib/gcc/nios2-elf/4.1.2/../../../../nios2-elf/lib\libc.a(lib_a-locale.o) (strcmp)
d:/altera13.0sp1/nios2eds/bin/gnu/h-i686-mingw32/bin/../lib/gcc/nios2-elf/4.1.2/../../../../nios2-elf/lib\libc.a(lib_a-callocr.o)
                              d:/altera13.0sp1/nios2eds/bin/gnu/h-i686-mingw32/bin/../lib/gcc/nios2-elf/4.1.2/../../../../nios2-elf/lib\libc.a(lib_a-mprec.o) (_calloc_r)
d:/altera13.0sp1/nios2eds/bin/gnu/h-i686-mingw32/bin/../lib/gcc/nios2-elf/4.1.2\libgcc.a(_udivdi3.o)
                              d:/altera13.0sp1/nios2eds/bin/gnu/h-i686-mingw32/bin/../lib/gcc/nios2-elf/4.1.2/../../../../nios2-elf/lib\libc.a(lib_a-vfprintf.o) (__udivdi3)
d:/altera13.0sp1/nios2eds/bin/gnu/h-i686-mingw32/bin/../lib/gcc/nios2-elf/4.1.2\libgcc.a(_umoddi3.o)
                              d:/altera13.0sp1/nios2eds/bin/gnu/h-i686-mingw32/bin/../lib/gcc/nios2-elf/4.1.2/../../../../nios2-elf/lib\libc.a(lib_a-vfprintf.o) (__umoddi3)
d:/altera13.0sp1/nios2eds/bin/gnu/h-i686-mingw32/bin/../lib/gcc/nios2-elf/4.1.2\libgcc.a(_addsub_df.o)
                              d:/altera13.0sp1/nios2eds/bin/gnu/h-i686-mingw32/bin/../lib/gcc/nios2-elf/4.1.2/../../../../nios2-elf/lib\libc.a(lib_a-dtoa.o) (__subdf3)
d:/altera13.0sp1/nios2eds/bin/gnu/h-i686-mingw32/bin/../lib/gcc/nios2-elf/4.1.2\libgcc.a(_mul_df.o)
                              d:/altera13.0sp1/nios2eds/bin/gnu/h-i686-mingw32/bin/../lib/gcc/nios2-elf/4.1.2/../../../../nios2-elf/lib\libc.a(lib_a-dtoa.o) (__muldf3)
d:/altera13.0sp1/nios2eds/bin/gnu/h-i686-mingw32/bin/../lib/gcc/nios2-elf/4.1.2\libgcc.a(_div_df.o)
                              d:/altera13.0sp1/nios2eds/bin/gnu/h-i686-mingw32/bin/../lib/gcc/nios2-elf/4.1.2/../../../../nios2-elf/lib\libc.a(lib_a-dtoa.o) (__divdf3)
d:/altera13.0sp1/nios2eds/bin/gnu/h-i686-mingw32/bin/../lib/gcc/nios2-elf/4.1.2\libgcc.a(_eq_df.o)
                              d:/altera13.0sp1/nios2eds/bin/gnu/h-i686-mingw32/bin/../lib/gcc/nios2-elf/4.1.2/../../../../nios2-elf/lib\libc.a(lib_a-vfprintf.o) (__eqdf2)
d:/altera13.0sp1/nios2eds/bin/gnu/h-i686-mingw32/bin/../lib/gcc/nios2-elf/4.1.2\libgcc.a(_ne_df.o)
                              d:/altera13.0sp1/nios2eds/bin/gnu/h-i686-mingw32/bin/../lib/gcc/nios2-elf/4.1.2/../../../../nios2-elf/lib\libc.a(lib_a-vfprintf.o) (__nedf2)
d:/altera13.0sp1/nios2eds/bin/gnu/h-i686-mingw32/bin/../lib/gcc/nios2-elf/4.1.2\libgcc.a(_gt_df.o)
                              d:/altera13.0sp1/nios2eds/bin/gnu/h-i686-mingw32/bin/../lib/gcc/nios2-elf/4.1.2/../../../../nios2-elf/lib\libc.a(lib_a-dtoa.o) (__gtdf2)
d:/altera13.0sp1/nios2eds/bin/gnu/h-i686-mingw32/bin/../lib/gcc/nios2-elf/4.1.2\libgcc.a(_ge_df.o)
                              d:/altera13.0sp1/nios2eds/bin/gnu/h-i686-mingw32/bin/../lib/gcc/nios2-elf/4.1.2/../../../../nios2-elf/lib\libc.a(lib_a-dtoa.o) (__gedf2)
d:/altera13.0sp1/nios2eds/bin/gnu/h-i686-mingw32/bin/../lib/gcc/nios2-elf/4.1.2\libgcc.a(_lt_df.o)
                              d:/altera13.0sp1/nios2eds/bin/gnu/h-i686-mingw32/bin/../lib/gcc/nios2-elf/4.1.2/../../../../nios2-elf/lib\libc.a(lib_a-vfprintf.o) (__ltdf2)
d:/altera13.0sp1/nios2eds/bin/gnu/h-i686-mingw32/bin/../lib/gcc/nios2-elf/4.1.2\libgcc.a(_si_to_df.o)
                              d:/altera13.0sp1/nios2eds/bin/gnu/h-i686-mingw32/bin/../lib/gcc/nios2-elf/4.1.2/../../../../nios2-elf/lib\libc.a(lib_a-dtoa.o) (__floatsidf)
d:/altera13.0sp1/nios2eds/bin/gnu/h-i686-mingw32/bin/../lib/gcc/nios2-elf/4.1.2\libgcc.a(_df_to_si.o)
                              d:/altera13.0sp1/nios2eds/bin/gnu/h-i686-mingw32/bin/../lib/gcc/nios2-elf/4.1.2/../../../../nios2-elf/lib\libc.a(lib_a-dtoa.o) (__fixdfsi)
d:/altera13.0sp1/nios2eds/bin/gnu/h-i686-mingw32/bin/../lib/gcc/nios2-elf/4.1.2\libgcc.a(_thenan_df.o)
                              d:/altera13.0sp1/nios2eds/bin/gnu/h-i686-mingw32/bin/../lib/gcc/nios2-elf/4.1.2\libgcc.a(_addsub_df.o) (__thenan_df)
d:/altera13.0sp1/nios2eds/bin/gnu/h-i686-mingw32/bin/../lib/gcc/nios2-elf/4.1.2\libgcc.a(_usi_to_df.o)
                              d:/altera13.0sp1/nios2eds/bin/gnu/h-i686-mingw32/bin/../lib/gcc/nios2-elf/4.1.2/../../../../nios2-elf/lib\libc.a(lib_a-dtoa.o) (__floatunsidf)
d:/altera13.0sp1/nios2eds/bin/gnu/h-i686-mingw32/bin/../lib/gcc/nios2-elf/4.1.2\libgcc.a(_muldi3.o)
                              d:/altera13.0sp1/nios2eds/bin/gnu/h-i686-mingw32/bin/../lib/gcc/nios2-elf/4.1.2\libgcc.a(_mul_df.o) (__muldi3)
d:/altera13.0sp1/nios2eds/bin/gnu/h-i686-mingw32/bin/../lib/gcc/nios2-elf/4.1.2\libgcc.a(_clz.o)
                              d:/altera13.0sp1/nios2eds/bin/gnu/h-i686-mingw32/bin/../lib/gcc/nios2-elf/4.1.2\libgcc.a(_udivdi3.o) (__clz_tab)
d:/altera13.0sp1/nios2eds/bin/gnu/h-i686-mingw32/bin/../lib/gcc/nios2-elf/4.1.2\libgcc.a(_clzsi2.o)
                              d:/altera13.0sp1/nios2eds/bin/gnu/h-i686-mingw32/bin/../lib/gcc/nios2-elf/4.1.2\libgcc.a(_si_to_df.o) (__clzsi2)
d:/altera13.0sp1/nios2eds/bin/gnu/h-i686-mingw32/bin/../lib/gcc/nios2-elf/4.1.2\libgcc.a(_pack_df.o)
                              d:/altera13.0sp1/nios2eds/bin/gnu/h-i686-mingw32/bin/../lib/gcc/nios2-elf/4.1.2\libgcc.a(_addsub_df.o) (__pack_d)
d:/altera13.0sp1/nios2eds/bin/gnu/h-i686-mingw32/bin/../lib/gcc/nios2-elf/4.1.2\libgcc.a(_unpack_df.o)
                              d:/altera13.0sp1/nios2eds/bin/gnu/h-i686-mingw32/bin/../lib/gcc/nios2-elf/4.1.2\libgcc.a(_addsub_df.o) (__unpack_d)
d:/altera13.0sp1/nios2eds/bin/gnu/h-i686-mingw32/bin/../lib/gcc/nios2-elf/4.1.2\libgcc.a(_fpcmp_parts_df.o)
                              d:/altera13.0sp1/nios2eds/bin/gnu/h-i686-mingw32/bin/../lib/gcc/nios2-elf/4.1.2\libgcc.a(_eq_df.o) (__fpcmp_parts_d)
../DE2_115_Audio_bsp/\libhal_bsp.a(alt_close.o)
                              d:/altera13.0sp1/nios2eds/bin/gnu/h-i686-mingw32/bin/../lib/gcc/nios2-elf/4.1.2/../../../../nios2-elf/lib\libc.a(lib_a-closer.o) (close)
../DE2_115_Audio_bsp/\libhal_bsp.a(alt_dev.o)
                              ../DE2_115_Audio_bsp/\libhal_bsp.a(alt_close.o) (alt_fd_list)
../DE2_115_Audio_bsp/\libhal_bsp.a(alt_errno.o)
                              ../DE2_115_Audio_bsp/\libhal_bsp.a(alt_close.o) (alt_errno)
../DE2_115_Audio_bsp/\libhal_bsp.a(alt_fstat.o)
                              d:/altera13.0sp1/nios2eds/bin/gnu/h-i686-mingw32/bin/../lib/gcc/nios2-elf/4.1.2/../../../../nios2-elf/lib\libc.a(lib_a-fstatr.o) (fstat)
../DE2_115_Audio_bsp/\libhal_bsp.a(alt_irq_register.o)
                              obj/default/main.o (alt_irq_register)
../DE2_115_Audio_bsp/\libhal_bsp.a(alt_irq_vars.o)
                              ../DE2_115_Audio_bsp/\libhal_bsp.a(alt_irq_register.o) (alt_irq_active)
../DE2_115_Audio_bsp/\libhal_bsp.a(alt_isatty.o)
                              d:/altera13.0sp1/nios2eds/bin/gnu/h-i686-mingw32/bin/../lib/gcc/nios2-elf/4.1.2/../../../../nios2-elf/lib\libc.a(lib_a-isattyr.o) (isatty)
../DE2_115_Audio_bsp/\libhal_bsp.a(alt_load.o)
                              ../DE2_115_Audio_bsp//obj/HAL/src/crt0.o (alt_load)
../DE2_115_Audio_bsp/\libhal_bsp.a(alt_lseek.o)
                              d:/altera13.0sp1/nios2eds/bin/gnu/h-i686-mingw32/bin/../lib/gcc/nios2-elf/4.1.2/../../../../nios2-elf/lib\libc.a(lib_a-lseekr.o) (lseek)
../DE2_115_Audio_bsp/\libhal_bsp.a(alt_main.o)
                              ../DE2_115_Audio_bsp//obj/HAL/src/crt0.o (alt_main)
../DE2_115_Audio_bsp/\libhal_bsp.a(alt_malloc_lock.o)
                              d:/altera13.0sp1/nios2eds/bin/gnu/h-i686-mingw32/bin/../lib/gcc/nios2-elf/4.1.2/../../../../nios2-elf/lib\libc.a(lib_a-freer.o) (__malloc_lock)
../DE2_115_Audio_bsp/\libhal_bsp.a(alt_open.o)
                              d:/altera13.0sp1/nios2eds/bin/gnu/h-i686-mingw32/bin/../lib/gcc/nios2-elf/4.1.2/../../../../nios2-elf/lib\libc.a(lib_a-openr.o) (open)
../DE2_115_Audio_bsp/\libhal_bsp.a(alt_read.o)
                              d:/altera13.0sp1/nios2eds/bin/gnu/h-i686-mingw32/bin/../lib/gcc/nios2-elf/4.1.2/../../../../nios2-elf/lib\libc.a(lib_a-readr.o) (read)
../DE2_115_Audio_bsp/\libhal_bsp.a(alt_release_fd.o)
                              ../DE2_115_Audio_bsp/\libhal_bsp.a(alt_close.o) (alt_release_fd)
../DE2_115_Audio_bsp/\libhal_bsp.a(alt_sbrk.o)
                              d:/altera13.0sp1/nios2eds/bin/gnu/h-i686-mingw32/bin/../lib/gcc/nios2-elf/4.1.2/../../../../nios2-elf/lib\libc.a(lib_a-sbrkr.o) (sbrk)
../DE2_115_Audio_bsp/\libhal_bsp.a(alt_usleep.o)
                              obj/default/AUDIO.o (usleep)
../DE2_115_Audio_bsp/\libhal_bsp.a(alt_write.o)
                              d:/altera13.0sp1/nios2eds/bin/gnu/h-i686-mingw32/bin/../lib/gcc/nios2-elf/4.1.2/../../../../nios2-elf/lib\libc.a(lib_a-writer.o) (write)
../DE2_115_Audio_bsp/\libhal_bsp.a(alt_sys_init.o)
                              ../DE2_115_Audio_bsp/\libhal_bsp.a(alt_main.o) (alt_irq_init)
../DE2_115_Audio_bsp/\libhal_bsp.a(altera_avalon_cfi_flash.o)
                              ../DE2_115_Audio_bsp/\libhal_bsp.a(alt_sys_init.o) (alt_flash_cfi_init)
../DE2_115_Audio_bsp/\libhal_bsp.a(altera_avalon_cfi_flash_table.o)
                              ../DE2_115_Audio_bsp/\libhal_bsp.a(altera_avalon_cfi_flash.o) (alt_set_flash_width_func)
../DE2_115_Audio_bsp/\libhal_bsp.a(altera_avalon_jtag_uart_fd.o)
                              ../DE2_115_Audio_bsp/\libhal_bsp.a(alt_sys_init.o) (altera_avalon_jtag_uart_read_fd)
../DE2_115_Audio_bsp/\libhal_bsp.a(altera_avalon_jtag_uart_init.o)
                              ../DE2_115_Audio_bsp/\libhal_bsp.a(alt_sys_init.o) (altera_avalon_jtag_uart_init)
../DE2_115_Audio_bsp/\libhal_bsp.a(altera_avalon_jtag_uart_ioctl.o)
                              ../DE2_115_Audio_bsp/\libhal_bsp.a(altera_avalon_jtag_uart_fd.o) (altera_avalon_jtag_uart_ioctl)
../DE2_115_Audio_bsp/\libhal_bsp.a(altera_avalon_jtag_uart_read.o)
                              ../DE2_115_Audio_bsp/\libhal_bsp.a(altera_avalon_jtag_uart_fd.o) (altera_avalon_jtag_uart_read)
../DE2_115_Audio_bsp/\libhal_bsp.a(altera_avalon_jtag_uart_write.o)
                              ../DE2_115_Audio_bsp/\libhal_bsp.a(altera_avalon_jtag_uart_fd.o) (altera_avalon_jtag_uart_write)
../DE2_115_Audio_bsp/\libhal_bsp.a(altera_avalon_lcd_16207.o)
                              ../DE2_115_Audio_bsp/\libhal_bsp.a(alt_sys_init.o) (altera_avalon_lcd_16207_init)
../DE2_115_Audio_bsp/\libhal_bsp.a(altera_avalon_lcd_16207_fd.o)
                              ../DE2_115_Audio_bsp/\libhal_bsp.a(alt_sys_init.o) (altera_avalon_lcd_16207_write_fd)
../DE2_115_Audio_bsp/\libhal_bsp.a(alt_alarm_start.o)
                              ../DE2_115_Audio_bsp/\libhal_bsp.a(altera_avalon_jtag_uart_init.o) (alt_alarm_start)
../DE2_115_Audio_bsp/\libhal_bsp.a(alt_busy_sleep.o)
                              ../DE2_115_Audio_bsp/\libhal_bsp.a(alt_usleep.o) (alt_busy_sleep)
../DE2_115_Audio_bsp/\libhal_bsp.a(alt_dcache_flush.o)
                              ../DE2_115_Audio_bsp/\libhal_bsp.a(altera_avalon_cfi_flash.o) (alt_dcache_flush)
../DE2_115_Audio_bsp/\libhal_bsp.a(alt_dcache_flush_all.o)
                              ../DE2_115_Audio_bsp/\libhal_bsp.a(alt_load.o) (alt_dcache_flush_all)
../DE2_115_Audio_bsp/\libhal_bsp.a(alt_dev_llist_insert.o)
                              ../DE2_115_Audio_bsp/\libhal_bsp.a(alt_sys_init.o) (alt_dev_llist_insert)
../DE2_115_Audio_bsp/\libhal_bsp.a(alt_do_ctors.o)
                              ../DE2_115_Audio_bsp/\libhal_bsp.a(alt_main.o) (_do_ctors)
../DE2_115_Audio_bsp/\libhal_bsp.a(alt_do_dtors.o)
                              ../DE2_115_Audio_bsp/\libhal_bsp.a(alt_main.o) (_do_dtors)
../DE2_115_Audio_bsp/\libhal_bsp.a(alt_find_dev.o)
                              ../DE2_115_Audio_bsp/\libhal_bsp.a(alt_open.o) (alt_find_dev)
../DE2_115_Audio_bsp/\libhal_bsp.a(alt_find_file.o)
                              ../DE2_115_Audio_bsp/\libhal_bsp.a(alt_open.o) (alt_find_file)
../DE2_115_Audio_bsp/\libhal_bsp.a(alt_flash_dev.o)
                              ../DE2_115_Audio_bsp/\libhal_bsp.a(altera_avalon_cfi_flash.o) (alt_flash_dev_list)
../DE2_115_Audio_bsp/\libhal_bsp.a(alt_get_fd.o)
                              ../DE2_115_Audio_bsp/\libhal_bsp.a(alt_open.o) (alt_get_fd)
../DE2_115_Audio_bsp/\libhal_bsp.a(alt_icache_flush_all.o)
                              ../DE2_115_Audio_bsp/\libhal_bsp.a(alt_load.o) (alt_icache_flush_all)
../DE2_115_Audio_bsp/\libhal_bsp.a(alt_iic.o)
                              ../DE2_115_Audio_bsp/\libhal_bsp.a(altera_avalon_jtag_uart_init.o) (alt_ic_isr_register)
../DE2_115_Audio_bsp/\libhal_bsp.a(alt_iic_isr_register.o)
                              ../DE2_115_Audio_bsp/\libhal_bsp.a(alt_iic.o) (alt_iic_isr_register)
../DE2_115_Audio_bsp/\libhal_bsp.a(alt_io_redirect.o)
                              ../DE2_115_Audio_bsp/\libhal_bsp.a(alt_main.o) (alt_io_redirect)
../DE2_115_Audio_bsp/\libhal_bsp.a(alt_irq_entry.o)
                              ../DE2_115_Audio_bsp/\libhal_bsp.a(alt_irq_register.o) (alt_irq_entry)
../DE2_115_Audio_bsp/\libhal_bsp.a(alt_irq_handler.o)
                              ../DE2_115_Audio_bsp/\libhal_bsp.a(alt_irq_register.o) (alt_irq_handler)
../DE2_115_Audio_bsp/\libhal_bsp.a(alt_tick.o)
                              ../DE2_115_Audio_bsp/\libhal_bsp.a(altera_avalon_jtag_uart_init.o) (_alt_tick_rate)
../DE2_115_Audio_bsp/\libhal_bsp.a(altera_nios2_qsys_irq.o)
                              ../DE2_115_Audio_bsp/\libhal_bsp.a(alt_sys_init.o) (altera_nios2_qsys_irq_init)
../DE2_115_Audio_bsp/\libhal_bsp.a(altera_avalon_cfi_flash_amd.o)
                              ../DE2_115_Audio_bsp/\libhal_bsp.a(altera_avalon_cfi_flash_table.o) (alt_program_amd)
../DE2_115_Audio_bsp/\libhal_bsp.a(altera_avalon_cfi_flash_intel.o)
                              ../DE2_115_Audio_bsp/\libhal_bsp.a(altera_avalon_cfi_flash_table.o) (alt_program_intel)
../DE2_115_Audio_bsp/\libhal_bsp.a(alt_exception_entry.o)
                              ../DE2_115_Audio_bsp/\libhal_bsp.a(alt_irq_entry.o) (alt_exception)
../DE2_115_Audio_bsp/\libhal_bsp.a(alt_icache_flush.o)
                              ../DE2_115_Audio_bsp/\libhal_bsp.a(alt_icache_flush_all.o) (alt_icache_flush)
d:/altera13.0sp1/nios2eds/bin/gnu/h-i686-mingw32/bin/../lib/gcc/nios2-elf/4.1.2/../../../../nios2-elf/lib\libc.a(lib_a-atexit.o)
                              ../DE2_115_Audio_bsp/\libhal_bsp.a(alt_main.o) (atexit)
d:/altera13.0sp1/nios2eds/bin/gnu/h-i686-mingw32/bin/../lib/gcc/nios2-elf/4.1.2/../../../../nios2-elf/lib\libc.a(lib_a-ctype_.o)
                              ../DE2_115_Audio_bsp/\libhal_bsp.a(altera_avalon_lcd_16207.o) (__ctype_ptr)
d:/altera13.0sp1/nios2eds/bin/gnu/h-i686-mingw32/bin/../lib/gcc/nios2-elf/4.1.2/../../../../nios2-elf/lib\libc.a(lib_a-exit.o)
                              ../DE2_115_Audio_bsp/\libhal_bsp.a(alt_main.o) (exit)
d:/altera13.0sp1/nios2eds/bin/gnu/h-i686-mingw32/bin/../lib/gcc/nios2-elf/4.1.2/../../../../nios2-elf/lib\libc.a(lib_a-memcmp.o)
                              ../DE2_115_Audio_bsp/\libhal_bsp.a(altera_avalon_cfi_flash.o) (memcmp)
d:/altera13.0sp1/nios2eds/bin/gnu/h-i686-mingw32/bin/../lib/gcc/nios2-elf/4.1.2/../../../../nios2-elf/lib\libc.a(lib_a-__atexit.o)
                              d:/altera13.0sp1/nios2eds/bin/gnu/h-i686-mingw32/bin/../lib/gcc/nios2-elf/4.1.2/../../../../nios2-elf/lib\libc.a(lib_a-atexit.o) (__register_exitproc)
d:/altera13.0sp1/nios2eds/bin/gnu/h-i686-mingw32/bin/../lib/gcc/nios2-elf/4.1.2/../../../../nios2-elf/lib\libc.a(lib_a-__call_atexit.o)
                              d:/altera13.0sp1/nios2eds/bin/gnu/h-i686-mingw32/bin/../lib/gcc/nios2-elf/4.1.2/../../../../nios2-elf/lib\libc.a(lib_a-exit.o) (__call_exitprocs)
../DE2_115_Audio_bsp/\libhal_bsp.a(alt_exit.o)
                              d:/altera13.0sp1/nios2eds/bin/gnu/h-i686-mingw32/bin/../lib/gcc/nios2-elf/4.1.2/../../../../nios2-elf/lib\libc.a(lib_a-exit.o) (_exit)

Allocating common symbols
Common symbol       size              file

alt_irq             0x100             ../DE2_115_Audio_bsp/\libhal_bsp.a(alt_irq_handler.o)
errno               0x4               d:/altera13.0sp1/nios2eds/bin/gnu/h-i686-mingw32/bin/../lib/gcc/nios2-elf/4.1.2/../../../../nios2-elf/lib\libc.a(lib_a-int_errno.o)
record_sample_rate  0x4               obj/default/main.o
_atexit0            0x190             d:/altera13.0sp1/nios2eds/bin/gnu/h-i686-mingw32/bin/../lib/gcc/nios2-elf/4.1.2/../../../../nios2-elf/lib\libc.a(lib_a-atexit.o)

Memory Configuration

Name             Origin             Length             Attributes
sdram            0x00000000         0x08000000
cfi_flash        0x09800000         0x00800000
reset            0x0a800000         0x00000020
sram             0x0a800020         0x000fffe0
*default*        0x00000000         0xffffffff

Linker script and memory map

LOAD ../DE2_115_Audio_bsp//obj/HAL/src/crt0.o
LOAD obj/default/AUDIO.o
LOAD obj/default/I2C.o
LOAD obj/default/LCD.o
LOAD obj/default/LED.o
LOAD obj/default/SEG7.o
LOAD obj/default/debug.o
LOAD obj/default/main.o
LOAD d:/altera13.0sp1/nios2eds/bin/gnu/h-i686-mingw32/bin/../lib/gcc/nios2-elf/4.1.2/../../../../nios2-elf/lib\libstdc++.a
LOAD d:/altera13.0sp1/nios2eds/bin/gnu/h-i686-mingw32/bin/../lib/gcc/nios2-elf/4.1.2/../../../../nios2-elf/lib\libm.a
LOAD d:/altera13.0sp1/nios2eds/bin/gnu/h-i686-mingw32/bin/../lib/gcc/nios2-elf/4.1.2\libgcc.a
START GROUP
LOAD d:/altera13.0sp1/nios2eds/bin/gnu/h-i686-mingw32/bin/../lib/gcc/nios2-elf/4.1.2/../../../../nios2-elf/lib\libc.a
LOAD d:/altera13.0sp1/nios2eds/bin/gnu/h-i686-mingw32/bin/../lib/gcc/nios2-elf/4.1.2\libgcc.a
LOAD ../DE2_115_Audio_bsp/\libhal_bsp.a
END GROUP
LOAD d:/altera13.0sp1/nios2eds/bin/gnu/h-i686-mingw32/bin/../lib/gcc/nios2-elf/4.1.2\libgcc.a
                0x00000000                __alt_mem_sdram = 0x0
                0x09800000                __alt_mem_cfi_flash = 0x9800000
                0x0a800000                __alt_mem_sram = 0xa800000

.entry          0x0a800000       0x20
 *(.entry)
 .entry         0x0a800000       0x20 ../DE2_115_Audio_bsp//obj/HAL/src/crt0.o
                0x0a800000                __reset

.exceptions     0x0a800020      0x194
                0x0a800020                PROVIDE (__ram_exceptions_start, ABSOLUTE (.))
                0x0a800020                . = ALIGN (0x20)
 *(.irq)
 *(.exceptions.entry.label)
 .exceptions.entry.label
                0x0a800020        0x0 ../DE2_115_Audio_bsp/\libhal_bsp.a(alt_irq_entry.o)
                0x0a800020                alt_irq_entry
 .exceptions.entry.label
                0x0a800020        0x0 ../DE2_115_Audio_bsp/\libhal_bsp.a(alt_exception_entry.o)
                0x0a800020                alt_exception
 *(.exceptions.entry.user)
 *(.exceptions.entry)
 .exceptions.entry
                0x0a800020       0x54 ../DE2_115_Audio_bsp/\libhal_bsp.a(alt_exception_entry.o)
 *(.exceptions.irqtest.user)
 *(.exceptions.irqtest)
 .exceptions.irqtest
                0x0a800074       0x10 ../DE2_115_Audio_bsp/\libhal_bsp.a(alt_irq_entry.o)
 *(.exceptions.irqhandler.user)
 *(.exceptions.irqhandler)
 .exceptions.irqhandler
                0x0a800084        0x4 ../DE2_115_Audio_bsp/\libhal_bsp.a(alt_irq_entry.o)
 *(.exceptions.irqreturn.user)
 *(.exceptions.irqreturn)
 .exceptions.irqreturn
                0x0a800088        0x4 ../DE2_115_Audio_bsp/\libhal_bsp.a(alt_irq_entry.o)
 *(.exceptions.notirq.label)
 .exceptions.notirq.label
                0x0a80008c        0x0 ../DE2_115_Audio_bsp/\libhal_bsp.a(alt_irq_entry.o)
 *(.exceptions.notirq.user)
 *(.exceptions.notirq)
 .exceptions.notirq
                0x0a80008c        0x8 ../DE2_115_Audio_bsp/\libhal_bsp.a(alt_exception_entry.o)
 *(.exceptions.soft.user)
 *(.exceptions.soft)
 *(.exceptions.unknown.user)
 *(.exceptions.unknown)
 .exceptions.unknown
                0x0a800094        0x4 ../DE2_115_Audio_bsp/\libhal_bsp.a(alt_exception_entry.o)
 *(.exceptions.exit.label)
 .exceptions.exit.label
                0x0a800098        0x0 ../DE2_115_Audio_bsp/\libhal_bsp.a(alt_irq_entry.o)
 .exceptions.exit.label
                0x0a800098        0x0 ../DE2_115_Audio_bsp/\libhal_bsp.a(alt_exception_entry.o)
 *(.exceptions.exit.user)
 *(.exceptions.exit)
 .exceptions.exit
                0x0a800098       0x54 ../DE2_115_Audio_bsp/\libhal_bsp.a(alt_exception_entry.o)
 *(.exceptions)
 .exceptions    0x0a8000ec       0xc8 ../DE2_115_Audio_bsp/\libhal_bsp.a(alt_irq_handler.o)
                0x0a8000ec                alt_irq_handler
                0x0a8001b4                PROVIDE (__ram_exceptions_end, ABSOLUTE (.))
                0x0a800020                PROVIDE (__flash_exceptions_start, LOADADDR (.exceptions))

.text           0x0a8001b4    0x12e08
                0x0a8001b4                PROVIDE (stext, ABSOLUTE (.))
 *(.interp)
 *(.hash)
 *(.dynsym)
 *(.dynstr)
 *(.gnu.version)
 *(.gnu.version_d)
 *(.gnu.version_r)
 *(.rel.init)
 *(.rela.init)
 *(.rel.text .rel.text.* .rel.gnu.linkonce.t.*)
 *(.rela.text .rela.text.* .rela.gnu.linkonce.t.*)
 *(.rel.fini)
 *(.rela.fini)
 *(.rel.rodata .rel.rodata.* .rel.gnu.linkonce.r.*)
 *(.rela.rodata .rela.rodata.* .rela.gnu.linkonce.r.*)
 *(.rel.data .rel.data.* .rel.gnu.linkonce.d.*)
 *(.rela.data .rela.data.* .rela.gnu.linkonce.d.*)
 *(.rel.tdata .rel.tdata.* .rel.gnu.linkonce.td.*)
 *(.rela.tdata .rela.tdata.* .rela.gnu.linkonce.td.*)
 *(.rel.tbss .rel.tbss.* .rel.gnu.linkonce.tb.*)
 *(.rela.tbss .rela.tbss.* .rela.gnu.linkonce.tb.*)
 *(.rel.ctors)
 *(.rela.ctors)
 *(.rel.dtors)
 *(.rela.dtors)
 *(.rel.got)
 *(.rela.got)
 *(.rel.sdata .rel.sdata.* .rel.gnu.linkonce.s.*)
 *(.rela.sdata .rela.sdata.* .rela.gnu.linkonce.s.*)
 *(.rel.sbss .rel.sbss.* .rel.gnu.linkonce.sb.*)
 *(.rela.sbss .rela.sbss.* .rela.gnu.linkonce.sb.*)
 *(.rel.sdata2 .rel.sdata2.* .rel.gnu.linkonce.s2.*)
 *(.rela.sdata2 .rela.sdata2.* .rela.gnu.linkonce.s2.*)
 *(.rel.sbss2 .rel.sbss2.* .rel.gnu.linkonce.sb2.*)
 *(.rela.sbss2 .rela.sbss2.* .rela.gnu.linkonce.sb2.*)
 *(.rel.bss .rel.bss.* .rel.gnu.linkonce.b.*)
 *(.rela.bss .rela.bss.* .rela.gnu.linkonce.b.*)
 *(.rel.plt)
 *(.rela.plt)
 *(.rel.dyn)
 *(.init)
 *(.plt)
 *(.text .stub .text.* .gnu.linkonce.t.*)
 .text          0x0a8001b4       0x4c ../DE2_115_Audio_bsp//obj/HAL/src/crt0.o
                0x0a8001b4                _start
 .text          0x0a800200      0xd98 obj/default/AUDIO.o
                0x0a800200                AUDIO_Init
                0x0a8003c4                AUDIO_InterfaceActive
                0x0a800404                AUDIO_MicBoost
                0x0a80047c                AUDIO_AdcEnableHighPassFilter
                0x0a8004f4                AUDIO_DacDeemphasisControl
                0x0a8005ac                AUDIO_DacEnableZeroCross
                0x0a80068c                AUDIO_DacEnableSoftMute
                0x0a800718                AUDIO_MicMute
                0x0a8007a4                AUDIO_LineInMute
                0x0a800884                AUDIO_SetInputSource
                0x0a800910                AUDIO_SetSampleRate
                0x0a8009fc                AUDIO_SetLineInVol
                0x0a800b18                AUDIO_SetLineOutVol
                0x0a800c34                AUDIO_EnableByPass
                0x0a800cc0                AUDIO_EnableSiteTone
                0x0a800d4c                aduio_RegWrite
                0x0a800e48                AUDIO_DacFifoNotFull
                0x0a800e9c                AUDIO_DacFifoSetData
                0x0a800ee0                AUDIO_AdcFifoNotEmpty
                0x0a800f18                AUDIO_AdcFifoGetData
                0x0a800f6c                AUDIO_FifoClear
 .text          0x0a800f98      0x718 obj/default/I2C.o
                0x0a800f98                I2C_Write
                0x0a801094                I2C_Read
                0x0a8011bc                I2C_MultipleRead
                0x0a801340                i2c_start
                0x0a8013c8                i2c_stop
                0x0a801440                i2c_write
                0x0a801564                i2c_read
 .text          0x0a8016b0      0x184 obj/default/LCD.o
                0x0a8016b0                LCD_Open
                0x0a80170c                LCD_TextOut
                0x0a801770                LCD_Clear
                0x0a8017f8                LCD_Close
 .text          0x0a801834       0xfc obj/default/LED.o
                0x0a801834                LED_Display
                0x0a80186c                LED_AllOn
                0x0a801898                LED_AllOff
                0x0a8018c4                LED_LightCount
 .text          0x0a801930      0x2d8 obj/default/SEG7.o
                0x0a801930                SEG7_Clear
                0x0a801988                SEG7_Full
                0x0a8019e8                SEG7_Number
                0x0a801a5c                SEG7_Hex
                0x0a801b28                SEG7_Decimal
 .text          0x0a801c08      0x194 obj/default/debug.o
                0x0a801c08                debug_output
                0x0a801c38                myprintf
                0x0a801c98                myprintf_hex_array
                0x0a801d18                myprintf_dword_array
 .text          0x0a801d9c      0xc40 obj/default/main.o
                0x0a801d9c                ui_is_mic_record
                0x0a801df0                ui_is_mic_boost
                0x0a801e28                ui_is_dac_zero_cross
                0x0a801e60                ui_get_sample_rate
                0x0a801f08                button_monitor_isr
                0x0a801f64                button_monitor_start
                0x0a801fec                init_audio
                0x0a802178                display_time_elapsed
                0x0a8021c4                show_power
                0x0a80225c                init
                0x0a8022d4                dump_record_data
                0x0a8023f0                show_menu
                0x0a802454                main
 .text          0x0a8029dc      0x14c d:/altera13.0sp1/nios2eds/bin/gnu/h-i686-mingw32/bin/../lib/gcc/nios2-elf/4.1.2\libgcc.a(lib2-divmod.o)
                0x0a802a58                __divsi3
                0x0a802ab8                __modsi3
                0x0a802b18                __udivsi3
                0x0a802b20                __umodsi3
 .text          0x0a802b28      0x124 d:/altera13.0sp1/nios2eds/bin/gnu/h-i686-mingw32/bin/../lib/gcc/nios2-elf/4.1.2/../../../../nios2-elf/lib\libc.a(lib_a-fclose.o)
                0x0a802b28                _fclose_r
                0x0a802c38                fclose
 .text          0x0a802c4c      0x230 d:/altera13.0sp1/nios2eds/bin/gnu/h-i686-mingw32/bin/../lib/gcc/nios2-elf/4.1.2/../../../../nios2-elf/lib\libc.a(lib_a-fflush.o)
                0x0a802c4c                _fflush_r
                0x0a802e48                fflush
 .text          0x0a802e7c      0x2c0 d:/altera13.0sp1/nios2eds/bin/gnu/h-i686-mingw32/bin/../lib/gcc/nios2-elf/4.1.2/../../../../nios2-elf/lib\libc.a(lib_a-findfp.o)
                0x0a802ed4                __sfp_lock_acquire
                0x0a802ed8                __sfp_lock_release
                0x0a802edc                __sinit_lock_acquire
                0x0a802ee0                __sinit_lock_release
                0x0a802ee4                __sinit
                0x0a802f98                __fp_unlock_all
                0x0a802fb0                __fp_lock_all
                0x0a802fc8                _cleanup_r
                0x0a802fd4                _cleanup
                0x0a802fe4                __sfmoreglue
                0x0a80304c                __sfp
 .text          0x0a80313c      0x110 d:/altera13.0sp1/nios2eds/bin/gnu/h-i686-mingw32/bin/../lib/gcc/nios2-elf/4.1.2/../../../../nios2-elf/lib\libc.a(lib_a-fopen.o)
                0x0a80313c                _fopen_r
                0x0a803230                fopen
 .text          0x0a80324c      0x440 d:/altera13.0sp1/nios2eds/bin/gnu/h-i686-mingw32/bin/../lib/gcc/nios2-elf/4.1.2/../../../../nios2-elf/lib\libc.a(lib_a-freer.o)
                0x0a80324c                _malloc_trim_r
                0x0a803378                _free_r
 .text          0x0a80368c      0x460 d:/altera13.0sp1/nios2eds/bin/gnu/h-i686-mingw32/bin/../lib/gcc/nios2-elf/4.1.2/../../../../nios2-elf/lib\libc.a(lib_a-fseek.o)
                0x0a80368c                _fseek_r
                0x0a803ac8                fseek
 .text          0x0a803aec       0x74 d:/altera13.0sp1/nios2eds/bin/gnu/h-i686-mingw32/bin/../lib/gcc/nios2-elf/4.1.2/../../../../nios2-elf/lib\libc.a(lib_a-fstatr.o)
                0x0a803aec                _fstat_r
 .text          0x0a803b60      0x180 d:/altera13.0sp1/nios2eds/bin/gnu/h-i686-mingw32/bin/../lib/gcc/nios2-elf/4.1.2/../../../../nios2-elf/lib\libc.a(lib_a-fwalk.o)
                0x0a803b60                _fwalk_reent
                0x0a803c28                _fwalk
 .text          0x0a803ce0       0xdc d:/altera13.0sp1/nios2eds/bin/gnu/h-i686-mingw32/bin/../lib/gcc/nios2-elf/4.1.2/../../../../nios2-elf/lib\libc.a(lib_a-fwrite.o)
                0x0a803ce0                _fwrite_r
                0x0a803d7c                fwrite
 .text          0x0a803dbc        0x0 d:/altera13.0sp1/nios2eds/bin/gnu/h-i686-mingw32/bin/../lib/gcc/nios2-elf/4.1.2/../../../../nios2-elf/lib\libc.a(lib_a-impure.o)
 .text          0x0a803dbc        0x0 d:/altera13.0sp1/nios2eds/bin/gnu/h-i686-mingw32/bin/../lib/gcc/nios2-elf/4.1.2/../../../../nios2-elf/lib\libc.a(lib_a-int_errno.o)
 .text          0x0a803dbc      0x194 d:/altera13.0sp1/nios2eds/bin/gnu/h-i686-mingw32/bin/../lib/gcc/nios2-elf/4.1.2/../../../../nios2-elf/lib\libc.a(lib_a-makebuf.o)
                0x0a803dbc                __smakebuf_r
 .text          0x0a803f50      0x740 d:/altera13.0sp1/nios2eds/bin/gnu/h-i686-mingw32/bin/../lib/gcc/nios2-elf/4.1.2/../../../../nios2-elf/lib\libc.a(lib_a-mallocr.o)
                0x0a803f50                _malloc_r
 .text          0x0a804690       0x98 d:/altera13.0sp1/nios2eds/bin/gnu/h-i686-mingw32/bin/../lib/gcc/nios2-elf/4.1.2/../../../../nios2-elf/lib\libc.a(lib_a-memset.o)
                0x0a804690                memset
 .text          0x0a804728       0x78 d:/altera13.0sp1/nios2eds/bin/gnu/h-i686-mingw32/bin/../lib/gcc/nios2-elf/4.1.2/../../../../nios2-elf/lib\libc.a(lib_a-openr.o)
                0x0a804728                _open_r
 .text          0x0a8047a0       0x78 d:/altera13.0sp1/nios2eds/bin/gnu/h-i686-mingw32/bin/../lib/gcc/nios2-elf/4.1.2/../../../../nios2-elf/lib\libc.a(lib_a-printf.o)
                0x0a8047a0                printf
                0x0a8047e4                _printf_r
 .text          0x0a804818       0xb4 d:/altera13.0sp1/nios2eds/bin/gnu/h-i686-mingw32/bin/../lib/gcc/nios2-elf/4.1.2/../../../../nios2-elf/lib\libc.a(lib_a-puts.o)
                0x0a804818                _puts_r
                0x0a8048b8                puts
 .text          0x0a8048cc      0x1e0 d:/altera13.0sp1/nios2eds/bin/gnu/h-i686-mingw32/bin/../lib/gcc/nios2-elf/4.1.2/../../../../nios2-elf/lib\libc.a(lib_a-refill.o)
                0x0a8048cc                __srefill_r
 .text          0x0a804aac       0x70 d:/altera13.0sp1/nios2eds/bin/gnu/h-i686-mingw32/bin/../lib/gcc/nios2-elf/4.1.2/../../../../nios2-elf/lib\libc.a(lib_a-sbrkr.o)
                0x0a804aac                _sbrk_r
 .text          0x0a804b1c       0xd4 d:/altera13.0sp1/nios2eds/bin/gnu/h-i686-mingw32/bin/../lib/gcc/nios2-elf/4.1.2/../../../../nios2-elf/lib\libc.a(lib_a-sprintf.o)
                0x0a804b1c                sprintf
                0x0a804b90                _sprintf_r
 .text          0x0a804bf0      0x14c d:/altera13.0sp1/nios2eds/bin/gnu/h-i686-mingw32/bin/../lib/gcc/nios2-elf/4.1.2/../../../../nios2-elf/lib\libc.a(lib_a-stdio.o)
                0x0a804bf0                __sclose
                0x0a804bf8                __sseek
                0x0a804c60                __swrite
                0x0a804cdc                __sread
 .text          0x0a804d3c       0x74 d:/altera13.0sp1/nios2eds/bin/gnu/h-i686-mingw32/bin/../lib/gcc/nios2-elf/4.1.2/../../../../nios2-elf/lib\libc.a(lib_a-strlen.o)
                0x0a804d3c                strlen
 .text          0x0a804db0     0x1f28 d:/altera13.0sp1/nios2eds/bin/gnu/h-i686-mingw32/bin/../lib/gcc/nios2-elf/4.1.2/../../../../nios2-elf/lib\libc.a(lib_a-vfprintf.o)
                0x0a804e08                ___vfprintf_internal_r
                0x0a806cb4                __vfprintf_internal
 .text          0x0a806cd8       0xf4 d:/altera13.0sp1/nios2eds/bin/gnu/h-i686-mingw32/bin/../lib/gcc/nios2-elf/4.1.2/../../../../nios2-elf/lib\libc.a(lib_a-vsnprintf.o)
                0x0a806cd8                _vsnprintf_r
                0x0a806d8c                vsnprintf
 .text          0x0a806dcc       0x78 d:/altera13.0sp1/nios2eds/bin/gnu/h-i686-mingw32/bin/../lib/gcc/nios2-elf/4.1.2/../../../../nios2-elf/lib\libc.a(lib_a-writer.o)
                0x0a806dcc                _write_r
 .text          0x0a806e44      0x13c d:/altera13.0sp1/nios2eds/bin/gnu/h-i686-mingw32/bin/../lib/gcc/nios2-elf/4.1.2/../../../../nios2-elf/lib\libc.a(lib_a-wsetup.o)
                0x0a806e44                __swsetup_r
 .text          0x0a806f80       0x70 d:/altera13.0sp1/nios2eds/bin/gnu/h-i686-mingw32/bin/../lib/gcc/nios2-elf/4.1.2/../../../../nios2-elf/lib\libc.a(lib_a-closer.o)
                0x0a806f80                _close_r
 .text          0x0a806ff0     0x17cc d:/altera13.0sp1/nios2eds/bin/gnu/h-i686-mingw32/bin/../lib/gcc/nios2-elf/4.1.2/../../../../nios2-elf/lib\libc.a(lib_a-dtoa.o)
                0x0a807208                _dtoa_r
 .text          0x0a8087bc       0xa0 d:/altera13.0sp1/nios2eds/bin/gnu/h-i686-mingw32/bin/../lib/gcc/nios2-elf/4.1.2/../../../../nios2-elf/lib\libc.a(lib_a-flags.o)
                0x0a8087bc                __sflags
 .text          0x0a80885c      0x49c d:/altera13.0sp1/nios2eds/bin/gnu/h-i686-mingw32/bin/../lib/gcc/nios2-elf/4.1.2/../../../../nios2-elf/lib\libc.a(lib_a-fvwrite.o)
                0x0a80885c                __sfvwrite_r
 .text          0x0a808cf8       0x70 d:/altera13.0sp1/nios2eds/bin/gnu/h-i686-mingw32/bin/../lib/gcc/nios2-elf/4.1.2/../../../../nios2-elf/lib\libc.a(lib_a-isattyr.o)
                0x0a808cf8                _isatty_r
 .text          0x0a808d68       0xc4 d:/altera13.0sp1/nios2eds/bin/gnu/h-i686-mingw32/bin/../lib/gcc/nios2-elf/4.1.2/../../../../nios2-elf/lib\libc.a(lib_a-locale.o)
                0x0a808d68                __locale_charset
                0x0a808d70                _localeconv_r
                0x0a808d7c                localeconv
                0x0a808d8c                _setlocale_r
                0x0a808e10                setlocale
 .text          0x0a808e2c       0x78 d:/altera13.0sp1/nios2eds/bin/gnu/h-i686-mingw32/bin/../lib/gcc/nios2-elf/4.1.2/../../../../nios2-elf/lib\libc.a(lib_a-lseekr.o)
                0x0a808e2c                _lseek_r
 .text          0x0a808ea4       0xe4 d:/altera13.0sp1/nios2eds/bin/gnu/h-i686-mingw32/bin/../lib/gcc/nios2-elf/4.1.2/../../../../nios2-elf/lib\libc.a(lib_a-memchr.o)
                0x0a808ea4                memchr
 .text          0x0a808f88       0xa0 d:/altera13.0sp1/nios2eds/bin/gnu/h-i686-mingw32/bin/../lib/gcc/nios2-elf/4.1.2/../../../../nios2-elf/lib\libc.a(lib_a-memcpy.o)
                0x0a808f88                memcpy
 .text          0x0a809028       0xe0 d:/altera13.0sp1/nios2eds/bin/gnu/h-i686-mingw32/bin/../lib/gcc/nios2-elf/4.1.2/../../../../nios2-elf/lib\libc.a(lib_a-memmove.o)
                0x0a809028                memmove
 .text          0x0a809108      0xff4 d:/altera13.0sp1/nios2eds/bin/gnu/h-i686-mingw32/bin/../lib/gcc/nios2-elf/4.1.2/../../../../nios2-elf/lib\libc.a(lib_a-mprec.o)
                0x0a809108                _Bfree
                0x0a809130                __hi0bits
                0x0a8091a0                __lo0bits
                0x0a809264                __mcmp
                0x0a8092c4                __ulp
                0x0a809344                __b2d
                0x0a809464                __ratio
                0x0a809514                _mprec_log10
                0x0a8095a8                __copybits
                0x0a809600                __any_on
                0x0a809688                _Balloc
                0x0a809744                __d2b
                0x0a8098c0                __mdiff
                0x0a809a4c                __lshift
                0x0a809b98                __multiply
                0x0a809d80                __i2b
                0x0a809dbc                __multadd
                0x0a809ebc                __pow5mult
                0x0a809fdc                __s2b
 .text          0x0a80a0fc       0x78 d:/altera13.0sp1/nios2eds/bin/gnu/h-i686-mingw32/bin/../lib/gcc/nios2-elf/4.1.2/../../../../nios2-elf/lib\libc.a(lib_a-readr.o)
                0x0a80a0fc                _read_r
 .text          0x0a80a174      0x5f4 d:/altera13.0sp1/nios2eds/bin/gnu/h-i686-mingw32/bin/../lib/gcc/nios2-elf/4.1.2/../../../../nios2-elf/lib\libc.a(lib_a-reallocr.o)
                0x0a80a174                _realloc_r
 .text          0x0a80a768       0x40 d:/altera13.0sp1/nios2eds/bin/gnu/h-i686-mingw32/bin/../lib/gcc/nios2-elf/4.1.2/../../../../nios2-elf/lib\libc.a(lib_a-s_isinfd.o)
                0x0a80a768                __isinfd
 .text          0x0a80a7a8       0x30 d:/altera13.0sp1/nios2eds/bin/gnu/h-i686-mingw32/bin/../lib/gcc/nios2-elf/4.1.2/../../../../nios2-elf/lib\libc.a(lib_a-s_isnand.o)
                0x0a80a7a8                __isnand
 .text          0x0a80a7d8       0xbc d:/altera13.0sp1/nios2eds/bin/gnu/h-i686-mingw32/bin/../lib/gcc/nios2-elf/4.1.2/../../../../nios2-elf/lib\libc.a(lib_a-strcmp.o)
                0x0a80a7d8                strcmp
 .text          0x0a80a894       0xb4 d:/altera13.0sp1/nios2eds/bin/gnu/h-i686-mingw32/bin/../lib/gcc/nios2-elf/4.1.2/../../../../nios2-elf/lib\libc.a(lib_a-callocr.o)
                0x0a80a894                _calloc_r
 .text          0x0a80a948      0x5dc d:/altera13.0sp1/nios2eds/bin/gnu/h-i686-mingw32/bin/../lib/gcc/nios2-elf/4.1.2\libgcc.a(_udivdi3.o)
                0x0a80a948                __udivdi3
 .text          0x0a80af24      0x5b0 d:/altera13.0sp1/nios2eds/bin/gnu/h-i686-mingw32/bin/../lib/gcc/nios2-elf/4.1.2\libgcc.a(_umoddi3.o)
                0x0a80af24                __umoddi3
 .text          0x0a80b4d4      0x504 d:/altera13.0sp1/nios2eds/bin/gnu/h-i686-mingw32/bin/../lib/gcc/nios2-elf/4.1.2\libgcc.a(_addsub_df.o)
                0x0a80b8e4                __subdf3
                0x0a80b964                __adddf3
 .text          0x0a80b9d8      0x3c4 d:/altera13.0sp1/nios2eds/bin/gnu/h-i686-mingw32/bin/../lib/gcc/nios2-elf/4.1.2\libgcc.a(_mul_df.o)
                0x0a80b9d8                __muldf3
 .text          0x0a80bd9c      0x258 d:/altera13.0sp1/nios2eds/bin/gnu/h-i686-mingw32/bin/../lib/gcc/nios2-elf/4.1.2\libgcc.a(_div_df.o)
                0x0a80bd9c                __divdf3
 .text          0x0a80bff4       0x88 d:/altera13.0sp1/nios2eds/bin/gnu/h-i686-mingw32/bin/../lib/gcc/nios2-elf/4.1.2\libgcc.a(_eq_df.o)
                0x0a80bff4                __eqdf2
 .text          0x0a80c07c       0x88 d:/altera13.0sp1/nios2eds/bin/gnu/h-i686-mingw32/bin/../lib/gcc/nios2-elf/4.1.2\libgcc.a(_ne_df.o)
                0x0a80c07c                __nedf2
 .text          0x0a80c104       0x88 d:/altera13.0sp1/nios2eds/bin/gnu/h-i686-mingw32/bin/../lib/gcc/nios2-elf/4.1.2\libgcc.a(_gt_df.o)
                0x0a80c104                __gtdf2
 .text          0x0a80c18c       0x88 d:/altera13.0sp1/nios2eds/bin/gnu/h-i686-mingw32/bin/../lib/gcc/nios2-elf/4.1.2\libgcc.a(_ge_df.o)
                0x0a80c18c                __gedf2
 .text          0x0a80c214       0x88 d:/altera13.0sp1/nios2eds/bin/gnu/h-i686-mingw32/bin/../lib/gcc/nios2-elf/4.1.2\libgcc.a(_lt_df.o)
                0x0a80c214                __ltdf2
 .text          0x0a80c29c       0xf8 d:/altera13.0sp1/nios2eds/bin/gnu/h-i686-mingw32/bin/../lib/gcc/nios2-elf/4.1.2\libgcc.a(_si_to_df.o)
                0x0a80c29c                __floatsidf
 .text          0x0a80c394       0xd8 d:/altera13.0sp1/nios2eds/bin/gnu/h-i686-mingw32/bin/../lib/gcc/nios2-elf/4.1.2\libgcc.a(_df_to_si.o)
                0x0a80c394                __fixdfsi
 .text          0x0a80c46c        0x0 d:/altera13.0sp1/nios2eds/bin/gnu/h-i686-mingw32/bin/../lib/gcc/nios2-elf/4.1.2\libgcc.a(_thenan_df.o)
 .text          0x0a80c46c      0x194 d:/altera13.0sp1/nios2eds/bin/gnu/h-i686-mingw32/bin/../lib/gcc/nios2-elf/4.1.2\libgcc.a(_usi_to_df.o)
                0x0a80c46c                __floatunsidf
 .text          0x0a80c600       0x98 d:/altera13.0sp1/nios2eds/bin/gnu/h-i686-mingw32/bin/../lib/gcc/nios2-elf/4.1.2\libgcc.a(_muldi3.o)
                0x0a80c600                __muldi3
 .text          0x0a80c698        0x0 d:/altera13.0sp1/nios2eds/bin/gnu/h-i686-mingw32/bin/../lib/gcc/nios2-elf/4.1.2\libgcc.a(_clz.o)
 .text          0x0a80c698       0x80 d:/altera13.0sp1/nios2eds/bin/gnu/h-i686-mingw32/bin/../lib/gcc/nios2-elf/4.1.2\libgcc.a(_clzsi2.o)
                0x0a80c698                __clzsi2
 .text          0x0a80c718      0x314 d:/altera13.0sp1/nios2eds/bin/gnu/h-i686-mingw32/bin/../lib/gcc/nios2-elf/4.1.2\libgcc.a(_pack_df.o)
                0x0a80c718                __pack_d
 .text          0x0a80ca2c      0x138 d:/altera13.0sp1/nios2eds/bin/gnu/h-i686-mingw32/bin/../lib/gcc/nios2-elf/4.1.2\libgcc.a(_unpack_df.o)
                0x0a80ca2c                __unpack_d
 .text          0x0a80cb64       0xc8 d:/altera13.0sp1/nios2eds/bin/gnu/h-i686-mingw32/bin/../lib/gcc/nios2-elf/4.1.2\libgcc.a(_fpcmp_parts_df.o)
                0x0a80cb64                __fpcmp_parts_d
 .text          0x0a80cc2c      0x15c ../DE2_115_Audio_bsp/\libhal_bsp.a(alt_close.o)
                0x0a80cc2c                close
 .text          0x0a80cd88       0x2c ../DE2_115_Audio_bsp/\libhal_bsp.a(alt_dev.o)
 .text          0x0a80cdb4        0x0 ../DE2_115_Audio_bsp/\libhal_bsp.a(alt_errno.o)
 .text          0x0a80cdb4      0x134 ../DE2_115_Audio_bsp/\libhal_bsp.a(alt_fstat.o)
                0x0a80cdb4                fstat
 .text          0x0a80cee8      0x1c0 ../DE2_115_Audio_bsp/\libhal_bsp.a(alt_irq_register.o)
                0x0a80cee8                alt_irq_register
 .text          0x0a80d0a8        0x0 ../DE2_115_Audio_bsp/\libhal_bsp.a(alt_irq_vars.o)
 .text          0x0a80d0a8      0x120 ../DE2_115_Audio_bsp/\libhal_bsp.a(alt_isatty.o)
                0x0a80d0a8                isatty
 .text          0x0a80d1c8       0xec ../DE2_115_Audio_bsp/\libhal_bsp.a(alt_load.o)
                0x0a80d1c8                alt_load
 .text          0x0a80d2b4      0x150 ../DE2_115_Audio_bsp/\libhal_bsp.a(alt_lseek.o)
                0x0a80d2b4                lseek
 .text          0x0a80d404       0x6c ../DE2_115_Audio_bsp/\libhal_bsp.a(alt_main.o)
                0x0a80d404                alt_main
 .text          0x0a80d470       0x40 ../DE2_115_Audio_bsp/\libhal_bsp.a(alt_malloc_lock.o)
                0x0a80d470                __malloc_lock
                0x0a80d490                __malloc_unlock
 .text          0x0a80d4b0      0x2c4 ../DE2_115_Audio_bsp/\libhal_bsp.a(alt_open.o)
                0x0a80d58c                open
 .text          0x0a80d774      0x180 ../DE2_115_Audio_bsp/\libhal_bsp.a(alt_read.o)
                0x0a80d774                read
 .text          0x0a80d8f4       0x60 ../DE2_115_Audio_bsp/\libhal_bsp.a(alt_release_fd.o)
                0x0a80d8f4                alt_release_fd
 .text          0x0a80d954       0xbc ../DE2_115_Audio_bsp/\libhal_bsp.a(alt_sbrk.o)
                0x0a80d954                sbrk
 .text          0x0a80da10       0x30 ../DE2_115_Audio_bsp/\libhal_bsp.a(alt_usleep.o)
                0x0a80da10                usleep
 .text          0x0a80da40      0x180 ../DE2_115_Audio_bsp/\libhal_bsp.a(alt_write.o)
                0x0a80da40                write
 .text          0x0a80dbc0       0xd4 ../DE2_115_Audio_bsp/\libhal_bsp.a(alt_sys_init.o)
                0x0a80dbc0                alt_irq_init
                0x0a80dbf4                alt_sys_init
 .text          0x0a80dc94      0x8c8 ../DE2_115_Audio_bsp/\libhal_bsp.a(altera_avalon_cfi_flash.o)
                0x0a80dc94                alt_flash_cfi_init
                0x0a80dd68                alt_flash_cfi_write
                0x0a80e028                alt_flash_cfi_get_info
                0x0a80e0b8                alt_flash_cfi_read
                0x0a80e120                alt_write_value_to_flash
                0x0a80e284                alt_flash_program_block
 .text          0x0a80e55c     0x14a8 ../DE2_115_Audio_bsp/\libhal_bsp.a(altera_avalon_cfi_flash_table.o)
                0x0a80e55c                alt_read_query_entry_8bit
                0x0a80e59c                alt_read_query_entry_16bit
                0x0a80e5e0                alt_read_query_entry_32bit
                0x0a80e628                alt_write_flash_command_8bit_device_8bit_mode
                0x0a80e664                alt_write_flash_command_16bit_device_8bit_mode
                0x0a80e6e0                alt_write_flash_command_32bit_device_8bit_mode
                0x0a80e728                alt_write_flash_command_16bit_device_16bit_mode
                0x0a80e76c                alt_write_flash_command_32bit_device_16bit_mode
                0x0a80e7b4                alt_write_flash_command_32bit_device_32bit_mode
                0x0a80e7fc                alt_write_native_8bit
                0x0a80e830                alt_write_native_16bit
                0x0a80e864                alt_write_native_32bit
                0x0a80e894                alt_set_flash_width_func
                0x0a80ea74                alt_set_flash_algorithm_func
                0x0a80eb9c                alt_read_cfi_table
                0x0a80f17c                alt_read_cfi_width
                0x0a80f928                alt_check_primary_table
 .text          0x0a80fa04      0x148 ../DE2_115_Audio_bsp/\libhal_bsp.a(altera_avalon_jtag_uart_fd.o)
                0x0a80fa04                altera_avalon_jtag_uart_read_fd
                0x0a80fa5c                altera_avalon_jtag_uart_write_fd
                0x0a80fab4                altera_avalon_jtag_uart_close_fd
                0x0a80fafc                altera_avalon_jtag_uart_ioctl_fd
 .text          0x0a80fb4c      0x40c ../DE2_115_Audio_bsp/\libhal_bsp.a(altera_avalon_jtag_uart_init.o)
                0x0a80fb4c                altera_avalon_jtag_uart_init
                0x0a80fee4                altera_avalon_jtag_uart_close
 .text          0x0a80ff58       0xf4 ../DE2_115_Audio_bsp/\libhal_bsp.a(altera_avalon_jtag_uart_ioctl.o)
                0x0a80ff58                altera_avalon_jtag_uart_ioctl
 .text          0x0a81004c      0x224 ../DE2_115_Audio_bsp/\libhal_bsp.a(altera_avalon_jtag_uart_read.o)
                0x0a81004c                altera_avalon_jtag_uart_read
 .text          0x0a810270      0x240 ../DE2_115_Audio_bsp/\libhal_bsp.a(altera_avalon_jtag_uart_write.o)
                0x0a810270                altera_avalon_jtag_uart_write
 .text          0x0a8104b0      0xee8 ../DE2_115_Audio_bsp/\libhal_bsp.a(altera_avalon_lcd_16207.o)
                0x0a810c84                altera_avalon_lcd_16207_write
                0x0a81125c                altera_avalon_lcd_16207_init
 .text          0x0a811398       0x58 ../DE2_115_Audio_bsp/\libhal_bsp.a(altera_avalon_lcd_16207_fd.o)
                0x0a811398                altera_avalon_lcd_16207_write_fd
 .text          0x0a8113f0      0x154 ../DE2_115_Audio_bsp/\libhal_bsp.a(alt_alarm_start.o)
                0x0a8113f0                alt_alarm_start
 .text          0x0a811544      0x14c ../DE2_115_Audio_bsp/\libhal_bsp.a(alt_busy_sleep.o)
                0x0a811544                alt_busy_sleep
 .text          0x0a811690       0x78 ../DE2_115_Audio_bsp/\libhal_bsp.a(alt_dcache_flush.o)
                0x0a811690                alt_dcache_flush
 .text          0x0a811708       0x44 ../DE2_115_Audio_bsp/\libhal_bsp.a(alt_dcache_flush_all.o)
                0x0a811708                alt_dcache_flush_all
 .text          0x0a81174c      0x114 ../DE2_115_Audio_bsp/\libhal_bsp.a(alt_dev_llist_insert.o)
                0x0a81174c                alt_dev_llist_insert
 .text          0x0a811860       0x64 ../DE2_115_Audio_bsp/\libhal_bsp.a(alt_do_ctors.o)
                0x0a811860                _do_ctors
 .text          0x0a8118c4       0x64 ../DE2_115_Audio_bsp/\libhal_bsp.a(alt_do_dtors.o)
                0x0a8118c4                _do_dtors
 .text          0x0a811928       0x94 ../DE2_115_Audio_bsp/\libhal_bsp.a(alt_find_dev.o)
                0x0a811928                alt_find_dev
 .text          0x0a8119bc      0x120 ../DE2_115_Audio_bsp/\libhal_bsp.a(alt_find_file.o)
                0x0a8119bc                alt_find_file
 .text          0x0a811adc       0xd0 ../DE2_115_Audio_bsp/\libhal_bsp.a(alt_flash_dev.o)
                0x0a811adc                alt_flash_open_dev
                0x0a811b58                alt_flash_close_dev
 .text          0x0a811bac       0xb8 ../DE2_115_Audio_bsp/\libhal_bsp.a(alt_get_fd.o)
                0x0a811bac                alt_get_fd
 .text          0x0a811c64       0x30 ../DE2_115_Audio_bsp/\libhal_bsp.a(alt_icache_flush_all.o)
                0x0a811c64                alt_icache_flush_all
 .text          0x0a811c94      0x1d4 ../DE2_115_Audio_bsp/\libhal_bsp.a(alt_iic.o)
                0x0a811c94                alt_ic_isr_register
                0x0a811ce4                alt_ic_irq_enable
                0x0a811d80                alt_ic_irq_disable
                0x0a811e20                alt_ic_irq_enabled
 .text          0x0a811e68       0xf8 ../DE2_115_Audio_bsp/\libhal_bsp.a(alt_iic_isr_register.o)
                0x0a811e68                alt_iic_isr_register
 .text          0x0a811f60      0x13c ../DE2_115_Audio_bsp/\libhal_bsp.a(alt_io_redirect.o)
                0x0a812024                alt_io_redirect
 .text          0x0a81209c        0x0 ../DE2_115_Audio_bsp/\libhal_bsp.a(alt_irq_entry.o)
 .text          0x0a81209c        0x0 ../DE2_115_Audio_bsp/\libhal_bsp.a(alt_irq_handler.o)
 .text          0x0a81209c      0x1a4 ../DE2_115_Audio_bsp/\libhal_bsp.a(alt_tick.o)
                0x0a81209c                alt_alarm_stop
                0x0a812134                alt_tick
 .text          0x0a812240       0x20 ../DE2_115_Audio_bsp/\libhal_bsp.a(altera_nios2_qsys_irq.o)
                0x0a812240                altera_nios2_qsys_irq_init
 .text          0x0a812260      0x460 ../DE2_115_Audio_bsp/\libhal_bsp.a(altera_avalon_cfi_flash_amd.o)
                0x0a812260                alt_program_amd
                0x0a8122c8                alt_erase_block_amd
 .text          0x0a8126c0      0x460 ../DE2_115_Audio_bsp/\libhal_bsp.a(altera_avalon_cfi_flash_intel.o)
                0x0a8126c0                alt_program_intel
                0x0a812744                alt_erase_block_intel
 .text          0x0a812b20        0x0 ../DE2_115_Audio_bsp/\libhal_bsp.a(alt_exception_entry.o)
 .text          0x0a812b20       0x90 ../DE2_115_Audio_bsp/\libhal_bsp.a(alt_icache_flush.o)
                0x0a812b20                alt_icache_flush
 .text          0x0a812bb0       0x14 d:/altera13.0sp1/nios2eds/bin/gnu/h-i686-mingw32/bin/../lib/gcc/nios2-elf/4.1.2/../../../../nios2-elf/lib\libc.a(lib_a-atexit.o)
                0x0a812bb0                atexit
 .text          0x0a812bc4        0x0 d:/altera13.0sp1/nios2eds/bin/gnu/h-i686-mingw32/bin/../lib/gcc/nios2-elf/4.1.2/../../../../nios2-elf/lib\libc.a(lib_a-ctype_.o)
 .text          0x0a812bc4       0x38 d:/altera13.0sp1/nios2eds/bin/gnu/h-i686-mingw32/bin/../lib/gcc/nios2-elf/4.1.2/../../../../nios2-elf/lib\libc.a(lib_a-exit.o)
                0x0a812bc4                exit
 .text          0x0a812bfc       0x74 d:/altera13.0sp1/nios2eds/bin/gnu/h-i686-mingw32/bin/../lib/gcc/nios2-elf/4.1.2/../../../../nios2-elf/lib\libc.a(lib_a-memcmp.o)
                0x0a812bfc                memcmp
 .text          0x0a812c70      0x134 d:/altera13.0sp1/nios2eds/bin/gnu/h-i686-mingw32/bin/../lib/gcc/nios2-elf/4.1.2/../../../../nios2-elf/lib\libc.a(lib_a-__atexit.o)
                0x0a812c70                __register_exitproc
 .text          0x0a812da4      0x1b4 d:/altera13.0sp1/nios2eds/bin/gnu/h-i686-mingw32/bin/../lib/gcc/nios2-elf/4.1.2/../../../../nios2-elf/lib\libc.a(lib_a-__call_atexit.o)
                0x0a812da8                __call_exitprocs
 .text          0x0a812f58       0x60 ../DE2_115_Audio_bsp/\libhal_bsp.a(alt_exit.o)
                0x0a812f98                _exit
 *(.gnu.warning.*)
 *(.fini)
                0x0a812fb8                PROVIDE (__etext, ABSOLUTE (.))
                0x0a812fb8                PROVIDE (_etext, ABSOLUTE (.))
                0x0a812fb8                PROVIDE (etext, ABSOLUTE (.))
 *(.eh_frame_hdr)
                0x0a812fb8                . = ALIGN (0x4)
                0x0a812fb8                PROVIDE (__preinit_array_start, ABSOLUTE (.))
 *(.preinit_array)
                0x0a812fb8                PROVIDE (__preinit_array_end, ABSOLUTE (.))
                0x0a812fb8                PROVIDE (__init_array_start, ABSOLUTE (.))
 *(.init_array)
                0x0a812fb8                PROVIDE (__init_array_end, ABSOLUTE (.))
                0x0a812fb8                PROVIDE (__fini_array_start, ABSOLUTE (.))
 *(.fini_array)
                0x0a812fb8                PROVIDE (__fini_array_end, ABSOLUTE (.))
 *(.eh_frame)
 *(.gcc_except_table)
 *(.dynamic)
                0x0a812fb8                PROVIDE (__CTOR_LIST__, ABSOLUTE (.))
 *(.ctors)
 *(SORT(.ctors.*))
 .ctors.65535   0x0a812fb8        0x4 d:/altera13.0sp1/nios2eds/bin/gnu/h-i686-mingw32/bin/../lib/gcc/nios2-elf/4.1.2/../../../../nios2-elf/lib\libc.a(lib_a-__call_atexit.o)
                0x0a812fbc                PROVIDE (__CTOR_END__, ABSOLUTE (.))
                0x0a812fbc                PROVIDE (__DTOR_LIST__, ABSOLUTE (.))
 *(.dtors)
 *(SORT(.dtors.*))
                0x0a812fbc                PROVIDE (__DTOR_END__, ABSOLUTE (.))
 *(.jcr)
                0x0a812fbc                . = ALIGN (0x4)

.rodata         0x0a812fbc     0x11e8
                0x0a812fbc                PROVIDE (__ram_rodata_start, ABSOLUTE (.))
                0x0a812fbc                . = ALIGN (0x4)
 *(.rodata .rodata.* .gnu.linkonce.r.*)
 .rodata        0x0a812fbc       0xd4 obj/default/AUDIO.o
 .rodata        0x0a813090       0x88 obj/default/I2C.o
 .rodata        0x0a813118       0x30 obj/default/LCD.o
 .rodata        0x0a813148       0x10 obj/default/debug.o
 .rodata        0x0a813158      0xa70 obj/default/main.o
                0x0a8131c0                szMenu
 .rodata.str1.4
                0x0a813bc8        0x2 d:/altera13.0sp1/nios2eds/bin/gnu/h-i686-mingw32/bin/../lib/gcc/nios2-elf/4.1.2/../../../../nios2-elf/lib\libc.a(lib_a-impure.o)
                                  0x4 (size before relaxing)
 *fill*         0x0a813bca        0x2 00
 .rodata.str1.4
                0x0a813bcc        0x2 d:/altera13.0sp1/nios2eds/bin/gnu/h-i686-mingw32/bin/../lib/gcc/nios2-elf/4.1.2/../../../../nios2-elf/lib\libc.a(lib_a-puts.o)
                                  0x4 (size before relaxing)
 *fill*         0x0a813bce        0x2 00
 .rodata.str1.4
                0x0a813bd0       0x5e d:/altera13.0sp1/nios2eds/bin/gnu/h-i686-mingw32/bin/../lib/gcc/nios2-elf/4.1.2/../../../../nios2-elf/lib\libc.a(lib_a-vfprintf.o)
                                 0x60 (size before relaxing)
 .rodata        0x0a813c2e       0x20 d:/altera13.0sp1/nios2eds/bin/gnu/h-i686-mingw32/bin/../lib/gcc/nios2-elf/4.1.2/../../../../nios2-elf/lib\libc.a(lib_a-vfprintf.o)
 *fill*         0x0a813c4e        0x2 00
 .rodata.str1.4
                0x0a813c50       0x10 d:/altera13.0sp1/nios2eds/bin/gnu/h-i686-mingw32/bin/../lib/gcc/nios2-elf/4.1.2/../../../../nios2-elf/lib\libc.a(lib_a-dtoa.o)
                                 0x14 (size before relaxing)
 .rodata.str1.4
                0x0a813c60       0x10 d:/altera13.0sp1/nios2eds/bin/gnu/h-i686-mingw32/bin/../lib/gcc/nios2-elf/4.1.2/../../../../nios2-elf/lib\libc.a(lib_a-locale.o)
                                 0x18 (size before relaxing)
 .rodata        0x0a813c70       0x30 d:/altera13.0sp1/nios2eds/bin/gnu/h-i686-mingw32/bin/../lib/gcc/nios2-elf/4.1.2/../../../../nios2-elf/lib\libc.a(lib_a-locale.o)
 .rodata        0x0a813ca0      0x124 d:/altera13.0sp1/nios2eds/bin/gnu/h-i686-mingw32/bin/../lib/gcc/nios2-elf/4.1.2/../../../../nios2-elf/lib\libc.a(lib_a-mprec.o)
                0x0a813ca0                __mprec_tens
                0x0a813d68                __mprec_bigtens
                0x0a813d90                __mprec_tinytens
 .rodata        0x0a813dc4       0x14 d:/altera13.0sp1/nios2eds/bin/gnu/h-i686-mingw32/bin/../lib/gcc/nios2-elf/4.1.2\libgcc.a(_thenan_df.o)
                0x0a813dc4                __thenan_df
 .rodata        0x0a813dd8      0x100 d:/altera13.0sp1/nios2eds/bin/gnu/h-i686-mingw32/bin/../lib/gcc/nios2-elf/4.1.2\libgcc.a(_clz.o)
                0x0a813dd8                __clz_tab
 .rodata        0x0a813ed8        0xc ../DE2_115_Audio_bsp/\libhal_bsp.a(alt_dev.o)
 .rodata        0x0a813ee4       0x10 ../DE2_115_Audio_bsp/\libhal_bsp.a(alt_main.o)
 .rodata        0x0a813ef4       0x2c ../DE2_115_Audio_bsp/\libhal_bsp.a(alt_sys_init.o)
 .rodata        0x0a813f20      0x281 d:/altera13.0sp1/nios2eds/bin/gnu/h-i686-mingw32/bin/../lib/gcc/nios2-elf/4.1.2/../../../../nios2-elf/lib\libc.a(lib_a-ctype_.o)
                0x0a813f20                _ctype_
 *(.rodata1)
                0x0a8141a4                . = ALIGN (0x4)
 *fill*         0x0a8141a1        0x3 00
                0x0a8141a4                PROVIDE (__ram_rodata_end, ABSOLUTE (.))
                0x0a812fbc                PROVIDE (__flash_rodata_start, LOADADDR (.rodata))

.rwdata         0x0a8141a4     0x1c74 load address 0x0a815e18
                0x0a8141a4                PROVIDE (__ram_rwdata_start, ABSOLUTE (.))
                0x0a8141a4                . = ALIGN (0x4)
 *(.got.plt)
 *(.got)
 *(.data1)
 *(.data .data.* .gnu.linkonce.d.*)
 .data          0x0a8141a4        0x0 ../DE2_115_Audio_bsp//obj/HAL/src/crt0.o
 .data          0x0a8141a4        0x0 obj/default/AUDIO.o
 .data          0x0a8141a4        0x0 obj/default/I2C.o
 .data          0x0a8141a4        0x0 obj/default/LCD.o
 .data          0x0a8141a4        0x0 obj/default/LED.o
 .data          0x0a8141a4       0x10 obj/default/SEG7.o
 .data          0x0a8141b4        0x0 obj/default/debug.o
 .data          0x0a8141b4        0x0 obj/default/main.o
 .data          0x0a8141b4        0x0 d:/altera13.0sp1/nios2eds/bin/gnu/h-i686-mingw32/bin/../lib/gcc/nios2-elf/4.1.2\libgcc.a(lib2-divmod.o)
 .data          0x0a8141b4        0x0 d:/altera13.0sp1/nios2eds/bin/gnu/h-i686-mingw32/bin/../lib/gcc/nios2-elf/4.1.2/../../../../nios2-elf/lib\libc.a(lib_a-fclose.o)
 .data          0x0a8141b4        0x0 d:/altera13.0sp1/nios2eds/bin/gnu/h-i686-mingw32/bin/../lib/gcc/nios2-elf/4.1.2/../../../../nios2-elf/lib\libc.a(lib_a-fflush.o)
 .data          0x0a8141b4        0x0 d:/altera13.0sp1/nios2eds/bin/gnu/h-i686-mingw32/bin/../lib/gcc/nios2-elf/4.1.2/../../../../nios2-elf/lib\libc.a(lib_a-findfp.o)
 .data          0x0a8141b4        0x0 d:/altera13.0sp1/nios2eds/bin/gnu/h-i686-mingw32/bin/../lib/gcc/nios2-elf/4.1.2/../../../../nios2-elf/lib\libc.a(lib_a-fopen.o)
 .data          0x0a8141b4        0x0 d:/altera13.0sp1/nios2eds/bin/gnu/h-i686-mingw32/bin/../lib/gcc/nios2-elf/4.1.2/../../../../nios2-elf/lib\libc.a(lib_a-freer.o)
 .data          0x0a8141b4        0x0 d:/altera13.0sp1/nios2eds/bin/gnu/h-i686-mingw32/bin/../lib/gcc/nios2-elf/4.1.2/../../../../nios2-elf/lib\libc.a(lib_a-fseek.o)
 .data          0x0a8141b4        0x0 d:/altera13.0sp1/nios2eds/bin/gnu/h-i686-mingw32/bin/../lib/gcc/nios2-elf/4.1.2/../../../../nios2-elf/lib\libc.a(lib_a-fstatr.o)
 .data          0x0a8141b4        0x0 d:/altera13.0sp1/nios2eds/bin/gnu/h-i686-mingw32/bin/../lib/gcc/nios2-elf/4.1.2/../../../../nios2-elf/lib\libc.a(lib_a-fwalk.o)
 .data          0x0a8141b4        0x0 d:/altera13.0sp1/nios2eds/bin/gnu/h-i686-mingw32/bin/../lib/gcc/nios2-elf/4.1.2/../../../../nios2-elf/lib\libc.a(lib_a-fwrite.o)
 .data          0x0a8141b4      0x400 d:/altera13.0sp1/nios2eds/bin/gnu/h-i686-mingw32/bin/../lib/gcc/nios2-elf/4.1.2/../../../../nios2-elf/lib\libc.a(lib_a-impure.o)
 .data          0x0a8145b4        0x0 d:/altera13.0sp1/nios2eds/bin/gnu/h-i686-mingw32/bin/../lib/gcc/nios2-elf/4.1.2/../../../../nios2-elf/lib\libc.a(lib_a-int_errno.o)
 .data          0x0a8145b4        0x0 d:/altera13.0sp1/nios2eds/bin/gnu/h-i686-mingw32/bin/../lib/gcc/nios2-elf/4.1.2/../../../../nios2-elf/lib\libc.a(lib_a-makebuf.o)
 .data          0x0a8145b4      0x408 d:/altera13.0sp1/nios2eds/bin/gnu/h-i686-mingw32/bin/../lib/gcc/nios2-elf/4.1.2/../../../../nios2-elf/lib\libc.a(lib_a-mallocr.o)
                0x0a8145b4                __malloc_av_
 .data          0x0a8149bc        0x0 d:/altera13.0sp1/nios2eds/bin/gnu/h-i686-mingw32/bin/../lib/gcc/nios2-elf/4.1.2/../../../../nios2-elf/lib\libc.a(lib_a-memset.o)
 .data          0x0a8149bc        0x0 d:/altera13.0sp1/nios2eds/bin/gnu/h-i686-mingw32/bin/../lib/gcc/nios2-elf/4.1.2/../../../../nios2-elf/lib\libc.a(lib_a-openr.o)
 .data          0x0a8149bc        0x0 d:/altera13.0sp1/nios2eds/bin/gnu/h-i686-mingw32/bin/../lib/gcc/nios2-elf/4.1.2/../../../../nios2-elf/lib\libc.a(lib_a-printf.o)
 .data          0x0a8149bc        0x0 d:/altera13.0sp1/nios2eds/bin/gnu/h-i686-mingw32/bin/../lib/gcc/nios2-elf/4.1.2/../../../../nios2-elf/lib\libc.a(lib_a-puts.o)
 .data          0x0a8149bc        0x0 d:/altera13.0sp1/nios2eds/bin/gnu/h-i686-mingw32/bin/../lib/gcc/nios2-elf/4.1.2/../../../../nios2-elf/lib\libc.a(lib_a-refill.o)
 .data          0x0a8149bc        0x0 d:/altera13.0sp1/nios2eds/bin/gnu/h-i686-mingw32/bin/../lib/gcc/nios2-elf/4.1.2/../../../../nios2-elf/lib\libc.a(lib_a-sbrkr.o)
 .data          0x0a8149bc        0x0 d:/altera13.0sp1/nios2eds/bin/gnu/h-i686-mingw32/bin/../lib/gcc/nios2-elf/4.1.2/../../../../nios2-elf/lib\libc.a(lib_a-sprintf.o)
 .data          0x0a8149bc        0x0 d:/altera13.0sp1/nios2eds/bin/gnu/h-i686-mingw32/bin/../lib/gcc/nios2-elf/4.1.2/../../../../nios2-elf/lib\libc.a(lib_a-stdio.o)
 .data          0x0a8149bc        0x0 d:/altera13.0sp1/nios2eds/bin/gnu/h-i686-mingw32/bin/../lib/gcc/nios2-elf/4.1.2/../../../../nios2-elf/lib\libc.a(lib_a-strlen.o)
 .data          0x0a8149bc        0x0 d:/altera13.0sp1/nios2eds/bin/gnu/h-i686-mingw32/bin/../lib/gcc/nios2-elf/4.1.2/../../../../nios2-elf/lib\libc.a(lib_a-vfprintf.o)
 .data          0x0a8149bc        0x0 d:/altera13.0sp1/nios2eds/bin/gnu/h-i686-mingw32/bin/../lib/gcc/nios2-elf/4.1.2/../../../../nios2-elf/lib\libc.a(lib_a-vsnprintf.o)
 .data          0x0a8149bc        0x0 d:/altera13.0sp1/nios2eds/bin/gnu/h-i686-mingw32/bin/../lib/gcc/nios2-elf/4.1.2/../../../../nios2-elf/lib\libc.a(lib_a-writer.o)
 .data          0x0a8149bc        0x0 d:/altera13.0sp1/nios2eds/bin/gnu/h-i686-mingw32/bin/../lib/gcc/nios2-elf/4.1.2/../../../../nios2-elf/lib\libc.a(lib_a-wsetup.o)
 .data          0x0a8149bc        0x0 d:/altera13.0sp1/nios2eds/bin/gnu/h-i686-mingw32/bin/../lib/gcc/nios2-elf/4.1.2/../../../../nios2-elf/lib\libc.a(lib_a-closer.o)
 .data          0x0a8149bc        0x0 d:/altera13.0sp1/nios2eds/bin/gnu/h-i686-mingw32/bin/../lib/gcc/nios2-elf/4.1.2/../../../../nios2-elf/lib\libc.a(lib_a-dtoa.o)
 .data          0x0a8149bc        0x0 d:/altera13.0sp1/nios2eds/bin/gnu/h-i686-mingw32/bin/../lib/gcc/nios2-elf/4.1.2/../../../../nios2-elf/lib\libc.a(lib_a-flags.o)
 .data          0x0a8149bc        0x0 d:/altera13.0sp1/nios2eds/bin/gnu/h-i686-mingw32/bin/../lib/gcc/nios2-elf/4.1.2/../../../../nios2-elf/lib\libc.a(lib_a-fvwrite.o)
 .data          0x0a8149bc        0x0 d:/altera13.0sp1/nios2eds/bin/gnu/h-i686-mingw32/bin/../lib/gcc/nios2-elf/4.1.2/../../../../nios2-elf/lib\libc.a(lib_a-isattyr.o)
 .data          0x0a8149bc        0xc d:/altera13.0sp1/nios2eds/bin/gnu/h-i686-mingw32/bin/../lib/gcc/nios2-elf/4.1.2/../../../../nios2-elf/lib\libc.a(lib_a-locale.o)
                0x0a8149bc                __lc_ctype
 .data          0x0a8149c8        0x0 d:/altera13.0sp1/nios2eds/bin/gnu/h-i686-mingw32/bin/../lib/gcc/nios2-elf/4.1.2/../../../../nios2-elf/lib\libc.a(lib_a-lseekr.o)
 .data          0x0a8149c8        0x0 d:/altera13.0sp1/nios2eds/bin/gnu/h-i686-mingw32/bin/../lib/gcc/nios2-elf/4.1.2/../../../../nios2-elf/lib\libc.a(lib_a-memchr.o)
 .data          0x0a8149c8        0x0 d:/altera13.0sp1/nios2eds/bin/gnu/h-i686-mingw32/bin/../lib/gcc/nios2-elf/4.1.2/../../../../nios2-elf/lib\libc.a(lib_a-memcpy.o)
 .data          0x0a8149c8        0x0 d:/altera13.0sp1/nios2eds/bin/gnu/h-i686-mingw32/bin/../lib/gcc/nios2-elf/4.1.2/../../../../nios2-elf/lib\libc.a(lib_a-memmove.o)
 .data          0x0a8149c8        0x0 d:/altera13.0sp1/nios2eds/bin/gnu/h-i686-mingw32/bin/../lib/gcc/nios2-elf/4.1.2/../../../../nios2-elf/lib\libc.a(lib_a-mprec.o)
 .data          0x0a8149c8        0x0 d:/altera13.0sp1/nios2eds/bin/gnu/h-i686-mingw32/bin/../lib/gcc/nios2-elf/4.1.2/../../../../nios2-elf/lib\libc.a(lib_a-readr.o)
 .data          0x0a8149c8        0x0 d:/altera13.0sp1/nios2eds/bin/gnu/h-i686-mingw32/bin/../lib/gcc/nios2-elf/4.1.2/../../../../nios2-elf/lib\libc.a(lib_a-reallocr.o)
 .data          0x0a8149c8        0x0 d:/altera13.0sp1/nios2eds/bin/gnu/h-i686-mingw32/bin/../lib/gcc/nios2-elf/4.1.2/../../../../nios2-elf/lib\libc.a(lib_a-s_isinfd.o)
 .data          0x0a8149c8        0x0 d:/altera13.0sp1/nios2eds/bin/gnu/h-i686-mingw32/bin/../lib/gcc/nios2-elf/4.1.2/../../../../nios2-elf/lib\libc.a(lib_a-s_isnand.o)
 .data          0x0a8149c8        0x0 d:/altera13.0sp1/nios2eds/bin/gnu/h-i686-mingw32/bin/../lib/gcc/nios2-elf/4.1.2/../../../../nios2-elf/lib\libc.a(lib_a-strcmp.o)
 .data          0x0a8149c8        0x0 d:/altera13.0sp1/nios2eds/bin/gnu/h-i686-mingw32/bin/../lib/gcc/nios2-elf/4.1.2/../../../../nios2-elf/lib\libc.a(lib_a-callocr.o)
 .data          0x0a8149c8        0x0 d:/altera13.0sp1/nios2eds/bin/gnu/h-i686-mingw32/bin/../lib/gcc/nios2-elf/4.1.2\libgcc.a(_udivdi3.o)
 .data          0x0a8149c8        0x0 d:/altera13.0sp1/nios2eds/bin/gnu/h-i686-mingw32/bin/../lib/gcc/nios2-elf/4.1.2\libgcc.a(_umoddi3.o)
 .data          0x0a8149c8        0x0 d:/altera13.0sp1/nios2eds/bin/gnu/h-i686-mingw32/bin/../lib/gcc/nios2-elf/4.1.2\libgcc.a(_addsub_df.o)
 .data          0x0a8149c8        0x0 d:/altera13.0sp1/nios2eds/bin/gnu/h-i686-mingw32/bin/../lib/gcc/nios2-elf/4.1.2\libgcc.a(_mul_df.o)
 .data          0x0a8149c8        0x0 d:/altera13.0sp1/nios2eds/bin/gnu/h-i686-mingw32/bin/../lib/gcc/nios2-elf/4.1.2\libgcc.a(_div_df.o)
 .data          0x0a8149c8        0x0 d:/altera13.0sp1/nios2eds/bin/gnu/h-i686-mingw32/bin/../lib/gcc/nios2-elf/4.1.2\libgcc.a(_eq_df.o)
 .data          0x0a8149c8        0x0 d:/altera13.0sp1/nios2eds/bin/gnu/h-i686-mingw32/bin/../lib/gcc/nios2-elf/4.1.2\libgcc.a(_ne_df.o)
 .data          0x0a8149c8        0x0 d:/altera13.0sp1/nios2eds/bin/gnu/h-i686-mingw32/bin/../lib/gcc/nios2-elf/4.1.2\libgcc.a(_gt_df.o)
 .data          0x0a8149c8        0x0 d:/altera13.0sp1/nios2eds/bin/gnu/h-i686-mingw32/bin/../lib/gcc/nios2-elf/4.1.2\libgcc.a(_ge_df.o)
 .data          0x0a8149c8        0x0 d:/altera13.0sp1/nios2eds/bin/gnu/h-i686-mingw32/bin/../lib/gcc/nios2-elf/4.1.2\libgcc.a(_lt_df.o)
 .data          0x0a8149c8        0x0 d:/altera13.0sp1/nios2eds/bin/gnu/h-i686-mingw32/bin/../lib/gcc/nios2-elf/4.1.2\libgcc.a(_si_to_df.o)
 .data          0x0a8149c8        0x0 d:/altera13.0sp1/nios2eds/bin/gnu/h-i686-mingw32/bin/../lib/gcc/nios2-elf/4.1.2\libgcc.a(_df_to_si.o)
 .data          0x0a8149c8        0x0 d:/altera13.0sp1/nios2eds/bin/gnu/h-i686-mingw32/bin/../lib/gcc/nios2-elf/4.1.2\libgcc.a(_thenan_df.o)
 .data          0x0a8149c8        0x0 d:/altera13.0sp1/nios2eds/bin/gnu/h-i686-mingw32/bin/../lib/gcc/nios2-elf/4.1.2\libgcc.a(_usi_to_df.o)
 .data          0x0a8149c8        0x0 d:/altera13.0sp1/nios2eds/bin/gnu/h-i686-mingw32/bin/../lib/gcc/nios2-elf/4.1.2\libgcc.a(_muldi3.o)
 .data          0x0a8149c8        0x0 d:/altera13.0sp1/nios2eds/bin/gnu/h-i686-mingw32/bin/../lib/gcc/nios2-elf/4.1.2\libgcc.a(_clz.o)
 .data          0x0a8149c8        0x0 d:/altera13.0sp1/nios2eds/bin/gnu/h-i686-mingw32/bin/../lib/gcc/nios2-elf/4.1.2\libgcc.a(_clzsi2.o)
 .data          0x0a8149c8        0x0 d:/altera13.0sp1/nios2eds/bin/gnu/h-i686-mingw32/bin/../lib/gcc/nios2-elf/4.1.2\libgcc.a(_pack_df.o)
 .data          0x0a8149c8        0x0 d:/altera13.0sp1/nios2eds/bin/gnu/h-i686-mingw32/bin/../lib/gcc/nios2-elf/4.1.2\libgcc.a(_unpack_df.o)
 .data          0x0a8149c8        0x0 d:/altera13.0sp1/nios2eds/bin/gnu/h-i686-mingw32/bin/../lib/gcc/nios2-elf/4.1.2\libgcc.a(_fpcmp_parts_df.o)
 .data          0x0a8149c8        0x0 ../DE2_115_Audio_bsp/\libhal_bsp.a(alt_close.o)
 .data          0x0a8149c8      0x1a8 ../DE2_115_Audio_bsp/\libhal_bsp.a(alt_dev.o)
                0x0a8149c8                alt_dev_null
                0x0a8149f0                alt_fd_list
 .data          0x0a814b70        0x0 ../DE2_115_Audio_bsp/\libhal_bsp.a(alt_errno.o)
 .data          0x0a814b70        0x0 ../DE2_115_Audio_bsp/\libhal_bsp.a(alt_fstat.o)
 .data          0x0a814b70        0x0 ../DE2_115_Audio_bsp/\libhal_bsp.a(alt_irq_register.o)
 .data          0x0a814b70        0x0 ../DE2_115_Audio_bsp/\libhal_bsp.a(alt_irq_vars.o)
 .data          0x0a814b70        0x0 ../DE2_115_Audio_bsp/\libhal_bsp.a(alt_isatty.o)
 .data          0x0a814b70        0x0 ../DE2_115_Audio_bsp/\libhal_bsp.a(alt_load.o)
 .data          0x0a814b70        0x0 ../DE2_115_Audio_bsp/\libhal_bsp.a(alt_lseek.o)
 .data          0x0a814b70        0x0 ../DE2_115_Audio_bsp/\libhal_bsp.a(alt_main.o)
 .data          0x0a814b70        0x0 ../DE2_115_Audio_bsp/\libhal_bsp.a(alt_malloc_lock.o)
 .data          0x0a814b70        0x0 ../DE2_115_Audio_bsp/\libhal_bsp.a(alt_open.o)
 .data          0x0a814b70        0x0 ../DE2_115_Audio_bsp/\libhal_bsp.a(alt_read.o)
 .data          0x0a814b70        0x0 ../DE2_115_Audio_bsp/\libhal_bsp.a(alt_release_fd.o)
 .data          0x0a814b70        0x0 ../DE2_115_Audio_bsp/\libhal_bsp.a(alt_sbrk.o)
 .data          0x0a814b70        0x0 ../DE2_115_Audio_bsp/\libhal_bsp.a(alt_usleep.o)
 .data          0x0a814b70        0x0 ../DE2_115_Audio_bsp/\libhal_bsp.a(alt_write.o)
 .data          0x0a814b70     0x1258 ../DE2_115_Audio_bsp/\libhal_bsp.a(alt_sys_init.o)
 .data          0x0a815dc8        0x0 ../DE2_115_Audio_bsp/\libhal_bsp.a(altera_avalon_cfi_flash.o)
 .data          0x0a815dc8        0x0 ../DE2_115_Audio_bsp/\libhal_bsp.a(altera_avalon_cfi_flash_table.o)
 .data          0x0a815dc8        0x0 ../DE2_115_Audio_bsp/\libhal_bsp.a(altera_avalon_jtag_uart_fd.o)
 .data          0x0a815dc8        0x0 ../DE2_115_Audio_bsp/\libhal_bsp.a(altera_avalon_jtag_uart_init.o)
 .data          0x0a815dc8        0x0 ../DE2_115_Audio_bsp/\libhal_bsp.a(altera_avalon_jtag_uart_ioctl.o)
 .data          0x0a815dc8        0x0 ../DE2_115_Audio_bsp/\libhal_bsp.a(altera_avalon_jtag_uart_read.o)
 .data          0x0a815dc8        0x0 ../DE2_115_Audio_bsp/\libhal_bsp.a(altera_avalon_jtag_uart_write.o)
 .data          0x0a815dc8        0x0 ../DE2_115_Audio_bsp/\libhal_bsp.a(altera_avalon_lcd_16207.o)
 .data          0x0a815dc8        0x0 ../DE2_115_Audio_bsp/\libhal_bsp.a(altera_avalon_lcd_16207_fd.o)
 .data          0x0a815dc8        0x0 ../DE2_115_Audio_bsp/\libhal_bsp.a(alt_alarm_start.o)
 .data          0x0a815dc8        0x0 ../DE2_115_Audio_bsp/\libhal_bsp.a(alt_busy_sleep.o)
 .data          0x0a815dc8        0x0 ../DE2_115_Audio_bsp/\libhal_bsp.a(alt_dcache_flush.o)
 .data          0x0a815dc8        0x0 ../DE2_115_Audio_bsp/\libhal_bsp.a(alt_dcache_flush_all.o)
 .data          0x0a815dc8        0x0 ../DE2_115_Audio_bsp/\libhal_bsp.a(alt_dev_llist_insert.o)
 .data          0x0a815dc8        0x0 ../DE2_115_Audio_bsp/\libhal_bsp.a(alt_do_ctors.o)
 .data          0x0a815dc8        0x0 ../DE2_115_Audio_bsp/\libhal_bsp.a(alt_do_dtors.o)
 .data          0x0a815dc8        0x0 ../DE2_115_Audio_bsp/\libhal_bsp.a(alt_find_dev.o)
 .data          0x0a815dc8        0x0 ../DE2_115_Audio_bsp/\libhal_bsp.a(alt_find_file.o)
 .data          0x0a815dc8        0x0 ../DE2_115_Audio_bsp/\libhal_bsp.a(alt_flash_dev.o)
 .data          0x0a815dc8        0x0 ../DE2_115_Audio_bsp/\libhal_bsp.a(alt_get_fd.o)
 .data          0x0a815dc8        0x0 ../DE2_115_Audio_bsp/\libhal_bsp.a(alt_icache_flush_all.o)
 .data          0x0a815dc8        0x0 ../DE2_115_Audio_bsp/\libhal_bsp.a(alt_iic.o)
 .data          0x0a815dc8        0x0 ../DE2_115_Audio_bsp/\libhal_bsp.a(alt_iic_isr_register.o)
 .data          0x0a815dc8        0x0 ../DE2_115_Audio_bsp/\libhal_bsp.a(alt_io_redirect.o)
 .data          0x0a815dc8        0x0 ../DE2_115_Audio_bsp/\libhal_bsp.a(alt_irq_entry.o)
 .data          0x0a815dc8        0x0 ../DE2_115_Audio_bsp/\libhal_bsp.a(alt_irq_handler.o)
 .data          0x0a815dc8        0x0 ../DE2_115_Audio_bsp/\libhal_bsp.a(alt_tick.o)
 .data          0x0a815dc8        0x0 ../DE2_115_Audio_bsp/\libhal_bsp.a(altera_nios2_qsys_irq.o)
 .data          0x0a815dc8        0x0 ../DE2_115_Audio_bsp/\libhal_bsp.a(altera_avalon_cfi_flash_amd.o)
 .data          0x0a815dc8        0x0 ../DE2_115_Audio_bsp/\libhal_bsp.a(altera_avalon_cfi_flash_intel.o)
 .data          0x0a815dc8        0x0 ../DE2_115_Audio_bsp/\libhal_bsp.a(alt_exception_entry.o)
 .data          0x0a815dc8        0x0 ../DE2_115_Audio_bsp/\libhal_bsp.a(alt_icache_flush.o)
 .data          0x0a815dc8        0x0 d:/altera13.0sp1/nios2eds/bin/gnu/h-i686-mingw32/bin/../lib/gcc/nios2-elf/4.1.2/../../../../nios2-elf/lib\libc.a(lib_a-atexit.o)
 .data          0x0a815dc8        0x0 d:/altera13.0sp1/nios2eds/bin/gnu/h-i686-mingw32/bin/../lib/gcc/nios2-elf/4.1.2/../../../../nios2-elf/lib\libc.a(lib_a-ctype_.o)
 .data          0x0a815dc8        0x0 d:/altera13.0sp1/nios2eds/bin/gnu/h-i686-mingw32/bin/../lib/gcc/nios2-elf/4.1.2/../../../../nios2-elf/lib\libc.a(lib_a-exit.o)
 .data          0x0a815dc8        0x0 d:/altera13.0sp1/nios2eds/bin/gnu/h-i686-mingw32/bin/../lib/gcc/nios2-elf/4.1.2/../../../../nios2-elf/lib\libc.a(lib_a-memcmp.o)
 .data          0x0a815dc8        0x0 d:/altera13.0sp1/nios2eds/bin/gnu/h-i686-mingw32/bin/../lib/gcc/nios2-elf/4.1.2/../../../../nios2-elf/lib\libc.a(lib_a-__atexit.o)
 .data          0x0a815dc8        0x0 d:/altera13.0sp1/nios2eds/bin/gnu/h-i686-mingw32/bin/../lib/gcc/nios2-elf/4.1.2/../../../../nios2-elf/lib\libc.a(lib_a-__call_atexit.o)
 .data          0x0a815dc8        0x0 ../DE2_115_Audio_bsp/\libhal_bsp.a(alt_exit.o)
                0x0a81ddc8                _gp = ABSOLUTE ((. + 0x8000))
                0x0a81ddc8                PROVIDE (gp, _gp)
 *(.rwdata .rwdata.*)
 *(.sdata .sdata.* .gnu.linkonce.s.*)
 .sdata         0x0a815dc8        0x8 d:/altera13.0sp1/nios2eds/bin/gnu/h-i686-mingw32/bin/../lib/gcc/nios2-elf/4.1.2/../../../../nios2-elf/lib\libc.a(lib_a-impure.o)
                0x0a815dc8                _impure_ptr
                0x0a815dcc                _global_impure_ptr
 .sdata         0x0a815dd0        0x8 d:/altera13.0sp1/nios2eds/bin/gnu/h-i686-mingw32/bin/../lib/gcc/nios2-elf/4.1.2/../../../../nios2-elf/lib\libc.a(lib_a-mallocr.o)
                0x0a815dd0                __malloc_trim_threshold
                0x0a815dd4                __malloc_sbrk_base
 .sdata         0x0a815dd8        0x8 d:/altera13.0sp1/nios2eds/bin/gnu/h-i686-mingw32/bin/../lib/gcc/nios2-elf/4.1.2/../../../../nios2-elf/lib\libc.a(lib_a-locale.o)
                0x0a815dd8                __mb_cur_max
 .sdata         0x0a815de0       0x14 ../DE2_115_Audio_bsp/\libhal_bsp.a(alt_dev.o)
                0x0a815de0                alt_fs_list
                0x0a815de8                alt_dev_list
                0x0a815df0                alt_max_fd
 .sdata         0x0a815df4        0x4 ../DE2_115_Audio_bsp/\libhal_bsp.a(alt_errno.o)
                0x0a815df4                alt_errno
 .sdata         0x0a815df8        0x4 ../DE2_115_Audio_bsp/\libhal_bsp.a(alt_irq_vars.o)
                0x0a815df8                alt_priority_mask
 .sdata         0x0a815dfc        0x4 ../DE2_115_Audio_bsp/\libhal_bsp.a(alt_sbrk.o)
 .sdata         0x0a815e00        0x4 ../DE2_115_Audio_bsp/\libhal_bsp.a(altera_avalon_lcd_16207.o)
 .sdata         0x0a815e04        0x8 ../DE2_115_Audio_bsp/\libhal_bsp.a(alt_flash_dev.o)
                0x0a815e04                alt_flash_dev_list
 .sdata         0x0a815e0c        0x8 ../DE2_115_Audio_bsp/\libhal_bsp.a(alt_tick.o)
                0x0a815e0c                alt_alarm_list
 .sdata         0x0a815e14        0x4 d:/altera13.0sp1/nios2eds/bin/gnu/h-i686-mingw32/bin/../lib/gcc/nios2-elf/4.1.2/../../../../nios2-elf/lib\libc.a(lib_a-ctype_.o)
                0x0a815e14                __ctype_ptr
 *(.sdata2 .sdata2.* .gnu.linkonce.s2.*)
                0x0a815e18                . = ALIGN (0x4)
                0x0a815e18                _edata = ABSOLUTE (.)
                0x0a815e18                PROVIDE (edata, ABSOLUTE (.))
                0x0a815e18                PROVIDE (__ram_rwdata_end, ABSOLUTE (.))
                0x0a815e18                PROVIDE (__flash_rwdata_start, LOADADDR (.rwdata))

.bss            0x0a817a8c      0x324
                0x0a817a8c                __bss_start = ABSOLUTE (.)
                0x0a817a8c                PROVIDE (__sbss_start, ABSOLUTE (.))
                0x0a817a8c                PROVIDE (___sbss_start, ABSOLUTE (.))
 *(.dynsbss)
 *(.sbss .sbss.* .gnu.linkonce.sb.*)
 .sbss          0x0a817a8c        0x4 obj/default/LCD.o
 .sbss          0x0a817a90        0x8 obj/default/main.o
 .sbss          0x0a817a98        0x4 obj/default/main.o
                0x0a817a98                record_sample_rate
 .sbss          0x0a817a9c        0x4 d:/altera13.0sp1/nios2eds/bin/gnu/h-i686-mingw32/bin/../lib/gcc/nios2-elf/4.1.2/../../../../nios2-elf/lib\libc.a(lib_a-int_errno.o)
                0x0a817a9c                errno
 .sbss          0x0a817aa0        0xc d:/altera13.0sp1/nios2eds/bin/gnu/h-i686-mingw32/bin/../lib/gcc/nios2-elf/4.1.2/../../../../nios2-elf/lib\libc.a(lib_a-mallocr.o)
                0x0a817aa0                __malloc_top_pad
                0x0a817aa4                __malloc_max_sbrked_mem
                0x0a817aa8                __malloc_max_total_mem
 .sbss          0x0a817aac        0xc d:/altera13.0sp1/nios2eds/bin/gnu/h-i686-mingw32/bin/../lib/gcc/nios2-elf/4.1.2/../../../../nios2-elf/lib\libc.a(lib_a-locale.o)
                0x0a817aac                __nlocale_changed
                0x0a817ab0                __mlocale_changed
                0x0a817ab4                _PathLocale
 .sbss          0x0a817ab8        0x4 ../DE2_115_Audio_bsp/\libhal_bsp.a(alt_irq_vars.o)
                0x0a817ab8                alt_irq_active
 .sbss          0x0a817abc        0xc ../DE2_115_Audio_bsp/\libhal_bsp.a(alt_main.o)
                0x0a817abc                alt_argc
                0x0a817ac0                alt_argv
                0x0a817ac4                alt_envp
 .sbss          0x0a817ac8        0x8 ../DE2_115_Audio_bsp/\libhal_bsp.a(alt_tick.o)
                0x0a817ac8                _alt_tick_rate
                0x0a817acc                _alt_nticks
 *(.sbss2 .sbss2.* .gnu.linkonce.sb2.*)
 *(.scommon)
                0x0a817ad0                PROVIDE (__sbss_end, ABSOLUTE (.))
                0x0a817ad0                PROVIDE (___sbss_end, ABSOLUTE (.))
 *(.dynbss)
 *(.bss .bss.* .gnu.linkonce.b.*)
 .bss           0x0a817ad0        0x0 ../DE2_115_Audio_bsp//obj/HAL/src/crt0.o
 .bss           0x0a817ad0       0x28 obj/default/AUDIO.o
 .bss           0x0a817af8        0x0 obj/default/I2C.o
 .bss           0x0a817af8        0x0 obj/default/LCD.o
 .bss           0x0a817af8        0x0 obj/default/LED.o
 .bss           0x0a817af8        0x0 obj/default/SEG7.o
 .bss           0x0a817af8        0x0 obj/default/debug.o
 .bss           0x0a817af8        0x0 obj/default/main.o
 .bss           0x0a817af8        0x0 d:/altera13.0sp1/nios2eds/bin/gnu/h-i686-mingw32/bin/../lib/gcc/nios2-elf/4.1.2\libgcc.a(lib2-divmod.o)
 .bss           0x0a817af8        0x0 d:/altera13.0sp1/nios2eds/bin/gnu/h-i686-mingw32/bin/../lib/gcc/nios2-elf/4.1.2/../../../../nios2-elf/lib\libc.a(lib_a-fclose.o)
 .bss           0x0a817af8        0x0 d:/altera13.0sp1/nios2eds/bin/gnu/h-i686-mingw32/bin/../lib/gcc/nios2-elf/4.1.2/../../../../nios2-elf/lib\libc.a(lib_a-fflush.o)
 .bss           0x0a817af8        0x0 d:/altera13.0sp1/nios2eds/bin/gnu/h-i686-mingw32/bin/../lib/gcc/nios2-elf/4.1.2/../../../../nios2-elf/lib\libc.a(lib_a-findfp.o)
 .bss           0x0a817af8        0x0 d:/altera13.0sp1/nios2eds/bin/gnu/h-i686-mingw32/bin/../lib/gcc/nios2-elf/4.1.2/../../../../nios2-elf/lib\libc.a(lib_a-fopen.o)
 .bss           0x0a817af8        0x0 d:/altera13.0sp1/nios2eds/bin/gnu/h-i686-mingw32/bin/../lib/gcc/nios2-elf/4.1.2/../../../../nios2-elf/lib\libc.a(lib_a-freer.o)
 .bss           0x0a817af8        0x0 d:/altera13.0sp1/nios2eds/bin/gnu/h-i686-mingw32/bin/../lib/gcc/nios2-elf/4.1.2/../../../../nios2-elf/lib\libc.a(lib_a-fseek.o)
 .bss           0x0a817af8        0x0 d:/altera13.0sp1/nios2eds/bin/gnu/h-i686-mingw32/bin/../lib/gcc/nios2-elf/4.1.2/../../../../nios2-elf/lib\libc.a(lib_a-fstatr.o)
 .bss           0x0a817af8        0x0 d:/altera13.0sp1/nios2eds/bin/gnu/h-i686-mingw32/bin/../lib/gcc/nios2-elf/4.1.2/../../../../nios2-elf/lib\libc.a(lib_a-fwalk.o)
 .bss           0x0a817af8        0x0 d:/altera13.0sp1/nios2eds/bin/gnu/h-i686-mingw32/bin/../lib/gcc/nios2-elf/4.1.2/../../../../nios2-elf/lib\libc.a(lib_a-fwrite.o)
 .bss           0x0a817af8        0x0 d:/altera13.0sp1/nios2eds/bin/gnu/h-i686-mingw32/bin/../lib/gcc/nios2-elf/4.1.2/../../../../nios2-elf/lib\libc.a(lib_a-impure.o)
 .bss           0x0a817af8        0x0 d:/altera13.0sp1/nios2eds/bin/gnu/h-i686-mingw32/bin/../lib/gcc/nios2-elf/4.1.2/../../../../nios2-elf/lib\libc.a(lib_a-int_errno.o)
 .bss           0x0a817af8        0x0 d:/altera13.0sp1/nios2eds/bin/gnu/h-i686-mingw32/bin/../lib/gcc/nios2-elf/4.1.2/../../../../nios2-elf/lib\libc.a(lib_a-makebuf.o)
 .bss           0x0a817af8       0x28 d:/altera13.0sp1/nios2eds/bin/gnu/h-i686-mingw32/bin/../lib/gcc/nios2-elf/4.1.2/../../../../nios2-elf/lib\libc.a(lib_a-mallocr.o)
                0x0a817af8                __malloc_current_mallinfo
 .bss           0x0a817b20        0x0 d:/altera13.0sp1/nios2eds/bin/gnu/h-i686-mingw32/bin/../lib/gcc/nios2-elf/4.1.2/../../../../nios2-elf/lib\libc.a(lib_a-memset.o)
 .bss           0x0a817b20        0x0 d:/altera13.0sp1/nios2eds/bin/gnu/h-i686-mingw32/bin/../lib/gcc/nios2-elf/4.1.2/../../../../nios2-elf/lib\libc.a(lib_a-openr.o)
 .bss           0x0a817b20        0x0 d:/altera13.0sp1/nios2eds/bin/gnu/h-i686-mingw32/bin/../lib/gcc/nios2-elf/4.1.2/../../../../nios2-elf/lib\libc.a(lib_a-printf.o)
 .bss           0x0a817b20        0x0 d:/altera13.0sp1/nios2eds/bin/gnu/h-i686-mingw32/bin/../lib/gcc/nios2-elf/4.1.2/../../../../nios2-elf/lib\libc.a(lib_a-puts.o)
 .bss           0x0a817b20        0x0 d:/altera13.0sp1/nios2eds/bin/gnu/h-i686-mingw32/bin/../lib/gcc/nios2-elf/4.1.2/../../../../nios2-elf/lib\libc.a(lib_a-refill.o)
 .bss           0x0a817b20        0x0 d:/altera13.0sp1/nios2eds/bin/gnu/h-i686-mingw32/bin/../lib/gcc/nios2-elf/4.1.2/../../../../nios2-elf/lib\libc.a(lib_a-sbrkr.o)
 .bss           0x0a817b20        0x0 d:/altera13.0sp1/nios2eds/bin/gnu/h-i686-mingw32/bin/../lib/gcc/nios2-elf/4.1.2/../../../../nios2-elf/lib\libc.a(lib_a-sprintf.o)
 .bss           0x0a817b20        0x0 d:/altera13.0sp1/nios2eds/bin/gnu/h-i686-mingw32/bin/../lib/gcc/nios2-elf/4.1.2/../../../../nios2-elf/lib\libc.a(lib_a-stdio.o)
 .bss           0x0a817b20        0x0 d:/altera13.0sp1/nios2eds/bin/gnu/h-i686-mingw32/bin/../lib/gcc/nios2-elf/4.1.2/../../../../nios2-elf/lib\libc.a(lib_a-strlen.o)
 .bss           0x0a817b20        0x0 d:/altera13.0sp1/nios2eds/bin/gnu/h-i686-mingw32/bin/../lib/gcc/nios2-elf/4.1.2/../../../../nios2-elf/lib\libc.a(lib_a-vfprintf.o)
 .bss           0x0a817b20        0x0 d:/altera13.0sp1/nios2eds/bin/gnu/h-i686-mingw32/bin/../lib/gcc/nios2-elf/4.1.2/../../../../nios2-elf/lib\libc.a(lib_a-vsnprintf.o)
 .bss           0x0a817b20        0x0 d:/altera13.0sp1/nios2eds/bin/gnu/h-i686-mingw32/bin/../lib/gcc/nios2-elf/4.1.2/../../../../nios2-elf/lib\libc.a(lib_a-writer.o)
 .bss           0x0a817b20        0x0 d:/altera13.0sp1/nios2eds/bin/gnu/h-i686-mingw32/bin/../lib/gcc/nios2-elf/4.1.2/../../../../nios2-elf/lib\libc.a(lib_a-wsetup.o)
 .bss           0x0a817b20        0x0 d:/altera13.0sp1/nios2eds/bin/gnu/h-i686-mingw32/bin/../lib/gcc/nios2-elf/4.1.2/../../../../nios2-elf/lib\libc.a(lib_a-closer.o)
 .bss           0x0a817b20        0x0 d:/altera13.0sp1/nios2eds/bin/gnu/h-i686-mingw32/bin/../lib/gcc/nios2-elf/4.1.2/../../../../nios2-elf/lib\libc.a(lib_a-dtoa.o)
 .bss           0x0a817b20        0x0 d:/altera13.0sp1/nios2eds/bin/gnu/h-i686-mingw32/bin/../lib/gcc/nios2-elf/4.1.2/../../../../nios2-elf/lib\libc.a(lib_a-flags.o)
 .bss           0x0a817b20        0x0 d:/altera13.0sp1/nios2eds/bin/gnu/h-i686-mingw32/bin/../lib/gcc/nios2-elf/4.1.2/../../../../nios2-elf/lib\libc.a(lib_a-fvwrite.o)
 .bss           0x0a817b20        0x0 d:/altera13.0sp1/nios2eds/bin/gnu/h-i686-mingw32/bin/../lib/gcc/nios2-elf/4.1.2/../../../../nios2-elf/lib\libc.a(lib_a-isattyr.o)
 .bss           0x0a817b20        0x0 d:/altera13.0sp1/nios2eds/bin/gnu/h-i686-mingw32/bin/../lib/gcc/nios2-elf/4.1.2/../../../../nios2-elf/lib\libc.a(lib_a-locale.o)
 .bss           0x0a817b20        0x0 d:/altera13.0sp1/nios2eds/bin/gnu/h-i686-mingw32/bin/../lib/gcc/nios2-elf/4.1.2/../../../../nios2-elf/lib\libc.a(lib_a-lseekr.o)
 .bss           0x0a817b20        0x0 d:/altera13.0sp1/nios2eds/bin/gnu/h-i686-mingw32/bin/../lib/gcc/nios2-elf/4.1.2/../../../../nios2-elf/lib\libc.a(lib_a-memchr.o)
 .bss           0x0a817b20        0x0 d:/altera13.0sp1/nios2eds/bin/gnu/h-i686-mingw32/bin/../lib/gcc/nios2-elf/4.1.2/../../../../nios2-elf/lib\libc.a(lib_a-memcpy.o)
 .bss           0x0a817b20        0x0 d:/altera13.0sp1/nios2eds/bin/gnu/h-i686-mingw32/bin/../lib/gcc/nios2-elf/4.1.2/../../../../nios2-elf/lib\libc.a(lib_a-memmove.o)
 .bss           0x0a817b20        0x0 d:/altera13.0sp1/nios2eds/bin/gnu/h-i686-mingw32/bin/../lib/gcc/nios2-elf/4.1.2/../../../../nios2-elf/lib\libc.a(lib_a-mprec.o)
 .bss           0x0a817b20        0x0 d:/altera13.0sp1/nios2eds/bin/gnu/h-i686-mingw32/bin/../lib/gcc/nios2-elf/4.1.2/../../../../nios2-elf/lib\libc.a(lib_a-readr.o)
 .bss           0x0a817b20        0x0 d:/altera13.0sp1/nios2eds/bin/gnu/h-i686-mingw32/bin/../lib/gcc/nios2-elf/4.1.2/../../../../nios2-elf/lib\libc.a(lib_a-reallocr.o)
 .bss           0x0a817b20        0x0 d:/altera13.0sp1/nios2eds/bin/gnu/h-i686-mingw32/bin/../lib/gcc/nios2-elf/4.1.2/../../../../nios2-elf/lib\libc.a(lib_a-s_isinfd.o)
 .bss           0x0a817b20        0x0 d:/altera13.0sp1/nios2eds/bin/gnu/h-i686-mingw32/bin/../lib/gcc/nios2-elf/4.1.2/../../../../nios2-elf/lib\libc.a(lib_a-s_isnand.o)
 .bss           0x0a817b20        0x0 d:/altera13.0sp1/nios2eds/bin/gnu/h-i686-mingw32/bin/../lib/gcc/nios2-elf/4.1.2/../../../../nios2-elf/lib\libc.a(lib_a-strcmp.o)
 .bss           0x0a817b20        0x0 d:/altera13.0sp1/nios2eds/bin/gnu/h-i686-mingw32/bin/../lib/gcc/nios2-elf/4.1.2/../../../../nios2-elf/lib\libc.a(lib_a-callocr.o)
 .bss           0x0a817b20        0x0 d:/altera13.0sp1/nios2eds/bin/gnu/h-i686-mingw32/bin/../lib/gcc/nios2-elf/4.1.2\libgcc.a(_udivdi3.o)
 .bss           0x0a817b20        0x0 d:/altera13.0sp1/nios2eds/bin/gnu/h-i686-mingw32/bin/../lib/gcc/nios2-elf/4.1.2\libgcc.a(_umoddi3.o)
 .bss           0x0a817b20        0x0 d:/altera13.0sp1/nios2eds/bin/gnu/h-i686-mingw32/bin/../lib/gcc/nios2-elf/4.1.2\libgcc.a(_addsub_df.o)
 .bss           0x0a817b20        0x0 d:/altera13.0sp1/nios2eds/bin/gnu/h-i686-mingw32/bin/../lib/gcc/nios2-elf/4.1.2\libgcc.a(_mul_df.o)
 .bss           0x0a817b20        0x0 d:/altera13.0sp1/nios2eds/bin/gnu/h-i686-mingw32/bin/../lib/gcc/nios2-elf/4.1.2\libgcc.a(_div_df.o)
 .bss           0x0a817b20        0x0 d:/altera13.0sp1/nios2eds/bin/gnu/h-i686-mingw32/bin/../lib/gcc/nios2-elf/4.1.2\libgcc.a(_eq_df.o)
 .bss           0x0a817b20        0x0 d:/altera13.0sp1/nios2eds/bin/gnu/h-i686-mingw32/bin/../lib/gcc/nios2-elf/4.1.2\libgcc.a(_ne_df.o)
 .bss           0x0a817b20        0x0 d:/altera13.0sp1/nios2eds/bin/gnu/h-i686-mingw32/bin/../lib/gcc/nios2-elf/4.1.2\libgcc.a(_gt_df.o)
 .bss           0x0a817b20        0x0 d:/altera13.0sp1/nios2eds/bin/gnu/h-i686-mingw32/bin/../lib/gcc/nios2-elf/4.1.2\libgcc.a(_ge_df.o)
 .bss           0x0a817b20        0x0 d:/altera13.0sp1/nios2eds/bin/gnu/h-i686-mingw32/bin/../lib/gcc/nios2-elf/4.1.2\libgcc.a(_lt_df.o)
 .bss           0x0a817b20        0x0 d:/altera13.0sp1/nios2eds/bin/gnu/h-i686-mingw32/bin/../lib/gcc/nios2-elf/4.1.2\libgcc.a(_si_to_df.o)
 .bss           0x0a817b20        0x0 d:/altera13.0sp1/nios2eds/bin/gnu/h-i686-mingw32/bin/../lib/gcc/nios2-elf/4.1.2\libgcc.a(_df_to_si.o)
 .bss           0x0a817b20        0x0 d:/altera13.0sp1/nios2eds/bin/gnu/h-i686-mingw32/bin/../lib/gcc/nios2-elf/4.1.2\libgcc.a(_thenan_df.o)
 .bss           0x0a817b20        0x0 d:/altera13.0sp1/nios2eds/bin/gnu/h-i686-mingw32/bin/../lib/gcc/nios2-elf/4.1.2\libgcc.a(_usi_to_df.o)
 .bss           0x0a817b20        0x0 d:/altera13.0sp1/nios2eds/bin/gnu/h-i686-mingw32/bin/../lib/gcc/nios2-elf/4.1.2\libgcc.a(_muldi3.o)
 .bss           0x0a817b20        0x0 d:/altera13.0sp1/nios2eds/bin/gnu/h-i686-mingw32/bin/../lib/gcc/nios2-elf/4.1.2\libgcc.a(_clz.o)
 .bss           0x0a817b20        0x0 d:/altera13.0sp1/nios2eds/bin/gnu/h-i686-mingw32/bin/../lib/gcc/nios2-elf/4.1.2\libgcc.a(_clzsi2.o)
 .bss           0x0a817b20        0x0 d:/altera13.0sp1/nios2eds/bin/gnu/h-i686-mingw32/bin/../lib/gcc/nios2-elf/4.1.2\libgcc.a(_pack_df.o)
 .bss           0x0a817b20        0x0 d:/altera13.0sp1/nios2eds/bin/gnu/h-i686-mingw32/bin/../lib/gcc/nios2-elf/4.1.2\libgcc.a(_unpack_df.o)
 .bss           0x0a817b20        0x0 d:/altera13.0sp1/nios2eds/bin/gnu/h-i686-mingw32/bin/../lib/gcc/nios2-elf/4.1.2\libgcc.a(_fpcmp_parts_df.o)
 .bss           0x0a817b20        0x0 ../DE2_115_Audio_bsp/\libhal_bsp.a(alt_close.o)
 .bss           0x0a817b20        0x0 ../DE2_115_Audio_bsp/\libhal_bsp.a(alt_dev.o)
 .bss           0x0a817b20        0x0 ../DE2_115_Audio_bsp/\libhal_bsp.a(alt_errno.o)
 .bss           0x0a817b20        0x0 ../DE2_115_Audio_bsp/\libhal_bsp.a(alt_fstat.o)
 .bss           0x0a817b20        0x0 ../DE2_115_Audio_bsp/\libhal_bsp.a(alt_irq_register.o)
 .bss           0x0a817b20        0x0 ../DE2_115_Audio_bsp/\libhal_bsp.a(alt_irq_vars.o)
 .bss           0x0a817b20        0x0 ../DE2_115_Audio_bsp/\libhal_bsp.a(alt_isatty.o)
 .bss           0x0a817b20        0x0 ../DE2_115_Audio_bsp/\libhal_bsp.a(alt_load.o)
 .bss           0x0a817b20        0x0 ../DE2_115_Audio_bsp/\libhal_bsp.a(alt_lseek.o)
 .bss           0x0a817b20        0x0 ../DE2_115_Audio_bsp/\libhal_bsp.a(alt_main.o)
 .bss           0x0a817b20        0x0 ../DE2_115_Audio_bsp/\libhal_bsp.a(alt_malloc_lock.o)
 .bss           0x0a817b20        0x0 ../DE2_115_Audio_bsp/\libhal_bsp.a(alt_open.o)
 .bss           0x0a817b20        0x0 ../DE2_115_Audio_bsp/\libhal_bsp.a(alt_read.o)
 .bss           0x0a817b20        0x0 ../DE2_115_Audio_bsp/\libhal_bsp.a(alt_release_fd.o)
 .bss           0x0a817b20        0x0 ../DE2_115_Audio_bsp/\libhal_bsp.a(alt_sbrk.o)
 .bss           0x0a817b20        0x0 ../DE2_115_Audio_bsp/\libhal_bsp.a(alt_usleep.o)
 .bss           0x0a817b20        0x0 ../DE2_115_Audio_bsp/\libhal_bsp.a(alt_write.o)
 .bss           0x0a817b20        0x0 ../DE2_115_Audio_bsp/\libhal_bsp.a(alt_sys_init.o)
 .bss           0x0a817b20        0x0 ../DE2_115_Audio_bsp/\libhal_bsp.a(altera_avalon_cfi_flash.o)
 .bss           0x0a817b20        0x0 ../DE2_115_Audio_bsp/\libhal_bsp.a(altera_avalon_cfi_flash_table.o)
 .bss           0x0a817b20        0x0 ../DE2_115_Audio_bsp/\libhal_bsp.a(altera_avalon_jtag_uart_fd.o)
 .bss           0x0a817b20        0x0 ../DE2_115_Audio_bsp/\libhal_bsp.a(altera_avalon_jtag_uart_init.o)
 .bss           0x0a817b20        0x0 ../DE2_115_Audio_bsp/\libhal_bsp.a(altera_avalon_jtag_uart_ioctl.o)
 .bss           0x0a817b20        0x0 ../DE2_115_Audio_bsp/\libhal_bsp.a(altera_avalon_jtag_uart_read.o)
 .bss           0x0a817b20        0x0 ../DE2_115_Audio_bsp/\libhal_bsp.a(altera_avalon_jtag_uart_write.o)
 .bss           0x0a817b20        0x0 ../DE2_115_Audio_bsp/\libhal_bsp.a(altera_avalon_lcd_16207.o)
 .bss           0x0a817b20        0x0 ../DE2_115_Audio_bsp/\libhal_bsp.a(altera_avalon_lcd_16207_fd.o)
 .bss           0x0a817b20        0x0 ../DE2_115_Audio_bsp/\libhal_bsp.a(alt_alarm_start.o)
 .bss           0x0a817b20        0x0 ../DE2_115_Audio_bsp/\libhal_bsp.a(alt_busy_sleep.o)
 .bss           0x0a817b20        0x0 ../DE2_115_Audio_bsp/\libhal_bsp.a(alt_dcache_flush.o)
 .bss           0x0a817b20        0x0 ../DE2_115_Audio_bsp/\libhal_bsp.a(alt_dcache_flush_all.o)
 .bss           0x0a817b20        0x0 ../DE2_115_Audio_bsp/\libhal_bsp.a(alt_dev_llist_insert.o)
 .bss           0x0a817b20        0x0 ../DE2_115_Audio_bsp/\libhal_bsp.a(alt_do_ctors.o)
 .bss           0x0a817b20        0x0 ../DE2_115_Audio_bsp/\libhal_bsp.a(alt_do_dtors.o)
 .bss           0x0a817b20        0x0 ../DE2_115_Audio_bsp/\libhal_bsp.a(alt_find_dev.o)
 .bss           0x0a817b20        0x0 ../DE2_115_Audio_bsp/\libhal_bsp.a(alt_find_file.o)
 .bss           0x0a817b20        0x0 ../DE2_115_Audio_bsp/\libhal_bsp.a(alt_flash_dev.o)
 .bss           0x0a817b20        0x0 ../DE2_115_Audio_bsp/\libhal_bsp.a(alt_get_fd.o)
 .bss           0x0a817b20        0x0 ../DE2_115_Audio_bsp/\libhal_bsp.a(alt_icache_flush_all.o)
 .bss           0x0a817b20        0x0 ../DE2_115_Audio_bsp/\libhal_bsp.a(alt_iic.o)
 .bss           0x0a817b20        0x0 ../DE2_115_Audio_bsp/\libhal_bsp.a(alt_iic_isr_register.o)
 .bss           0x0a817b20        0x0 ../DE2_115_Audio_bsp/\libhal_bsp.a(alt_io_redirect.o)
 .bss           0x0a817b20        0x0 ../DE2_115_Audio_bsp/\libhal_bsp.a(alt_irq_entry.o)
 .bss           0x0a817b20        0x0 ../DE2_115_Audio_bsp/\libhal_bsp.a(alt_irq_handler.o)
 .bss           0x0a817b20        0x0 ../DE2_115_Audio_bsp/\libhal_bsp.a(alt_tick.o)
 .bss           0x0a817b20        0x0 ../DE2_115_Audio_bsp/\libhal_bsp.a(altera_nios2_qsys_irq.o)
 .bss           0x0a817b20        0x0 ../DE2_115_Audio_bsp/\libhal_bsp.a(altera_avalon_cfi_flash_amd.o)
 .bss           0x0a817b20        0x0 ../DE2_115_Audio_bsp/\libhal_bsp.a(altera_avalon_cfi_flash_intel.o)
 .bss           0x0a817b20        0x0 ../DE2_115_Audio_bsp/\libhal_bsp.a(alt_exception_entry.o)
 .bss           0x0a817b20        0x0 ../DE2_115_Audio_bsp/\libhal_bsp.a(alt_icache_flush.o)
 .bss           0x0a817b20        0x0 d:/altera13.0sp1/nios2eds/bin/gnu/h-i686-mingw32/bin/../lib/gcc/nios2-elf/4.1.2/../../../../nios2-elf/lib\libc.a(lib_a-atexit.o)
 .bss           0x0a817b20        0x0 d:/altera13.0sp1/nios2eds/bin/gnu/h-i686-mingw32/bin/../lib/gcc/nios2-elf/4.1.2/../../../../nios2-elf/lib\libc.a(lib_a-ctype_.o)
 .bss           0x0a817b20        0x0 d:/altera13.0sp1/nios2eds/bin/gnu/h-i686-mingw32/bin/../lib/gcc/nios2-elf/4.1.2/../../../../nios2-elf/lib\libc.a(lib_a-exit.o)
 .bss           0x0a817b20        0x0 d:/altera13.0sp1/nios2eds/bin/gnu/h-i686-mingw32/bin/../lib/gcc/nios2-elf/4.1.2/../../../../nios2-elf/lib\libc.a(lib_a-memcmp.o)
 .bss           0x0a817b20        0x0 d:/altera13.0sp1/nios2eds/bin/gnu/h-i686-mingw32/bin/../lib/gcc/nios2-elf/4.1.2/../../../../nios2-elf/lib\libc.a(lib_a-__atexit.o)
 .bss           0x0a817b20        0x0 d:/altera13.0sp1/nios2eds/bin/gnu/h-i686-mingw32/bin/../lib/gcc/nios2-elf/4.1.2/../../../../nios2-elf/lib\libc.a(lib_a-__call_atexit.o)
 .bss           0x0a817b20        0x0 ../DE2_115_Audio_bsp/\libhal_bsp.a(alt_exit.o)
 *(COMMON)
 COMMON         0x0a817b20      0x100 ../DE2_115_Audio_bsp/\libhal_bsp.a(alt_irq_handler.o)
                0x0a817b20                alt_irq
 COMMON         0x0a817c20      0x190 d:/altera13.0sp1/nios2eds/bin/gnu/h-i686-mingw32/bin/../lib/gcc/nios2-elf/4.1.2/../../../../nios2-elf/lib\libc.a(lib_a-atexit.o)
                0x0a817c20                _atexit0
                0x0a817db0                . = ALIGN (0x4)
                0x0a817db0                __bss_end = ABSOLUTE (.)

.sdram          0x00000000        0x0 load address 0x0a817db0
                0x00000000                PROVIDE (_alt_partition_sdram_start, ABSOLUTE (.))
 *(.sdram. sdram.*)
                0x00000000                . = ALIGN (0x4)
                0x00000000                PROVIDE (_alt_partition_sdram_end, ABSOLUTE (.))
                0x0a817db0                PROVIDE (_alt_partition_sdram_load_addr, LOADADDR (.sdram))

.cfi_flash      0x09800000        0x0 load address 0x0a817db0
                0x09800000                PROVIDE (_alt_partition_cfi_flash_start, ABSOLUTE (.))
 *(.cfi_flash. cfi_flash.*)
                0x09800000                . = ALIGN (0x4)
                0x09800000                PROVIDE (_alt_partition_cfi_flash_end, ABSOLUTE (.))
                0x0a817db0                PROVIDE (_alt_partition_cfi_flash_load_addr, LOADADDR (.cfi_flash))

.sram           0x0a817db0        0x0
                0x0a817db0                PROVIDE (_alt_partition_sram_start, ABSOLUTE (.))
 *(.sram. sram.*)
                0x0a817db0                . = ALIGN (0x4)
                0x0a817db0                PROVIDE (_alt_partition_sram_end, ABSOLUTE (.))
                0x0a817db0                _end = ABSOLUTE (.)
                0x0a817db0                end = ABSOLUTE (.)
                0x0a817db0                __alt_stack_base = ABSOLUTE (.)
                0x0a817db0                PROVIDE (_alt_partition_sram_load_addr, LOADADDR (.sram))

.stab
 *(.stab)

.stabstr
 *(.stabstr)

.stab.excl
 *(.stab.excl)

.stab.exclstr
 *(.stab.exclstr)

.stab.index
 *(.stab.index)

.stab.indexstr
 *(.stab.indexstr)

.comment        0x00000000       0x26
 *(.comment)
 .comment       0x00000000       0x26 obj/default/AUDIO.o
                                 0x27 (size before relaxing)
 .comment       0x00000000       0x27 obj/default/I2C.o
 .comment       0x00000000       0x27 obj/default/LCD.o
 .comment       0x00000000       0x27 obj/default/LED.o
 .comment       0x00000000       0x27 obj/default/SEG7.o
 .comment       0x00000000       0x27 obj/default/debug.o
 .comment       0x00000000       0x27 obj/default/main.o
 .comment       0x00000000       0x27 d:/altera13.0sp1/nios2eds/bin/gnu/h-i686-mingw32/bin/../lib/gcc/nios2-elf/4.1.2\libgcc.a(lib2-divmod.o)
 .comment       0x00000000       0x27 d:/altera13.0sp1/nios2eds/bin/gnu/h-i686-mingw32/bin/../lib/gcc/nios2-elf/4.1.2/../../../../nios2-elf/lib\libc.a(lib_a-fclose.o)
 .comment       0x00000000       0x27 d:/altera13.0sp1/nios2eds/bin/gnu/h-i686-mingw32/bin/../lib/gcc/nios2-elf/4.1.2/../../../../nios2-elf/lib\libc.a(lib_a-fflush.o)
 .comment       0x00000000       0x27 d:/altera13.0sp1/nios2eds/bin/gnu/h-i686-mingw32/bin/../lib/gcc/nios2-elf/4.1.2/../../../../nios2-elf/lib\libc.a(lib_a-findfp.o)
 .comment       0x00000000       0x27 d:/altera13.0sp1/nios2eds/bin/gnu/h-i686-mingw32/bin/../lib/gcc/nios2-elf/4.1.2/../../../../nios2-elf/lib\libc.a(lib_a-fopen.o)
 .comment       0x00000000       0x27 d:/altera13.0sp1/nios2eds/bin/gnu/h-i686-mingw32/bin/../lib/gcc/nios2-elf/4.1.2/../../../../nios2-elf/lib\libc.a(lib_a-freer.o)
 .comment       0x00000000       0x27 d:/altera13.0sp1/nios2eds/bin/gnu/h-i686-mingw32/bin/../lib/gcc/nios2-elf/4.1.2/../../../../nios2-elf/lib\libc.a(lib_a-fseek.o)
 .comment       0x00000000       0x27 d:/altera13.0sp1/nios2eds/bin/gnu/h-i686-mingw32/bin/../lib/gcc/nios2-elf/4.1.2/../../../../nios2-elf/lib\libc.a(lib_a-fstatr.o)
 .comment       0x00000000       0x27 d:/altera13.0sp1/nios2eds/bin/gnu/h-i686-mingw32/bin/../lib/gcc/nios2-elf/4.1.2/../../../../nios2-elf/lib\libc.a(lib_a-fwalk.o)
 .comment       0x00000000       0x27 d:/altera13.0sp1/nios2eds/bin/gnu/h-i686-mingw32/bin/../lib/gcc/nios2-elf/4.1.2/../../../../nios2-elf/lib\libc.a(lib_a-fwrite.o)
 .comment       0x00000000       0x27 d:/altera13.0sp1/nios2eds/bin/gnu/h-i686-mingw32/bin/../lib/gcc/nios2-elf/4.1.2/../../../../nios2-elf/lib\libc.a(lib_a-impure.o)
 .comment       0x00000000       0x27 d:/altera13.0sp1/nios2eds/bin/gnu/h-i686-mingw32/bin/../lib/gcc/nios2-elf/4.1.2/../../../../nios2-elf/lib\libc.a(lib_a-int_errno.o)
 .comment       0x00000000       0x27 d:/altera13.0sp1/nios2eds/bin/gnu/h-i686-mingw32/bin/../lib/gcc/nios2-elf/4.1.2/../../../../nios2-elf/lib\libc.a(lib_a-makebuf.o)
 .comment       0x00000000       0x27 d:/altera13.0sp1/nios2eds/bin/gnu/h-i686-mingw32/bin/../lib/gcc/nios2-elf/4.1.2/../../../../nios2-elf/lib\libc.a(lib_a-mallocr.o)
 .comment       0x00000000       0x27 d:/altera13.0sp1/nios2eds/bin/gnu/h-i686-mingw32/bin/../lib/gcc/nios2-elf/4.1.2/../../../../nios2-elf/lib\libc.a(lib_a-memset.o)
 .comment       0x00000000       0x27 d:/altera13.0sp1/nios2eds/bin/gnu/h-i686-mingw32/bin/../lib/gcc/nios2-elf/4.1.2/../../../../nios2-elf/lib\libc.a(lib_a-openr.o)
 .comment       0x00000000       0x27 d:/altera13.0sp1/nios2eds/bin/gnu/h-i686-mingw32/bin/../lib/gcc/nios2-elf/4.1.2/../../../../nios2-elf/lib\libc.a(lib_a-printf.o)
 .comment       0x00000000       0x27 d:/altera13.0sp1/nios2eds/bin/gnu/h-i686-mingw32/bin/../lib/gcc/nios2-elf/4.1.2/../../../../nios2-elf/lib\libc.a(lib_a-puts.o)
 .comment       0x00000000       0x27 d:/altera13.0sp1/nios2eds/bin/gnu/h-i686-mingw32/bin/../lib/gcc/nios2-elf/4.1.2/../../../../nios2-elf/lib\libc.a(lib_a-refill.o)
 .comment       0x00000000       0x27 d:/altera13.0sp1/nios2eds/bin/gnu/h-i686-mingw32/bin/../lib/gcc/nios2-elf/4.1.2/../../../../nios2-elf/lib\libc.a(lib_a-sbrkr.o)
 .comment       0x00000000       0x27 d:/altera13.0sp1/nios2eds/bin/gnu/h-i686-mingw32/bin/../lib/gcc/nios2-elf/4.1.2/../../../../nios2-elf/lib\libc.a(lib_a-sprintf.o)
 .comment       0x00000000       0x27 d:/altera13.0sp1/nios2eds/bin/gnu/h-i686-mingw32/bin/../lib/gcc/nios2-elf/4.1.2/../../../../nios2-elf/lib\libc.a(lib_a-stdio.o)
 .comment       0x00000000       0x27 d:/altera13.0sp1/nios2eds/bin/gnu/h-i686-mingw32/bin/../lib/gcc/nios2-elf/4.1.2/../../../../nios2-elf/lib\libc.a(lib_a-strlen.o)
 .comment       0x00000000       0x27 d:/altera13.0sp1/nios2eds/bin/gnu/h-i686-mingw32/bin/../lib/gcc/nios2-elf/4.1.2/../../../../nios2-elf/lib\libc.a(lib_a-vfprintf.o)
 .comment       0x00000000       0x27 d:/altera13.0sp1/nios2eds/bin/gnu/h-i686-mingw32/bin/../lib/gcc/nios2-elf/4.1.2/../../../../nios2-elf/lib\libc.a(lib_a-vsnprintf.o)
 .comment       0x00000000       0x27 d:/altera13.0sp1/nios2eds/bin/gnu/h-i686-mingw32/bin/../lib/gcc/nios2-elf/4.1.2/../../../../nios2-elf/lib\libc.a(lib_a-writer.o)
 .comment       0x00000000       0x27 d:/altera13.0sp1/nios2eds/bin/gnu/h-i686-mingw32/bin/../lib/gcc/nios2-elf/4.1.2/../../../../nios2-elf/lib\libc.a(lib_a-wsetup.o)
 .comment       0x00000000       0x27 d:/altera13.0sp1/nios2eds/bin/gnu/h-i686-mingw32/bin/../lib/gcc/nios2-elf/4.1.2/../../../../nios2-elf/lib\libc.a(lib_a-closer.o)
 .comment       0x00000000       0x27 d:/altera13.0sp1/nios2eds/bin/gnu/h-i686-mingw32/bin/../lib/gcc/nios2-elf/4.1.2/../../../../nios2-elf/lib\libc.a(lib_a-dtoa.o)
 .comment       0x00000000       0x27 d:/altera13.0sp1/nios2eds/bin/gnu/h-i686-mingw32/bin/../lib/gcc/nios2-elf/4.1.2/../../../../nios2-elf/lib\libc.a(lib_a-flags.o)
 .comment       0x00000000       0x27 d:/altera13.0sp1/nios2eds/bin/gnu/h-i686-mingw32/bin/../lib/gcc/nios2-elf/4.1.2/../../../../nios2-elf/lib\libc.a(lib_a-fvwrite.o)
 .comment       0x00000000       0x27 d:/altera13.0sp1/nios2eds/bin/gnu/h-i686-mingw32/bin/../lib/gcc/nios2-elf/4.1.2/../../../../nios2-elf/lib\libc.a(lib_a-isattyr.o)
 .comment       0x00000000       0x27 d:/altera13.0sp1/nios2eds/bin/gnu/h-i686-mingw32/bin/../lib/gcc/nios2-elf/4.1.2/../../../../nios2-elf/lib\libc.a(lib_a-locale.o)
 .comment       0x00000000       0x27 d:/altera13.0sp1/nios2eds/bin/gnu/h-i686-mingw32/bin/../lib/gcc/nios2-elf/4.1.2/../../../../nios2-elf/lib\libc.a(lib_a-lseekr.o)
 .comment       0x00000000       0x27 d:/altera13.0sp1/nios2eds/bin/gnu/h-i686-mingw32/bin/../lib/gcc/nios2-elf/4.1.2/../../../../nios2-elf/lib\libc.a(lib_a-memchr.o)
 .comment       0x00000000       0x27 d:/altera13.0sp1/nios2eds/bin/gnu/h-i686-mingw32/bin/../lib/gcc/nios2-elf/4.1.2/../../../../nios2-elf/lib\libc.a(lib_a-memcpy.o)
 .comment       0x00000000       0x27 d:/altera13.0sp1/nios2eds/bin/gnu/h-i686-mingw32/bin/../lib/gcc/nios2-elf/4.1.2/../../../../nios2-elf/lib\libc.a(lib_a-memmove.o)
 .comment       0x00000000       0x27 d:/altera13.0sp1/nios2eds/bin/gnu/h-i686-mingw32/bin/../lib/gcc/nios2-elf/4.1.2/../../../../nios2-elf/lib\libc.a(lib_a-mprec.o)
 .comment       0x00000000       0x27 d:/altera13.0sp1/nios2eds/bin/gnu/h-i686-mingw32/bin/../lib/gcc/nios2-elf/4.1.2/../../../../nios2-elf/lib\libc.a(lib_a-readr.o)
 .comment       0x00000000       0x27 d:/altera13.0sp1/nios2eds/bin/gnu/h-i686-mingw32/bin/../lib/gcc/nios2-elf/4.1.2/../../../../nios2-elf/lib\libc.a(lib_a-reallocr.o)
 .comment       0x00000000       0x27 d:/altera13.0sp1/nios2eds/bin/gnu/h-i686-mingw32/bin/../lib/gcc/nios2-elf/4.1.2/../../../../nios2-elf/lib\libc.a(lib_a-s_isinfd.o)
 .comment       0x00000000       0x27 d:/altera13.0sp1/nios2eds/bin/gnu/h-i686-mingw32/bin/../lib/gcc/nios2-elf/4.1.2/../../../../nios2-elf/lib\libc.a(lib_a-s_isnand.o)
 .comment       0x00000000       0x27 d:/altera13.0sp1/nios2eds/bin/gnu/h-i686-mingw32/bin/../lib/gcc/nios2-elf/4.1.2/../../../../nios2-elf/lib\libc.a(lib_a-strcmp.o)
 .comment       0x00000000       0x27 d:/altera13.0sp1/nios2eds/bin/gnu/h-i686-mingw32/bin/../lib/gcc/nios2-elf/4.1.2/../../../../nios2-elf/lib\libc.a(lib_a-callocr.o)
 .comment       0x00000000       0x27 d:/altera13.0sp1/nios2eds/bin/gnu/h-i686-mingw32/bin/../lib/gcc/nios2-elf/4.1.2\libgcc.a(_udivdi3.o)
 .comment       0x00000000       0x27 d:/altera13.0sp1/nios2eds/bin/gnu/h-i686-mingw32/bin/../lib/gcc/nios2-elf/4.1.2\libgcc.a(_umoddi3.o)
 .comment       0x00000000       0x27 d:/altera13.0sp1/nios2eds/bin/gnu/h-i686-mingw32/bin/../lib/gcc/nios2-elf/4.1.2\libgcc.a(_addsub_df.o)
 .comment       0x00000000       0x27 d:/altera13.0sp1/nios2eds/bin/gnu/h-i686-mingw32/bin/../lib/gcc/nios2-elf/4.1.2\libgcc.a(_mul_df.o)
 .comment       0x00000000       0x27 d:/altera13.0sp1/nios2eds/bin/gnu/h-i686-mingw32/bin/../lib/gcc/nios2-elf/4.1.2\libgcc.a(_div_df.o)
 .comment       0x00000000       0x27 d:/altera13.0sp1/nios2eds/bin/gnu/h-i686-mingw32/bin/../lib/gcc/nios2-elf/4.1.2\libgcc.a(_eq_df.o)
 .comment       0x00000000       0x27 d:/altera13.0sp1/nios2eds/bin/gnu/h-i686-mingw32/bin/../lib/gcc/nios2-elf/4.1.2\libgcc.a(_ne_df.o)
 .comment       0x00000000       0x27 d:/altera13.0sp1/nios2eds/bin/gnu/h-i686-mingw32/bin/../lib/gcc/nios2-elf/4.1.2\libgcc.a(_gt_df.o)
 .comment       0x00000000       0x27 d:/altera13.0sp1/nios2eds/bin/gnu/h-i686-mingw32/bin/../lib/gcc/nios2-elf/4.1.2\libgcc.a(_ge_df.o)
 .comment       0x00000000       0x27 d:/altera13.0sp1/nios2eds/bin/gnu/h-i686-mingw32/bin/../lib/gcc/nios2-elf/4.1.2\libgcc.a(_lt_df.o)
 .comment       0x00000000       0x27 d:/altera13.0sp1/nios2eds/bin/gnu/h-i686-mingw32/bin/../lib/gcc/nios2-elf/4.1.2\libgcc.a(_si_to_df.o)
 .comment       0x00000000       0x27 d:/altera13.0sp1/nios2eds/bin/gnu/h-i686-mingw32/bin/../lib/gcc/nios2-elf/4.1.2\libgcc.a(_df_to_si.o)
 .comment       0x00000000       0x27 d:/altera13.0sp1/nios2eds/bin/gnu/h-i686-mingw32/bin/../lib/gcc/nios2-elf/4.1.2\libgcc.a(_thenan_df.o)
 .comment       0x00000000       0x27 d:/altera13.0sp1/nios2eds/bin/gnu/h-i686-mingw32/bin/../lib/gcc/nios2-elf/4.1.2\libgcc.a(_usi_to_df.o)
 .comment       0x00000000       0x27 d:/altera13.0sp1/nios2eds/bin/gnu/h-i686-mingw32/bin/../lib/gcc/nios2-elf/4.1.2\libgcc.a(_muldi3.o)
 .comment       0x00000000       0x27 d:/altera13.0sp1/nios2eds/bin/gnu/h-i686-mingw32/bin/../lib/gcc/nios2-elf/4.1.2\libgcc.a(_clz.o)
 .comment       0x00000000       0x27 d:/altera13.0sp1/nios2eds/bin/gnu/h-i686-mingw32/bin/../lib/gcc/nios2-elf/4.1.2\libgcc.a(_clzsi2.o)
 .comment       0x00000000       0x27 d:/altera13.0sp1/nios2eds/bin/gnu/h-i686-mingw32/bin/../lib/gcc/nios2-elf/4.1.2\libgcc.a(_pack_df.o)
 .comment       0x00000000       0x27 d:/altera13.0sp1/nios2eds/bin/gnu/h-i686-mingw32/bin/../lib/gcc/nios2-elf/4.1.2\libgcc.a(_unpack_df.o)
 .comment       0x00000000       0x27 d:/altera13.0sp1/nios2eds/bin/gnu/h-i686-mingw32/bin/../lib/gcc/nios2-elf/4.1.2\libgcc.a(_fpcmp_parts_df.o)
 .comment       0x00000000       0x27 ../DE2_115_Audio_bsp/\libhal_bsp.a(alt_close.o)
 .comment       0x00000000       0x27 ../DE2_115_Audio_bsp/\libhal_bsp.a(alt_dev.o)
 .comment       0x00000000       0x27 ../DE2_115_Audio_bsp/\libhal_bsp.a(alt_errno.o)
 .comment       0x00000000       0x27 ../DE2_115_Audio_bsp/\libhal_bsp.a(alt_fstat.o)
 .comment       0x00000000       0x27 ../DE2_115_Audio_bsp/\libhal_bsp.a(alt_irq_register.o)
 .comment       0x00000000       0x27 ../DE2_115_Audio_bsp/\libhal_bsp.a(alt_irq_vars.o)
 .comment       0x00000000       0x27 ../DE2_115_Audio_bsp/\libhal_bsp.a(alt_isatty.o)
 .comment       0x00000000       0x27 ../DE2_115_Audio_bsp/\libhal_bsp.a(alt_load.o)
 .comment       0x00000000       0x27 ../DE2_115_Audio_bsp/\libhal_bsp.a(alt_lseek.o)
 .comment       0x00000000       0x27 ../DE2_115_Audio_bsp/\libhal_bsp.a(alt_main.o)
 .comment       0x00000000       0x27 ../DE2_115_Audio_bsp/\libhal_bsp.a(alt_malloc_lock.o)
 .comment       0x00000000       0x27 ../DE2_115_Audio_bsp/\libhal_bsp.a(alt_open.o)
 .comment       0x00000000       0x27 ../DE2_115_Audio_bsp/\libhal_bsp.a(alt_read.o)
 .comment       0x00000000       0x27 ../DE2_115_Audio_bsp/\libhal_bsp.a(alt_release_fd.o)
 .comment       0x00000000       0x27 ../DE2_115_Audio_bsp/\libhal_bsp.a(alt_sbrk.o)
 .comment       0x00000000       0x27 ../DE2_115_Audio_bsp/\libhal_bsp.a(alt_usleep.o)
 .comment       0x00000000       0x27 ../DE2_115_Audio_bsp/\libhal_bsp.a(alt_write.o)
 .comment       0x00000000       0x27 ../DE2_115_Audio_bsp/\libhal_bsp.a(alt_sys_init.o)
 .comment       0x00000000       0x27 ../DE2_115_Audio_bsp/\libhal_bsp.a(altera_avalon_cfi_flash.o)
 .comment       0x00000000       0x27 ../DE2_115_Audio_bsp/\libhal_bsp.a(altera_avalon_cfi_flash_table.o)
 .comment       0x00000000       0x27 ../DE2_115_Audio_bsp/\libhal_bsp.a(altera_avalon_jtag_uart_fd.o)
 .comment       0x00000000       0x27 ../DE2_115_Audio_bsp/\libhal_bsp.a(altera_avalon_jtag_uart_init.o)
 .comment       0x00000000       0x27 ../DE2_115_Audio_bsp/\libhal_bsp.a(altera_avalon_jtag_uart_ioctl.o)
 .comment       0x00000000       0x27 ../DE2_115_Audio_bsp/\libhal_bsp.a(altera_avalon_jtag_uart_read.o)
 .comment       0x00000000       0x27 ../DE2_115_Audio_bsp/\libhal_bsp.a(altera_avalon_jtag_uart_write.o)
 .comment       0x00000000       0x27 ../DE2_115_Audio_bsp/\libhal_bsp.a(altera_avalon_lcd_16207.o)
 .comment       0x00000000       0x27 ../DE2_115_Audio_bsp/\libhal_bsp.a(altera_avalon_lcd_16207_fd.o)
 .comment       0x00000000       0x27 ../DE2_115_Audio_bsp/\libhal_bsp.a(alt_alarm_start.o)
 .comment       0x00000000       0x27 ../DE2_115_Audio_bsp/\libhal_bsp.a(alt_busy_sleep.o)
 .comment       0x00000000       0x27 ../DE2_115_Audio_bsp/\libhal_bsp.a(alt_dcache_flush.o)
 .comment       0x00000000       0x27 ../DE2_115_Audio_bsp/\libhal_bsp.a(alt_dcache_flush_all.o)
 .comment       0x00000000       0x27 ../DE2_115_Audio_bsp/\libhal_bsp.a(alt_dev_llist_insert.o)
 .comment       0x00000000       0x27 ../DE2_115_Audio_bsp/\libhal_bsp.a(alt_do_ctors.o)
 .comment       0x00000000       0x27 ../DE2_115_Audio_bsp/\libhal_bsp.a(alt_do_dtors.o)
 .comment       0x00000000       0x27 ../DE2_115_Audio_bsp/\libhal_bsp.a(alt_find_dev.o)
 .comment       0x00000000       0x27 ../DE2_115_Audio_bsp/\libhal_bsp.a(alt_find_file.o)
 .comment       0x00000000       0x27 ../DE2_115_Audio_bsp/\libhal_bsp.a(alt_flash_dev.o)
 .comment       0x00000000       0x27 ../DE2_115_Audio_bsp/\libhal_bsp.a(alt_get_fd.o)
 .comment       0x00000000       0x27 ../DE2_115_Audio_bsp/\libhal_bsp.a(alt_icache_flush_all.o)
 .comment       0x00000000       0x27 ../DE2_115_Audio_bsp/\libhal_bsp.a(alt_iic.o)
 .comment       0x00000000       0x27 ../DE2_115_Audio_bsp/\libhal_bsp.a(alt_iic_isr_register.o)
 .comment       0x00000000       0x27 ../DE2_115_Audio_bsp/\libhal_bsp.a(alt_io_redirect.o)
 .comment       0x00000000       0x27 ../DE2_115_Audio_bsp/\libhal_bsp.a(alt_irq_handler.o)
 .comment       0x00000000       0x27 ../DE2_115_Audio_bsp/\libhal_bsp.a(alt_tick.o)
 .comment       0x00000000       0x27 ../DE2_115_Audio_bsp/\libhal_bsp.a(altera_nios2_qsys_irq.o)
 .comment       0x00000000       0x27 ../DE2_115_Audio_bsp/\libhal_bsp.a(altera_avalon_cfi_flash_amd.o)
 .comment       0x00000000       0x27 ../DE2_115_Audio_bsp/\libhal_bsp.a(altera_avalon_cfi_flash_intel.o)
 .comment       0x00000000       0x27 ../DE2_115_Audio_bsp/\libhal_bsp.a(alt_icache_flush.o)
 .comment       0x00000000       0x27 d:/altera13.0sp1/nios2eds/bin/gnu/h-i686-mingw32/bin/../lib/gcc/nios2-elf/4.1.2/../../../../nios2-elf/lib\libc.a(lib_a-atexit.o)
 .comment       0x00000000       0x27 d:/altera13.0sp1/nios2eds/bin/gnu/h-i686-mingw32/bin/../lib/gcc/nios2-elf/4.1.2/../../../../nios2-elf/lib\libc.a(lib_a-ctype_.o)
 .comment       0x00000000       0x27 d:/altera13.0sp1/nios2eds/bin/gnu/h-i686-mingw32/bin/../lib/gcc/nios2-elf/4.1.2/../../../../nios2-elf/lib\libc.a(lib_a-exit.o)
 .comment       0x00000000       0x27 d:/altera13.0sp1/nios2eds/bin/gnu/h-i686-mingw32/bin/../lib/gcc/nios2-elf/4.1.2/../../../../nios2-elf/lib\libc.a(lib_a-memcmp.o)
 .comment       0x00000000       0x27 d:/altera13.0sp1/nios2eds/bin/gnu/h-i686-mingw32/bin/../lib/gcc/nios2-elf/4.1.2/../../../../nios2-elf/lib\libc.a(lib_a-__atexit.o)
 .comment       0x00000000       0x27 d:/altera13.0sp1/nios2eds/bin/gnu/h-i686-mingw32/bin/../lib/gcc/nios2-elf/4.1.2/../../../../nios2-elf/lib\libc.a(lib_a-__call_atexit.o)
 .comment       0x00000000       0x27 ../DE2_115_Audio_bsp/\libhal_bsp.a(alt_exit.o)

.debug
 *(.debug)

.line
 *(.line)

.debug_srcinfo
 *(.debug_srcinfo)

.debug_sfnames
 *(.debug_sfnames)

.debug_aranges  0x00000000      0xf78
 *(.debug_aranges)
 .debug_aranges
                0x00000000       0x28 ../DE2_115_Audio_bsp//obj/HAL/src/crt0.o
 .debug_aranges
                0x00000028       0x20 obj/default/AUDIO.o
 .debug_aranges
                0x00000048       0x20 obj/default/I2C.o
 .debug_aranges
                0x00000068       0x20 obj/default/LCD.o
 .debug_aranges
                0x00000088       0x20 obj/default/LED.o
 .debug_aranges
                0x000000a8       0x20 obj/default/SEG7.o
 .debug_aranges
                0x000000c8       0x20 obj/default/debug.o
 .debug_aranges
                0x000000e8       0x20 obj/default/main.o
 .debug_aranges
                0x00000108       0x20 d:/altera13.0sp1/nios2eds/bin/gnu/h-i686-mingw32/bin/../lib/gcc/nios2-elf/4.1.2\libgcc.a(lib2-divmod.o)
 .debug_aranges
                0x00000128       0x20 d:/altera13.0sp1/nios2eds/bin/gnu/h-i686-mingw32/bin/../lib/gcc/nios2-elf/4.1.2/../../../../nios2-elf/lib\libc.a(lib_a-fclose.o)
 .debug_aranges
                0x00000148       0x20 d:/altera13.0sp1/nios2eds/bin/gnu/h-i686-mingw32/bin/../lib/gcc/nios2-elf/4.1.2/../../../../nios2-elf/lib\libc.a(lib_a-fflush.o)
 .debug_aranges
                0x00000168       0x20 d:/altera13.0sp1/nios2eds/bin/gnu/h-i686-mingw32/bin/../lib/gcc/nios2-elf/4.1.2/../../../../nios2-elf/lib\libc.a(lib_a-findfp.o)
 .debug_aranges
                0x00000188       0x20 d:/altera13.0sp1/nios2eds/bin/gnu/h-i686-mingw32/bin/../lib/gcc/nios2-elf/4.1.2/../../../../nios2-elf/lib\libc.a(lib_a-fopen.o)
 .debug_aranges
                0x000001a8       0x20 d:/altera13.0sp1/nios2eds/bin/gnu/h-i686-mingw32/bin/../lib/gcc/nios2-elf/4.1.2/../../../../nios2-elf/lib\libc.a(lib_a-freer.o)
 .debug_aranges
                0x000001c8       0x20 d:/altera13.0sp1/nios2eds/bin/gnu/h-i686-mingw32/bin/../lib/gcc/nios2-elf/4.1.2/../../../../nios2-elf/lib\libc.a(lib_a-fseek.o)
 .debug_aranges
                0x000001e8       0x20 d:/altera13.0sp1/nios2eds/bin/gnu/h-i686-mingw32/bin/../lib/gcc/nios2-elf/4.1.2/../../../../nios2-elf/lib\libc.a(lib_a-fstatr.o)
 .debug_aranges
                0x00000208       0x20 d:/altera13.0sp1/nios2eds/bin/gnu/h-i686-mingw32/bin/../lib/gcc/nios2-elf/4.1.2/../../../../nios2-elf/lib\libc.a(lib_a-fwalk.o)
 .debug_aranges
                0x00000228       0x20 d:/altera13.0sp1/nios2eds/bin/gnu/h-i686-mingw32/bin/../lib/gcc/nios2-elf/4.1.2/../../../../nios2-elf/lib\libc.a(lib_a-fwrite.o)
 .debug_aranges
                0x00000248       0x20 d:/altera13.0sp1/nios2eds/bin/gnu/h-i686-mingw32/bin/../lib/gcc/nios2-elf/4.1.2/../../../../nios2-elf/lib\libc.a(lib_a-makebuf.o)
 .debug_aranges
                0x00000268       0x20 d:/altera13.0sp1/nios2eds/bin/gnu/h-i686-mingw32/bin/../lib/gcc/nios2-elf/4.1.2/../../../../nios2-elf/lib\libc.a(lib_a-mallocr.o)
 .debug_aranges
                0x00000288       0x20 d:/altera13.0sp1/nios2eds/bin/gnu/h-i686-mingw32/bin/../lib/gcc/nios2-elf/4.1.2/../../../../nios2-elf/lib\libc.a(lib_a-memset.o)
 .debug_aranges
                0x000002a8       0x20 d:/altera13.0sp1/nios2eds/bin/gnu/h-i686-mingw32/bin/../lib/gcc/nios2-elf/4.1.2/../../../../nios2-elf/lib\libc.a(lib_a-openr.o)
 .debug_aranges
                0x000002c8       0x20 d:/altera13.0sp1/nios2eds/bin/gnu/h-i686-mingw32/bin/../lib/gcc/nios2-elf/4.1.2/../../../../nios2-elf/lib\libc.a(lib_a-printf.o)
 .debug_aranges
                0x000002e8       0x20 d:/altera13.0sp1/nios2eds/bin/gnu/h-i686-mingw32/bin/../lib/gcc/nios2-elf/4.1.2/../../../../nios2-elf/lib\libc.a(lib_a-puts.o)
 .debug_aranges
                0x00000308       0x20 d:/altera13.0sp1/nios2eds/bin/gnu/h-i686-mingw32/bin/../lib/gcc/nios2-elf/4.1.2/../../../../nios2-elf/lib\libc.a(lib_a-refill.o)
 .debug_aranges
                0x00000328       0x20 d:/altera13.0sp1/nios2eds/bin/gnu/h-i686-mingw32/bin/../lib/gcc/nios2-elf/4.1.2/../../../../nios2-elf/lib\libc.a(lib_a-sbrkr.o)
 .debug_aranges
                0x00000348       0x20 d:/altera13.0sp1/nios2eds/bin/gnu/h-i686-mingw32/bin/../lib/gcc/nios2-elf/4.1.2/../../../../nios2-elf/lib\libc.a(lib_a-sprintf.o)
 .debug_aranges
                0x00000368       0x20 d:/altera13.0sp1/nios2eds/bin/gnu/h-i686-mingw32/bin/../lib/gcc/nios2-elf/4.1.2/../../../../nios2-elf/lib\libc.a(lib_a-stdio.o)
 .debug_aranges
                0x00000388       0x20 d:/altera13.0sp1/nios2eds/bin/gnu/h-i686-mingw32/bin/../lib/gcc/nios2-elf/4.1.2/../../../../nios2-elf/lib\libc.a(lib_a-strlen.o)
 .debug_aranges
                0x000003a8       0x20 d:/altera13.0sp1/nios2eds/bin/gnu/h-i686-mingw32/bin/../lib/gcc/nios2-elf/4.1.2/../../../../nios2-elf/lib\libc.a(lib_a-vfprintf.o)
 .debug_aranges
                0x000003c8       0x20 d:/altera13.0sp1/nios2eds/bin/gnu/h-i686-mingw32/bin/../lib/gcc/nios2-elf/4.1.2/../../../../nios2-elf/lib\libc.a(lib_a-vsnprintf.o)
 .debug_aranges
                0x000003e8       0x20 d:/altera13.0sp1/nios2eds/bin/gnu/h-i686-mingw32/bin/../lib/gcc/nios2-elf/4.1.2/../../../../nios2-elf/lib\libc.a(lib_a-writer.o)
 .debug_aranges
                0x00000408       0x20 d:/altera13.0sp1/nios2eds/bin/gnu/h-i686-mingw32/bin/../lib/gcc/nios2-elf/4.1.2/../../../../nios2-elf/lib\libc.a(lib_a-wsetup.o)
 .debug_aranges
                0x00000428       0x20 d:/altera13.0sp1/nios2eds/bin/gnu/h-i686-mingw32/bin/../lib/gcc/nios2-elf/4.1.2/../../../../nios2-elf/lib\libc.a(lib_a-closer.o)
 .debug_aranges
                0x00000448       0x20 d:/altera13.0sp1/nios2eds/bin/gnu/h-i686-mingw32/bin/../lib/gcc/nios2-elf/4.1.2/../../../../nios2-elf/lib\libc.a(lib_a-dtoa.o)
 .debug_aranges
                0x00000468       0x20 d:/altera13.0sp1/nios2eds/bin/gnu/h-i686-mingw32/bin/../lib/gcc/nios2-elf/4.1.2/../../../../nios2-elf/lib\libc.a(lib_a-flags.o)
 .debug_aranges
                0x00000488       0x20 d:/altera13.0sp1/nios2eds/bin/gnu/h-i686-mingw32/bin/../lib/gcc/nios2-elf/4.1.2/../../../../nios2-elf/lib\libc.a(lib_a-fvwrite.o)
 .debug_aranges
                0x000004a8       0x20 d:/altera13.0sp1/nios2eds/bin/gnu/h-i686-mingw32/bin/../lib/gcc/nios2-elf/4.1.2/../../../../nios2-elf/lib\libc.a(lib_a-isattyr.o)
 .debug_aranges
                0x000004c8       0x20 d:/altera13.0sp1/nios2eds/bin/gnu/h-i686-mingw32/bin/../lib/gcc/nios2-elf/4.1.2/../../../../nios2-elf/lib\libc.a(lib_a-locale.o)
 .debug_aranges
                0x000004e8       0x20 d:/altera13.0sp1/nios2eds/bin/gnu/h-i686-mingw32/bin/../lib/gcc/nios2-elf/4.1.2/../../../../nios2-elf/lib\libc.a(lib_a-lseekr.o)
 .debug_aranges
                0x00000508       0x20 d:/altera13.0sp1/nios2eds/bin/gnu/h-i686-mingw32/bin/../lib/gcc/nios2-elf/4.1.2/../../../../nios2-elf/lib\libc.a(lib_a-memchr.o)
 .debug_aranges
                0x00000528       0x20 d:/altera13.0sp1/nios2eds/bin/gnu/h-i686-mingw32/bin/../lib/gcc/nios2-elf/4.1.2/../../../../nios2-elf/lib\libc.a(lib_a-memcpy.o)
 .debug_aranges
                0x00000548       0x20 d:/altera13.0sp1/nios2eds/bin/gnu/h-i686-mingw32/bin/../lib/gcc/nios2-elf/4.1.2/../../../../nios2-elf/lib\libc.a(lib_a-memmove.o)
 .debug_aranges
                0x00000568       0x20 d:/altera13.0sp1/nios2eds/bin/gnu/h-i686-mingw32/bin/../lib/gcc/nios2-elf/4.1.2/../../../../nios2-elf/lib\libc.a(lib_a-mprec.o)
 .debug_aranges
                0x00000588       0x20 d:/altera13.0sp1/nios2eds/bin/gnu/h-i686-mingw32/bin/../lib/gcc/nios2-elf/4.1.2/../../../../nios2-elf/lib\libc.a(lib_a-readr.o)
 .debug_aranges
                0x000005a8       0x20 d:/altera13.0sp1/nios2eds/bin/gnu/h-i686-mingw32/bin/../lib/gcc/nios2-elf/4.1.2/../../../../nios2-elf/lib\libc.a(lib_a-reallocr.o)
 .debug_aranges
                0x000005c8       0x20 d:/altera13.0sp1/nios2eds/bin/gnu/h-i686-mingw32/bin/../lib/gcc/nios2-elf/4.1.2/../../../../nios2-elf/lib\libc.a(lib_a-s_isinfd.o)
 .debug_aranges
                0x000005e8       0x20 d:/altera13.0sp1/nios2eds/bin/gnu/h-i686-mingw32/bin/../lib/gcc/nios2-elf/4.1.2/../../../../nios2-elf/lib\libc.a(lib_a-s_isnand.o)
 .debug_aranges
                0x00000608       0x20 d:/altera13.0sp1/nios2eds/bin/gnu/h-i686-mingw32/bin/../lib/gcc/nios2-elf/4.1.2/../../../../nios2-elf/lib\libc.a(lib_a-strcmp.o)
 .debug_aranges
                0x00000628       0x20 d:/altera13.0sp1/nios2eds/bin/gnu/h-i686-mingw32/bin/../lib/gcc/nios2-elf/4.1.2/../../../../nios2-elf/lib\libc.a(lib_a-callocr.o)
 .debug_aranges
                0x00000648       0x20 d:/altera13.0sp1/nios2eds/bin/gnu/h-i686-mingw32/bin/../lib/gcc/nios2-elf/4.1.2\libgcc.a(_udivdi3.o)
 .debug_aranges
                0x00000668       0x20 d:/altera13.0sp1/nios2eds/bin/gnu/h-i686-mingw32/bin/../lib/gcc/nios2-elf/4.1.2\libgcc.a(_umoddi3.o)
 .debug_aranges
                0x00000688       0x20 d:/altera13.0sp1/nios2eds/bin/gnu/h-i686-mingw32/bin/../lib/gcc/nios2-elf/4.1.2\libgcc.a(_addsub_df.o)
 .debug_aranges
                0x000006a8       0x20 d:/altera13.0sp1/nios2eds/bin/gnu/h-i686-mingw32/bin/../lib/gcc/nios2-elf/4.1.2\libgcc.a(_mul_df.o)
 .debug_aranges
                0x000006c8       0x20 d:/altera13.0sp1/nios2eds/bin/gnu/h-i686-mingw32/bin/../lib/gcc/nios2-elf/4.1.2\libgcc.a(_div_df.o)
 .debug_aranges
                0x000006e8       0x20 d:/altera13.0sp1/nios2eds/bin/gnu/h-i686-mingw32/bin/../lib/gcc/nios2-elf/4.1.2\libgcc.a(_eq_df.o)
 .debug_aranges
                0x00000708       0x20 d:/altera13.0sp1/nios2eds/bin/gnu/h-i686-mingw32/bin/../lib/gcc/nios2-elf/4.1.2\libgcc.a(_ne_df.o)
 .debug_aranges
                0x00000728       0x20 d:/altera13.0sp1/nios2eds/bin/gnu/h-i686-mingw32/bin/../lib/gcc/nios2-elf/4.1.2\libgcc.a(_gt_df.o)
 .debug_aranges
                0x00000748       0x20 d:/altera13.0sp1/nios2eds/bin/gnu/h-i686-mingw32/bin/../lib/gcc/nios2-elf/4.1.2\libgcc.a(_ge_df.o)
 .debug_aranges
                0x00000768       0x20 d:/altera13.0sp1/nios2eds/bin/gnu/h-i686-mingw32/bin/../lib/gcc/nios2-elf/4.1.2\libgcc.a(_lt_df.o)
 .debug_aranges
                0x00000788       0x20 d:/altera13.0sp1/nios2eds/bin/gnu/h-i686-mingw32/bin/../lib/gcc/nios2-elf/4.1.2\libgcc.a(_si_to_df.o)
 .debug_aranges
                0x000007a8       0x20 d:/altera13.0sp1/nios2eds/bin/gnu/h-i686-mingw32/bin/../lib/gcc/nios2-elf/4.1.2\libgcc.a(_df_to_si.o)
 .debug_aranges
                0x000007c8       0x20 d:/altera13.0sp1/nios2eds/bin/gnu/h-i686-mingw32/bin/../lib/gcc/nios2-elf/4.1.2\libgcc.a(_usi_to_df.o)
 .debug_aranges
                0x000007e8       0x20 d:/altera13.0sp1/nios2eds/bin/gnu/h-i686-mingw32/bin/../lib/gcc/nios2-elf/4.1.2\libgcc.a(_muldi3.o)
 .debug_aranges
                0x00000808       0x20 d:/altera13.0sp1/nios2eds/bin/gnu/h-i686-mingw32/bin/../lib/gcc/nios2-elf/4.1.2\libgcc.a(_clzsi2.o)
 .debug_aranges
                0x00000828       0x20 d:/altera13.0sp1/nios2eds/bin/gnu/h-i686-mingw32/bin/../lib/gcc/nios2-elf/4.1.2\libgcc.a(_pack_df.o)
 .debug_aranges
                0x00000848       0x20 d:/altera13.0sp1/nios2eds/bin/gnu/h-i686-mingw32/bin/../lib/gcc/nios2-elf/4.1.2\libgcc.a(_unpack_df.o)
 .debug_aranges
                0x00000868       0x20 d:/altera13.0sp1/nios2eds/bin/gnu/h-i686-mingw32/bin/../lib/gcc/nios2-elf/4.1.2\libgcc.a(_fpcmp_parts_df.o)
 .debug_aranges
                0x00000888       0x20 ../DE2_115_Audio_bsp/\libhal_bsp.a(alt_close.o)
 .debug_aranges
                0x000008a8       0x20 ../DE2_115_Audio_bsp/\libhal_bsp.a(alt_dev.o)
 .debug_aranges
                0x000008c8       0x20 ../DE2_115_Audio_bsp/\libhal_bsp.a(alt_fstat.o)
 .debug_aranges
                0x000008e8       0x20 ../DE2_115_Audio_bsp/\libhal_bsp.a(alt_irq_register.o)
 .debug_aranges
                0x00000908       0x20 ../DE2_115_Audio_bsp/\libhal_bsp.a(alt_isatty.o)
 .debug_aranges
                0x00000928       0x20 ../DE2_115_Audio_bsp/\libhal_bsp.a(alt_load.o)
 .debug_aranges
                0x00000948       0x20 ../DE2_115_Audio_bsp/\libhal_bsp.a(alt_lseek.o)
 .debug_aranges
                0x00000968       0x20 ../DE2_115_Audio_bsp/\libhal_bsp.a(alt_main.o)
 .debug_aranges
                0x00000988       0x20 ../DE2_115_Audio_bsp/\libhal_bsp.a(alt_malloc_lock.o)
 .debug_aranges
                0x000009a8       0x20 ../DE2_115_Audio_bsp/\libhal_bsp.a(alt_open.o)
 .debug_aranges
                0x000009c8       0x20 ../DE2_115_Audio_bsp/\libhal_bsp.a(alt_read.o)
 .debug_aranges
                0x000009e8       0x20 ../DE2_115_Audio_bsp/\libhal_bsp.a(alt_release_fd.o)
 .debug_aranges
                0x00000a08       0x20 ../DE2_115_Audio_bsp/\libhal_bsp.a(alt_sbrk.o)
 .debug_aranges
                0x00000a28       0x20 ../DE2_115_Audio_bsp/\libhal_bsp.a(alt_usleep.o)
 .debug_aranges
                0x00000a48       0x20 ../DE2_115_Audio_bsp/\libhal_bsp.a(alt_write.o)
 .debug_aranges
                0x00000a68       0x20 ../DE2_115_Audio_bsp/\libhal_bsp.a(alt_sys_init.o)
 .debug_aranges
                0x00000a88       0x20 ../DE2_115_Audio_bsp/\libhal_bsp.a(altera_avalon_cfi_flash.o)
 .debug_aranges
                0x00000aa8       0x20 ../DE2_115_Audio_bsp/\libhal_bsp.a(altera_avalon_cfi_flash_table.o)
 .debug_aranges
                0x00000ac8       0x20 ../DE2_115_Audio_bsp/\libhal_bsp.a(altera_avalon_jtag_uart_fd.o)
 .debug_aranges
                0x00000ae8       0x20 ../DE2_115_Audio_bsp/\libhal_bsp.a(altera_avalon_jtag_uart_init.o)
 .debug_aranges
                0x00000b08       0x20 ../DE2_115_Audio_bsp/\libhal_bsp.a(altera_avalon_jtag_uart_ioctl.o)
 .debug_aranges
                0x00000b28       0x20 ../DE2_115_Audio_bsp/\libhal_bsp.a(altera_avalon_jtag_uart_read.o)
 .debug_aranges
                0x00000b48       0x20 ../DE2_115_Audio_bsp/\libhal_bsp.a(altera_avalon_jtag_uart_write.o)
 .debug_aranges
                0x00000b68       0x20 ../DE2_115_Audio_bsp/\libhal_bsp.a(altera_avalon_lcd_16207.o)
 .debug_aranges
                0x00000b88       0x20 ../DE2_115_Audio_bsp/\libhal_bsp.a(altera_avalon_lcd_16207_fd.o)
 .debug_aranges
                0x00000ba8       0x20 ../DE2_115_Audio_bsp/\libhal_bsp.a(alt_alarm_start.o)
 .debug_aranges
                0x00000bc8       0x20 ../DE2_115_Audio_bsp/\libhal_bsp.a(alt_busy_sleep.o)
 .debug_aranges
                0x00000be8       0x20 ../DE2_115_Audio_bsp/\libhal_bsp.a(alt_dcache_flush.o)
 .debug_aranges
                0x00000c08       0x20 ../DE2_115_Audio_bsp/\libhal_bsp.a(alt_dcache_flush_all.o)
 .debug_aranges
                0x00000c28       0x20 ../DE2_115_Audio_bsp/\libhal_bsp.a(alt_dev_llist_insert.o)
 .debug_aranges
                0x00000c48       0x20 ../DE2_115_Audio_bsp/\libhal_bsp.a(alt_do_ctors.o)
 .debug_aranges
                0x00000c68       0x20 ../DE2_115_Audio_bsp/\libhal_bsp.a(alt_do_dtors.o)
 .debug_aranges
                0x00000c88       0x20 ../DE2_115_Audio_bsp/\libhal_bsp.a(alt_find_dev.o)
 .debug_aranges
                0x00000ca8       0x20 ../DE2_115_Audio_bsp/\libhal_bsp.a(alt_find_file.o)
 .debug_aranges
                0x00000cc8       0x20 ../DE2_115_Audio_bsp/\libhal_bsp.a(alt_flash_dev.o)
 .debug_aranges
                0x00000ce8       0x20 ../DE2_115_Audio_bsp/\libhal_bsp.a(alt_get_fd.o)
 .debug_aranges
                0x00000d08       0x20 ../DE2_115_Audio_bsp/\libhal_bsp.a(alt_icache_flush_all.o)
 .debug_aranges
                0x00000d28       0x20 ../DE2_115_Audio_bsp/\libhal_bsp.a(alt_iic.o)
 .debug_aranges
                0x00000d48       0x20 ../DE2_115_Audio_bsp/\libhal_bsp.a(alt_iic_isr_register.o)
 .debug_aranges
                0x00000d68       0x20 ../DE2_115_Audio_bsp/\libhal_bsp.a(alt_io_redirect.o)
 .debug_aranges
                0x00000d88       0x30 ../DE2_115_Audio_bsp/\libhal_bsp.a(alt_irq_entry.o)
 .debug_aranges
                0x00000db8       0x28 ../DE2_115_Audio_bsp/\libhal_bsp.a(alt_irq_handler.o)
 .debug_aranges
                0x00000de0       0x20 ../DE2_115_Audio_bsp/\libhal_bsp.a(alt_tick.o)
 .debug_aranges
                0x00000e00       0x20 ../DE2_115_Audio_bsp/\libhal_bsp.a(altera_nios2_qsys_irq.o)
 .debug_aranges
                0x00000e20       0x20 ../DE2_115_Audio_bsp/\libhal_bsp.a(altera_avalon_cfi_flash_amd.o)
 .debug_aranges
                0x00000e40       0x20 ../DE2_115_Audio_bsp/\libhal_bsp.a(altera_avalon_cfi_flash_intel.o)
 .debug_aranges
                0x00000e60       0x38 ../DE2_115_Audio_bsp/\libhal_bsp.a(alt_exception_entry.o)
 .debug_aranges
                0x00000e98       0x20 ../DE2_115_Audio_bsp/\libhal_bsp.a(alt_icache_flush.o)
 .debug_aranges
                0x00000eb8       0x20 d:/altera13.0sp1/nios2eds/bin/gnu/h-i686-mingw32/bin/../lib/gcc/nios2-elf/4.1.2/../../../../nios2-elf/lib\libc.a(lib_a-atexit.o)
 .debug_aranges
                0x00000ed8       0x20 d:/altera13.0sp1/nios2eds/bin/gnu/h-i686-mingw32/bin/../lib/gcc/nios2-elf/4.1.2/../../../../nios2-elf/lib\libc.a(lib_a-exit.o)
 .debug_aranges
                0x00000ef8       0x20 d:/altera13.0sp1/nios2eds/bin/gnu/h-i686-mingw32/bin/../lib/gcc/nios2-elf/4.1.2/../../../../nios2-elf/lib\libc.a(lib_a-memcmp.o)
 .debug_aranges
                0x00000f18       0x20 d:/altera13.0sp1/nios2eds/bin/gnu/h-i686-mingw32/bin/../lib/gcc/nios2-elf/4.1.2/../../../../nios2-elf/lib\libc.a(lib_a-__atexit.o)
 .debug_aranges
                0x00000f38       0x20 d:/altera13.0sp1/nios2eds/bin/gnu/h-i686-mingw32/bin/../lib/gcc/nios2-elf/4.1.2/../../../../nios2-elf/lib\libc.a(lib_a-__call_atexit.o)
 .debug_aranges
                0x00000f58       0x20 ../DE2_115_Audio_bsp/\libhal_bsp.a(alt_exit.o)

.debug_pubnames
                0x00000000     0x1e69
 *(.debug_pubnames)
 .debug_pubnames
                0x00000000      0x20b obj/default/AUDIO.o
 .debug_pubnames
                0x0000020b       0x78 obj/default/I2C.o
 .debug_pubnames
                0x00000283       0x4b obj/default/LCD.o
 .debug_pubnames
                0x000002ce       0x52 obj/default/LED.o
 .debug_pubnames
                0x00000320       0x5d obj/default/SEG7.o
 .debug_pubnames
                0x0000037d       0x60 obj/default/debug.o
 .debug_pubnames
                0x000003dd      0x129 obj/default/main.o
 .debug_pubnames
                0x00000506       0x48 d:/altera13.0sp1/nios2eds/bin/gnu/h-i686-mingw32/bin/../lib/gcc/nios2-elf/4.1.2\libgcc.a(lib2-divmod.o)
 .debug_pubnames
                0x0000054e       0x2b d:/altera13.0sp1/nios2eds/bin/gnu/h-i686-mingw32/bin/../lib/gcc/nios2-elf/4.1.2/../../../../nios2-elf/lib\libc.a(lib_a-fclose.o)
 .debug_pubnames
                0x00000579       0x2b d:/altera13.0sp1/nios2eds/bin/gnu/h-i686-mingw32/bin/../lib/gcc/nios2-elf/4.1.2/../../../../nios2-elf/lib\libc.a(lib_a-fflush.o)
 .debug_pubnames
                0x000005a4       0xdb d:/altera13.0sp1/nios2eds/bin/gnu/h-i686-mingw32/bin/../lib/gcc/nios2-elf/4.1.2/../../../../nios2-elf/lib\libc.a(lib_a-findfp.o)
 .debug_pubnames
                0x0000067f       0x29 d:/altera13.0sp1/nios2eds/bin/gnu/h-i686-mingw32/bin/../lib/gcc/nios2-elf/4.1.2/../../../../nios2-elf/lib\libc.a(lib_a-fopen.o)
 .debug_pubnames
                0x000006a8       0x31 d:/altera13.0sp1/nios2eds/bin/gnu/h-i686-mingw32/bin/../lib/gcc/nios2-elf/4.1.2/../../../../nios2-elf/lib\libc.a(lib_a-freer.o)
 .debug_pubnames
                0x000006d9       0x29 d:/altera13.0sp1/nios2eds/bin/gnu/h-i686-mingw32/bin/../lib/gcc/nios2-elf/4.1.2/../../../../nios2-elf/lib\libc.a(lib_a-fseek.o)
 .debug_pubnames
                0x00000702       0x1f d:/altera13.0sp1/nios2eds/bin/gnu/h-i686-mingw32/bin/../lib/gcc/nios2-elf/4.1.2/../../../../nios2-elf/lib\libc.a(lib_a-fstatr.o)
 .debug_pubnames
                0x00000721       0x2e d:/altera13.0sp1/nios2eds/bin/gnu/h-i686-mingw32/bin/../lib/gcc/nios2-elf/4.1.2/../../../../nios2-elf/lib\libc.a(lib_a-fwalk.o)
 .debug_pubnames
                0x0000074f       0x2b d:/altera13.0sp1/nios2eds/bin/gnu/h-i686-mingw32/bin/../lib/gcc/nios2-elf/4.1.2/../../../../nios2-elf/lib\libc.a(lib_a-fwrite.o)
 .debug_pubnames
                0x0000077a       0x39 d:/altera13.0sp1/nios2eds/bin/gnu/h-i686-mingw32/bin/../lib/gcc/nios2-elf/4.1.2/../../../../nios2-elf/lib\libc.a(lib_a-impure.o)
 .debug_pubnames
                0x000007b3       0x1c d:/altera13.0sp1/nios2eds/bin/gnu/h-i686-mingw32/bin/../lib/gcc/nios2-elf/4.1.2/../../../../nios2-elf/lib\libc.a(lib_a-int_errno.o)
 .debug_pubnames
                0x000007cf       0x23 d:/altera13.0sp1/nios2eds/bin/gnu/h-i686-mingw32/bin/../lib/gcc/nios2-elf/4.1.2/../../../../nios2-elf/lib\libc.a(lib_a-makebuf.o)
 .debug_pubnames
                0x000007f2       0xce d:/altera13.0sp1/nios2eds/bin/gnu/h-i686-mingw32/bin/../lib/gcc/nios2-elf/4.1.2/../../../../nios2-elf/lib\libc.a(lib_a-mallocr.o)
 .debug_pubnames
                0x000008c0       0x1d d:/altera13.0sp1/nios2eds/bin/gnu/h-i686-mingw32/bin/../lib/gcc/nios2-elf/4.1.2/../../../../nios2-elf/lib\libc.a(lib_a-memset.o)
 .debug_pubnames
                0x000008dd       0x1e d:/altera13.0sp1/nios2eds/bin/gnu/h-i686-mingw32/bin/../lib/gcc/nios2-elf/4.1.2/../../../../nios2-elf/lib\libc.a(lib_a-openr.o)
 .debug_pubnames
                0x000008fb       0x2b d:/altera13.0sp1/nios2eds/bin/gnu/h-i686-mingw32/bin/../lib/gcc/nios2-elf/4.1.2/../../../../nios2-elf/lib\libc.a(lib_a-printf.o)
 .debug_pubnames
                0x00000926       0x27 d:/altera13.0sp1/nios2eds/bin/gnu/h-i686-mingw32/bin/../lib/gcc/nios2-elf/4.1.2/../../../../nios2-elf/lib\libc.a(lib_a-puts.o)
 .debug_pubnames
                0x0000094d       0x22 d:/altera13.0sp1/nios2eds/bin/gnu/h-i686-mingw32/bin/../lib/gcc/nios2-elf/4.1.2/../../../../nios2-elf/lib\libc.a(lib_a-refill.o)
 .debug_pubnames
                0x0000096f       0x1e d:/altera13.0sp1/nios2eds/bin/gnu/h-i686-mingw32/bin/../lib/gcc/nios2-elf/4.1.2/../../../../nios2-elf/lib\libc.a(lib_a-sbrkr.o)
 .debug_pubnames
                0x0000098d       0x2d d:/altera13.0sp1/nios2eds/bin/gnu/h-i686-mingw32/bin/../lib/gcc/nios2-elf/4.1.2/../../../../nios2-elf/lib\libc.a(lib_a-sprintf.o)
 .debug_pubnames
                0x000009ba       0x44 d:/altera13.0sp1/nios2eds/bin/gnu/h-i686-mingw32/bin/../lib/gcc/nios2-elf/4.1.2/../../../../nios2-elf/lib\libc.a(lib_a-stdio.o)
 .debug_pubnames
                0x000009fe       0x1d d:/altera13.0sp1/nios2eds/bin/gnu/h-i686-mingw32/bin/../lib/gcc/nios2-elf/4.1.2/../../../../nios2-elf/lib\libc.a(lib_a-strlen.o)
 .debug_pubnames
                0x00000a1b       0x45 d:/altera13.0sp1/nios2eds/bin/gnu/h-i686-mingw32/bin/../lib/gcc/nios2-elf/4.1.2/../../../../nios2-elf/lib\libc.a(lib_a-vfprintf.o)
 .debug_pubnames
                0x00000a60       0x31 d:/altera13.0sp1/nios2eds/bin/gnu/h-i686-mingw32/bin/../lib/gcc/nios2-elf/4.1.2/../../../../nios2-elf/lib\libc.a(lib_a-vsnprintf.o)
 .debug_pubnames
                0x00000a91       0x1f d:/altera13.0sp1/nios2eds/bin/gnu/h-i686-mingw32/bin/../lib/gcc/nios2-elf/4.1.2/../../../../nios2-elf/lib\libc.a(lib_a-writer.o)
 .debug_pubnames
                0x00000ab0       0x22 d:/altera13.0sp1/nios2eds/bin/gnu/h-i686-mingw32/bin/../lib/gcc/nios2-elf/4.1.2/../../../../nios2-elf/lib\libc.a(lib_a-wsetup.o)
 .debug_pubnames
                0x00000ad2       0x1f d:/altera13.0sp1/nios2eds/bin/gnu/h-i686-mingw32/bin/../lib/gcc/nios2-elf/4.1.2/../../../../nios2-elf/lib\libc.a(lib_a-closer.o)
 .debug_pubnames
                0x00000af1       0x1e d:/altera13.0sp1/nios2eds/bin/gnu/h-i686-mingw32/bin/../lib/gcc/nios2-elf/4.1.2/../../../../nios2-elf/lib\libc.a(lib_a-dtoa.o)
 .debug_pubnames
                0x00000b0f       0x1f d:/altera13.0sp1/nios2eds/bin/gnu/h-i686-mingw32/bin/../lib/gcc/nios2-elf/4.1.2/../../../../nios2-elf/lib\libc.a(lib_a-flags.o)
 .debug_pubnames
                0x00000b2e       0x23 d:/altera13.0sp1/nios2eds/bin/gnu/h-i686-mingw32/bin/../lib/gcc/nios2-elf/4.1.2/../../../../nios2-elf/lib\libc.a(lib_a-fvwrite.o)
 .debug_pubnames
                0x00000b51       0x20 d:/altera13.0sp1/nios2eds/bin/gnu/h-i686-mingw32/bin/../lib/gcc/nios2-elf/4.1.2/../../../../nios2-elf/lib\libc.a(lib_a-isattyr.o)
 .debug_pubnames
                0x00000b71       0xc3 d:/altera13.0sp1/nios2eds/bin/gnu/h-i686-mingw32/bin/../lib/gcc/nios2-elf/4.1.2/../../../../nios2-elf/lib\libc.a(lib_a-locale.o)
 .debug_pubnames
                0x00000c34       0x1f d:/altera13.0sp1/nios2eds/bin/gnu/h-i686-mingw32/bin/../lib/gcc/nios2-elf/4.1.2/../../../../nios2-elf/lib\libc.a(lib_a-lseekr.o)
 .debug_pubnames
                0x00000c53       0x1d d:/altera13.0sp1/nios2eds/bin/gnu/h-i686-mingw32/bin/../lib/gcc/nios2-elf/4.1.2/../../../../nios2-elf/lib\libc.a(lib_a-memchr.o)
 .debug_pubnames
                0x00000c70       0x1d d:/altera13.0sp1/nios2eds/bin/gnu/h-i686-mingw32/bin/../lib/gcc/nios2-elf/4.1.2/../../../../nios2-elf/lib\libc.a(lib_a-memcpy.o)
 .debug_pubnames
                0x00000c8d       0x1e d:/altera13.0sp1/nios2eds/bin/gnu/h-i686-mingw32/bin/../lib/gcc/nios2-elf/4.1.2/../../../../nios2-elf/lib\libc.a(lib_a-memmove.o)
 .debug_pubnames
                0x00000cab      0x13a d:/altera13.0sp1/nios2eds/bin/gnu/h-i686-mingw32/bin/../lib/gcc/nios2-elf/4.1.2/../../../../nios2-elf/lib\libc.a(lib_a-mprec.o)
 .debug_pubnames
                0x00000de5       0x1e d:/altera13.0sp1/nios2eds/bin/gnu/h-i686-mingw32/bin/../lib/gcc/nios2-elf/4.1.2/../../../../nios2-elf/lib\libc.a(lib_a-readr.o)
 .debug_pubnames
                0x00000e03       0x21 d:/altera13.0sp1/nios2eds/bin/gnu/h-i686-mingw32/bin/../lib/gcc/nios2-elf/4.1.2/../../../../nios2-elf/lib\libc.a(lib_a-reallocr.o)
 .debug_pubnames
                0x00000e24       0x1f d:/altera13.0sp1/nios2eds/bin/gnu/h-i686-mingw32/bin/../lib/gcc/nios2-elf/4.1.2/../../../../nios2-elf/lib\libc.a(lib_a-s_isinfd.o)
 .debug_pubnames
                0x00000e43       0x1f d:/altera13.0sp1/nios2eds/bin/gnu/h-i686-mingw32/bin/../lib/gcc/nios2-elf/4.1.2/../../../../nios2-elf/lib\libc.a(lib_a-s_isnand.o)
 .debug_pubnames
                0x00000e62       0x1d d:/altera13.0sp1/nios2eds/bin/gnu/h-i686-mingw32/bin/../lib/gcc/nios2-elf/4.1.2/../../../../nios2-elf/lib\libc.a(lib_a-strcmp.o)
 .debug_pubnames
                0x00000e7f       0x20 d:/altera13.0sp1/nios2eds/bin/gnu/h-i686-mingw32/bin/../lib/gcc/nios2-elf/4.1.2/../../../../nios2-elf/lib\libc.a(lib_a-callocr.o)
 .debug_pubnames
                0x00000e9f       0x20 d:/altera13.0sp1/nios2eds/bin/gnu/h-i686-mingw32/bin/../lib/gcc/nios2-elf/4.1.2\libgcc.a(_udivdi3.o)
 .debug_pubnames
                0x00000ebf       0x20 d:/altera13.0sp1/nios2eds/bin/gnu/h-i686-mingw32/bin/../lib/gcc/nios2-elf/4.1.2\libgcc.a(_umoddi3.o)
 .debug_pubnames
                0x00000edf       0x2c d:/altera13.0sp1/nios2eds/bin/gnu/h-i686-mingw32/bin/../lib/gcc/nios2-elf/4.1.2\libgcc.a(_addsub_df.o)
 .debug_pubnames
                0x00000f0b       0x1f d:/altera13.0sp1/nios2eds/bin/gnu/h-i686-mingw32/bin/../lib/gcc/nios2-elf/4.1.2\libgcc.a(_mul_df.o)
 .debug_pubnames
                0x00000f2a       0x1f d:/altera13.0sp1/nios2eds/bin/gnu/h-i686-mingw32/bin/../lib/gcc/nios2-elf/4.1.2\libgcc.a(_div_df.o)
 .debug_pubnames
                0x00000f49       0x1e d:/altera13.0sp1/nios2eds/bin/gnu/h-i686-mingw32/bin/../lib/gcc/nios2-elf/4.1.2\libgcc.a(_eq_df.o)
 .debug_pubnames
                0x00000f67       0x1e d:/altera13.0sp1/nios2eds/bin/gnu/h-i686-mingw32/bin/../lib/gcc/nios2-elf/4.1.2\libgcc.a(_ne_df.o)
 .debug_pubnames
                0x00000f85       0x1e d:/altera13.0sp1/nios2eds/bin/gnu/h-i686-mingw32/bin/../lib/gcc/nios2-elf/4.1.2\libgcc.a(_gt_df.o)
 .debug_pubnames
                0x00000fa3       0x1e d:/altera13.0sp1/nios2eds/bin/gnu/h-i686-mingw32/bin/../lib/gcc/nios2-elf/4.1.2\libgcc.a(_ge_df.o)
 .debug_pubnames
                0x00000fc1       0x1e d:/altera13.0sp1/nios2eds/bin/gnu/h-i686-mingw32/bin/../lib/gcc/nios2-elf/4.1.2\libgcc.a(_lt_df.o)
 .debug_pubnames
                0x00000fdf       0x22 d:/altera13.0sp1/nios2eds/bin/gnu/h-i686-mingw32/bin/../lib/gcc/nios2-elf/4.1.2\libgcc.a(_si_to_df.o)
 .debug_pubnames
                0x00001001       0x20 d:/altera13.0sp1/nios2eds/bin/gnu/h-i686-mingw32/bin/../lib/gcc/nios2-elf/4.1.2\libgcc.a(_df_to_si.o)
 .debug_pubnames
                0x00001021       0x22 d:/altera13.0sp1/nios2eds/bin/gnu/h-i686-mingw32/bin/../lib/gcc/nios2-elf/4.1.2\libgcc.a(_thenan_df.o)
 .debug_pubnames
                0x00001043       0x24 d:/altera13.0sp1/nios2eds/bin/gnu/h-i686-mingw32/bin/../lib/gcc/nios2-elf/4.1.2\libgcc.a(_usi_to_df.o)
 .debug_pubnames
                0x00001067       0x1f d:/altera13.0sp1/nios2eds/bin/gnu/h-i686-mingw32/bin/../lib/gcc/nios2-elf/4.1.2\libgcc.a(_muldi3.o)
 .debug_pubnames
                0x00001086       0x20 d:/altera13.0sp1/nios2eds/bin/gnu/h-i686-mingw32/bin/../lib/gcc/nios2-elf/4.1.2\libgcc.a(_clz.o)
 .debug_pubnames
                0x000010a6       0x1f d:/altera13.0sp1/nios2eds/bin/gnu/h-i686-mingw32/bin/../lib/gcc/nios2-elf/4.1.2\libgcc.a(_clzsi2.o)
 .debug_pubnames
                0x000010c5       0x1f d:/altera13.0sp1/nios2eds/bin/gnu/h-i686-mingw32/bin/../lib/gcc/nios2-elf/4.1.2\libgcc.a(_pack_df.o)
 .debug_pubnames
                0x000010e4       0x21 d:/altera13.0sp1/nios2eds/bin/gnu/h-i686-mingw32/bin/../lib/gcc/nios2-elf/4.1.2\libgcc.a(_unpack_df.o)
 .debug_pubnames
                0x00001105       0x26 d:/altera13.0sp1/nios2eds/bin/gnu/h-i686-mingw32/bin/../lib/gcc/nios2-elf/4.1.2\libgcc.a(_fpcmp_parts_df.o)
 .debug_pubnames
                0x0000112b       0x1c ../DE2_115_Audio_bsp/\libhal_bsp.a(alt_close.o)
 .debug_pubnames
                0x00001147       0x63 ../DE2_115_Audio_bsp/\libhal_bsp.a(alt_dev.o)
 .debug_pubnames
                0x000011aa       0x20 ../DE2_115_Audio_bsp/\libhal_bsp.a(alt_errno.o)
 .debug_pubnames
                0x000011ca       0x1c ../DE2_115_Audio_bsp/\libhal_bsp.a(alt_fstat.o)
 .debug_pubnames
                0x000011e6       0x27 ../DE2_115_Audio_bsp/\libhal_bsp.a(alt_irq_register.o)
 .debug_pubnames
                0x0000120d       0x3b ../DE2_115_Audio_bsp/\libhal_bsp.a(alt_irq_vars.o)
 .debug_pubnames
                0x00001248       0x1d ../DE2_115_Audio_bsp/\libhal_bsp.a(alt_isatty.o)
 .debug_pubnames
                0x00001265       0x1f ../DE2_115_Audio_bsp/\libhal_bsp.a(alt_load.o)
 .debug_pubnames
                0x00001284       0x1c ../DE2_115_Audio_bsp/\libhal_bsp.a(alt_lseek.o)
 .debug_pubnames
                0x000012a0       0x46 ../DE2_115_Audio_bsp/\libhal_bsp.a(alt_main.o)
 .debug_pubnames
                0x000012e6       0x38 ../DE2_115_Audio_bsp/\libhal_bsp.a(alt_malloc_lock.o)
 .debug_pubnames
                0x0000131e       0x1b ../DE2_115_Audio_bsp/\libhal_bsp.a(alt_open.o)
 .debug_pubnames
                0x00001339       0x1b ../DE2_115_Audio_bsp/\libhal_bsp.a(alt_read.o)
 .debug_pubnames
                0x00001354       0x25 ../DE2_115_Audio_bsp/\libhal_bsp.a(alt_release_fd.o)
 .debug_pubnames
                0x00001379       0x1b ../DE2_115_Audio_bsp/\libhal_bsp.a(alt_sbrk.o)
 .debug_pubnames
                0x00001394       0x1d ../DE2_115_Audio_bsp/\libhal_bsp.a(alt_usleep.o)
 .debug_pubnames
                0x000013b1       0x1c ../DE2_115_Audio_bsp/\libhal_bsp.a(alt_write.o)
 .debug_pubnames
                0x000013cd       0x34 ../DE2_115_Audio_bsp/\libhal_bsp.a(alt_sys_init.o)
 .debug_pubnames
                0x00001401       0xac ../DE2_115_Audio_bsp/\libhal_bsp.a(altera_avalon_cfi_flash.o)
 .debug_pubnames
                0x000014ad      0x27a ../DE2_115_Audio_bsp/\libhal_bsp.a(altera_avalon_cfi_flash_table.o)
 .debug_pubnames
                0x00001727       0xa5 ../DE2_115_Audio_bsp/\libhal_bsp.a(altera_avalon_jtag_uart_fd.o)
 .debug_pubnames
                0x000017cc       0x55 ../DE2_115_Audio_bsp/\libhal_bsp.a(altera_avalon_jtag_uart_init.o)
 .debug_pubnames
                0x00001821       0x34 ../DE2_115_Audio_bsp/\libhal_bsp.a(altera_avalon_jtag_uart_ioctl.o)
 .debug_pubnames
                0x00001855       0x33 ../DE2_115_Audio_bsp/\libhal_bsp.a(altera_avalon_jtag_uart_read.o)
 .debug_pubnames
                0x00001888       0x34 ../DE2_115_Audio_bsp/\libhal_bsp.a(altera_avalon_jtag_uart_write.o)
 .debug_pubnames
                0x000018bc       0x55 ../DE2_115_Audio_bsp/\libhal_bsp.a(altera_avalon_lcd_16207.o)
 .debug_pubnames
                0x00001911       0x37 ../DE2_115_Audio_bsp/\libhal_bsp.a(altera_avalon_lcd_16207_fd.o)
 .debug_pubnames
                0x00001948       0x26 ../DE2_115_Audio_bsp/\libhal_bsp.a(alt_alarm_start.o)
 .debug_pubnames
                0x0000196e       0x25 ../DE2_115_Audio_bsp/\libhal_bsp.a(alt_busy_sleep.o)
 .debug_pubnames
                0x00001993       0x27 ../DE2_115_Audio_bsp/\libhal_bsp.a(alt_dcache_flush.o)
 .debug_pubnames
                0x000019ba       0x2b ../DE2_115_Audio_bsp/\libhal_bsp.a(alt_dcache_flush_all.o)
 .debug_pubnames
                0x000019e5       0x2b ../DE2_115_Audio_bsp/\libhal_bsp.a(alt_dev_llist_insert.o)
 .debug_pubnames
                0x00001a10       0x20 ../DE2_115_Audio_bsp/\libhal_bsp.a(alt_do_ctors.o)
 .debug_pubnames
                0x00001a30       0x20 ../DE2_115_Audio_bsp/\libhal_bsp.a(alt_do_dtors.o)
 .debug_pubnames
                0x00001a50       0x23 ../DE2_115_Audio_bsp/\libhal_bsp.a(alt_find_dev.o)
 .debug_pubnames
                0x00001a73       0x24 ../DE2_115_Audio_bsp/\libhal_bsp.a(alt_find_file.o)
 .debug_pubnames
                0x00001a97       0x58 ../DE2_115_Audio_bsp/\libhal_bsp.a(alt_flash_dev.o)
 .debug_pubnames
                0x00001aef       0x21 ../DE2_115_Audio_bsp/\libhal_bsp.a(alt_get_fd.o)
 .debug_pubnames
                0x00001b10       0x2b ../DE2_115_Audio_bsp/\libhal_bsp.a(alt_icache_flush_all.o)
 .debug_pubnames
                0x00001b3b       0x6e ../DE2_115_Audio_bsp/\libhal_bsp.a(alt_iic.o)
 .debug_pubnames
                0x00001ba9       0x2b ../DE2_115_Audio_bsp/\libhal_bsp.a(alt_iic_isr_register.o)
 .debug_pubnames
                0x00001bd4       0x26 ../DE2_115_Audio_bsp/\libhal_bsp.a(alt_io_redirect.o)
 .debug_pubnames
                0x00001bfa       0x32 ../DE2_115_Audio_bsp/\libhal_bsp.a(alt_irq_handler.o)
 .debug_pubnames
                0x00001c2c       0x68 ../DE2_115_Audio_bsp/\libhal_bsp.a(alt_tick.o)
 .debug_pubnames
                0x00001c94       0x31 ../DE2_115_Audio_bsp/\libhal_bsp.a(altera_nios2_qsys_irq.o)
 .debug_pubnames
                0x00001cc5       0x3e ../DE2_115_Audio_bsp/\libhal_bsp.a(altera_avalon_cfi_flash_amd.o)
 .debug_pubnames
                0x00001d03       0x42 ../DE2_115_Audio_bsp/\libhal_bsp.a(altera_avalon_cfi_flash_intel.o)
 .debug_pubnames
                0x00001d45       0x27 ../DE2_115_Audio_bsp/\libhal_bsp.a(alt_icache_flush.o)
 .debug_pubnames
                0x00001d6c       0x2a d:/altera13.0sp1/nios2eds/bin/gnu/h-i686-mingw32/bin/../lib/gcc/nios2-elf/4.1.2/../../../../nios2-elf/lib\libc.a(lib_a-atexit.o)
 .debug_pubnames
                0x00001d96       0x2e d:/altera13.0sp1/nios2eds/bin/gnu/h-i686-mingw32/bin/../lib/gcc/nios2-elf/4.1.2/../../../../nios2-elf/lib\libc.a(lib_a-ctype_.o)
 .debug_pubnames
                0x00001dc4       0x1b d:/altera13.0sp1/nios2eds/bin/gnu/h-i686-mingw32/bin/../lib/gcc/nios2-elf/4.1.2/../../../../nios2-elf/lib\libc.a(lib_a-exit.o)
 .debug_pubnames
                0x00001ddf       0x1d d:/altera13.0sp1/nios2eds/bin/gnu/h-i686-mingw32/bin/../lib/gcc/nios2-elf/4.1.2/../../../../nios2-elf/lib\libc.a(lib_a-memcmp.o)
 .debug_pubnames
                0x00001dfc       0x2a d:/altera13.0sp1/nios2eds/bin/gnu/h-i686-mingw32/bin/../lib/gcc/nios2-elf/4.1.2/../../../../nios2-elf/lib\libc.a(lib_a-__atexit.o)
 .debug_pubnames
                0x00001e26       0x27 d:/altera13.0sp1/nios2eds/bin/gnu/h-i686-mingw32/bin/../lib/gcc/nios2-elf/4.1.2/../../../../nios2-elf/lib\libc.a(lib_a-__call_atexit.o)
 .debug_pubnames
                0x00001e4d       0x1c ../DE2_115_Audio_bsp/\libhal_bsp.a(alt_exit.o)

.debug_info     0x00000000    0x2f06d
 *(.debug_info .gnu.linkonce.wi.*)
 .debug_info    0x00000000       0x5d ../DE2_115_Audio_bsp//obj/HAL/src/crt0.o
 .debug_info    0x0000005d      0x9aa obj/default/AUDIO.o
 .debug_info    0x00000a07      0x4e3 obj/default/I2C.o
 .debug_info    0x00000eea      0xd0f obj/default/LCD.o
 .debug_info    0x00001bf9      0x284 obj/default/LED.o
 .debug_info    0x00001e7d      0x32d obj/default/SEG7.o
 .debug_info    0x000021aa      0x384 obj/default/debug.o
 .debug_info    0x0000252e      0x88a obj/default/main.o
 .debug_info    0x00002db8      0x21c d:/altera13.0sp1/nios2eds/bin/gnu/h-i686-mingw32/bin/../lib/gcc/nios2-elf/4.1.2\libgcc.a(lib2-divmod.o)
 .debug_info    0x00002fd4      0x994 d:/altera13.0sp1/nios2eds/bin/gnu/h-i686-mingw32/bin/../lib/gcc/nios2-elf/4.1.2/../../../../nios2-elf/lib\libc.a(lib_a-fclose.o)
 .debug_info    0x00003968      0x9fe d:/altera13.0sp1/nios2eds/bin/gnu/h-i686-mingw32/bin/../lib/gcc/nios2-elf/4.1.2/../../../../nios2-elf/lib\libc.a(lib_a-fflush.o)
 .debug_info    0x00004366      0xb72 d:/altera13.0sp1/nios2eds/bin/gnu/h-i686-mingw32/bin/../lib/gcc/nios2-elf/4.1.2/../../../../nios2-elf/lib\libc.a(lib_a-findfp.o)
 .debug_info    0x00004ed8      0x9e0 d:/altera13.0sp1/nios2eds/bin/gnu/h-i686-mingw32/bin/../lib/gcc/nios2-elf/4.1.2/../../../../nios2-elf/lib\libc.a(lib_a-fopen.o)
 .debug_info    0x000058b8      0xbc9 d:/altera13.0sp1/nios2eds/bin/gnu/h-i686-mingw32/bin/../lib/gcc/nios2-elf/4.1.2/../../../../nios2-elf/lib\libc.a(lib_a-freer.o)
 .debug_info    0x00006481      0xbdc d:/altera13.0sp1/nios2eds/bin/gnu/h-i686-mingw32/bin/../lib/gcc/nios2-elf/4.1.2/../../../../nios2-elf/lib\libc.a(lib_a-fseek.o)
 .debug_info    0x0000705d      0xafc d:/altera13.0sp1/nios2eds/bin/gnu/h-i686-mingw32/bin/../lib/gcc/nios2-elf/4.1.2/../../../../nios2-elf/lib\libc.a(lib_a-fstatr.o)
 .debug_info    0x00007b59      0xaed d:/altera13.0sp1/nios2eds/bin/gnu/h-i686-mingw32/bin/../lib/gcc/nios2-elf/4.1.2/../../../../nios2-elf/lib\libc.a(lib_a-fwalk.o)
 .debug_info    0x00008646      0xa83 d:/altera13.0sp1/nios2eds/bin/gnu/h-i686-mingw32/bin/../lib/gcc/nios2-elf/4.1.2/../../../../nios2-elf/lib\libc.a(lib_a-fwrite.o)
 .debug_info    0x000090c9      0x93d d:/altera13.0sp1/nios2eds/bin/gnu/h-i686-mingw32/bin/../lib/gcc/nios2-elf/4.1.2/../../../../nios2-elf/lib\libc.a(lib_a-impure.o)
 .debug_info    0x00009a06       0x8c d:/altera13.0sp1/nios2eds/bin/gnu/h-i686-mingw32/bin/../lib/gcc/nios2-elf/4.1.2/../../../../nios2-elf/lib\libc.a(lib_a-int_errno.o)
 .debug_info    0x00009a92      0xb1a d:/altera13.0sp1/nios2eds/bin/gnu/h-i686-mingw32/bin/../lib/gcc/nios2-elf/4.1.2/../../../../nios2-elf/lib\libc.a(lib_a-makebuf.o)
 .debug_info    0x0000a5ac      0xcd0 d:/altera13.0sp1/nios2eds/bin/gnu/h-i686-mingw32/bin/../lib/gcc/nios2-elf/4.1.2/../../../../nios2-elf/lib\libc.a(lib_a-mallocr.o)
 .debug_info    0x0000b27c      0x113 d:/altera13.0sp1/nios2eds/bin/gnu/h-i686-mingw32/bin/../lib/gcc/nios2-elf/4.1.2/../../../../nios2-elf/lib\libc.a(lib_a-memset.o)
 .debug_info    0x0000b38f      0x977 d:/altera13.0sp1/nios2eds/bin/gnu/h-i686-mingw32/bin/../lib/gcc/nios2-elf/4.1.2/../../../../nios2-elf/lib\libc.a(lib_a-openr.o)
 .debug_info    0x0000bd06      0x9d1 d:/altera13.0sp1/nios2eds/bin/gnu/h-i686-mingw32/bin/../lib/gcc/nios2-elf/4.1.2/../../../../nios2-elf/lib\libc.a(lib_a-printf.o)
 .debug_info    0x0000c6d7      0xa25 d:/altera13.0sp1/nios2eds/bin/gnu/h-i686-mingw32/bin/../lib/gcc/nios2-elf/4.1.2/../../../../nios2-elf/lib\libc.a(lib_a-puts.o)
 .debug_info    0x0000d0fc      0x98b d:/altera13.0sp1/nios2eds/bin/gnu/h-i686-mingw32/bin/../lib/gcc/nios2-elf/4.1.2/../../../../nios2-elf/lib\libc.a(lib_a-refill.o)
 .debug_info    0x0000da87      0x962 d:/altera13.0sp1/nios2eds/bin/gnu/h-i686-mingw32/bin/../lib/gcc/nios2-elf/4.1.2/../../../../nios2-elf/lib\libc.a(lib_a-sbrkr.o)
 .debug_info    0x0000e3e9      0xa16 d:/altera13.0sp1/nios2eds/bin/gnu/h-i686-mingw32/bin/../lib/gcc/nios2-elf/4.1.2/../../../../nios2-elf/lib\libc.a(lib_a-sprintf.o)
 .debug_info    0x0000edff      0xaac d:/altera13.0sp1/nios2eds/bin/gnu/h-i686-mingw32/bin/../lib/gcc/nios2-elf/4.1.2/../../../../nios2-elf/lib\libc.a(lib_a-stdio.o)
 .debug_info    0x0000f8ab       0xdb d:/altera13.0sp1/nios2eds/bin/gnu/h-i686-mingw32/bin/../lib/gcc/nios2-elf/4.1.2/../../../../nios2-elf/lib\libc.a(lib_a-strlen.o)
 .debug_info    0x0000f986     0x10d5 d:/altera13.0sp1/nios2eds/bin/gnu/h-i686-mingw32/bin/../lib/gcc/nios2-elf/4.1.2/../../../../nios2-elf/lib\libc.a(lib_a-vfprintf.o)
 .debug_info    0x00010a5b      0xa1b d:/altera13.0sp1/nios2eds/bin/gnu/h-i686-mingw32/bin/../lib/gcc/nios2-elf/4.1.2/../../../../nios2-elf/lib\libc.a(lib_a-vsnprintf.o)
 .debug_info    0x00011476      0x993 d:/altera13.0sp1/nios2eds/bin/gnu/h-i686-mingw32/bin/../lib/gcc/nios2-elf/4.1.2/../../../../nios2-elf/lib\libc.a(lib_a-writer.o)
 .debug_info    0x00011e09      0x95d d:/altera13.0sp1/nios2eds/bin/gnu/h-i686-mingw32/bin/../lib/gcc/nios2-elf/4.1.2/../../../../nios2-elf/lib\libc.a(lib_a-wsetup.o)
 .debug_info    0x00012766      0x958 d:/altera13.0sp1/nios2eds/bin/gnu/h-i686-mingw32/bin/../lib/gcc/nios2-elf/4.1.2/../../../../nios2-elf/lib\libc.a(lib_a-closer.o)
 .debug_info    0x000130be      0xd6f d:/altera13.0sp1/nios2eds/bin/gnu/h-i686-mingw32/bin/../lib/gcc/nios2-elf/4.1.2/../../../../nios2-elf/lib\libc.a(lib_a-dtoa.o)
 .debug_info    0x00013e2d      0x977 d:/altera13.0sp1/nios2eds/bin/gnu/h-i686-mingw32/bin/../lib/gcc/nios2-elf/4.1.2/../../../../nios2-elf/lib\libc.a(lib_a-flags.o)
 .debug_info    0x000147a4      0xa88 d:/altera13.0sp1/nios2eds/bin/gnu/h-i686-mingw32/bin/../lib/gcc/nios2-elf/4.1.2/../../../../nios2-elf/lib\libc.a(lib_a-fvwrite.o)
 .debug_info    0x0001522c      0x958 d:/altera13.0sp1/nios2eds/bin/gnu/h-i686-mingw32/bin/../lib/gcc/nios2-elf/4.1.2/../../../../nios2-elf/lib\libc.a(lib_a-isattyr.o)
 .debug_info    0x00015b84      0xb97 d:/altera13.0sp1/nios2eds/bin/gnu/h-i686-mingw32/bin/../lib/gcc/nios2-elf/4.1.2/../../../../nios2-elf/lib\libc.a(lib_a-locale.o)
 .debug_info    0x0001671b      0x981 d:/altera13.0sp1/nios2eds/bin/gnu/h-i686-mingw32/bin/../lib/gcc/nios2-elf/4.1.2/../../../../nios2-elf/lib\libc.a(lib_a-lseekr.o)
 .debug_info    0x0001709c      0x138 d:/altera13.0sp1/nios2eds/bin/gnu/h-i686-mingw32/bin/../lib/gcc/nios2-elf/4.1.2/../../../../nios2-elf/lib\libc.a(lib_a-memchr.o)
 .debug_info    0x000171d4      0x106 d:/altera13.0sp1/nios2eds/bin/gnu/h-i686-mingw32/bin/../lib/gcc/nios2-elf/4.1.2/../../../../nios2-elf/lib\libc.a(lib_a-memcpy.o)
 .debug_info    0x000172da      0x13e d:/altera13.0sp1/nios2eds/bin/gnu/h-i686-mingw32/bin/../lib/gcc/nios2-elf/4.1.2/../../../../nios2-elf/lib\libc.a(lib_a-memmove.o)
 .debug_info    0x00017418     0x1437 d:/altera13.0sp1/nios2eds/bin/gnu/h-i686-mingw32/bin/../lib/gcc/nios2-elf/4.1.2/../../../../nios2-elf/lib\libc.a(lib_a-mprec.o)
 .debug_info    0x0001884f      0x98c d:/altera13.0sp1/nios2eds/bin/gnu/h-i686-mingw32/bin/../lib/gcc/nios2-elf/4.1.2/../../../../nios2-elf/lib\libc.a(lib_a-readr.o)
 .debug_info    0x000191db      0xbd7 d:/altera13.0sp1/nios2eds/bin/gnu/h-i686-mingw32/bin/../lib/gcc/nios2-elf/4.1.2/../../../../nios2-elf/lib\libc.a(lib_a-reallocr.o)
 .debug_info    0x00019db2       0xd7 d:/altera13.0sp1/nios2eds/bin/gnu/h-i686-mingw32/bin/../lib/gcc/nios2-elf/4.1.2/../../../../nios2-elf/lib\libc.a(lib_a-s_isinfd.o)
 .debug_info    0x00019e89       0xd5 d:/altera13.0sp1/nios2eds/bin/gnu/h-i686-mingw32/bin/../lib/gcc/nios2-elf/4.1.2/../../../../nios2-elf/lib\libc.a(lib_a-s_isnand.o)
 .debug_info    0x00019f5e       0xdd d:/altera13.0sp1/nios2eds/bin/gnu/h-i686-mingw32/bin/../lib/gcc/nios2-elf/4.1.2/../../../../nios2-elf/lib\libc.a(lib_a-strcmp.o)
 .debug_info    0x0001a03b      0xa1b d:/altera13.0sp1/nios2eds/bin/gnu/h-i686-mingw32/bin/../lib/gcc/nios2-elf/4.1.2/../../../../nios2-elf/lib\libc.a(lib_a-callocr.o)
 .debug_info    0x0001aa56      0x724 d:/altera13.0sp1/nios2eds/bin/gnu/h-i686-mingw32/bin/../lib/gcc/nios2-elf/4.1.2\libgcc.a(_udivdi3.o)
 .debug_info    0x0001b17a      0x751 d:/altera13.0sp1/nios2eds/bin/gnu/h-i686-mingw32/bin/../lib/gcc/nios2-elf/4.1.2\libgcc.a(_umoddi3.o)
 .debug_info    0x0001b8cb      0x493 d:/altera13.0sp1/nios2eds/bin/gnu/h-i686-mingw32/bin/../lib/gcc/nios2-elf/4.1.2\libgcc.a(_addsub_df.o)
 .debug_info    0x0001bd5e      0x488 d:/altera13.0sp1/nios2eds/bin/gnu/h-i686-mingw32/bin/../lib/gcc/nios2-elf/4.1.2\libgcc.a(_mul_df.o)
 .debug_info    0x0001c1e6      0x39b d:/altera13.0sp1/nios2eds/bin/gnu/h-i686-mingw32/bin/../lib/gcc/nios2-elf/4.1.2\libgcc.a(_div_df.o)
 .debug_info    0x0001c581      0x29d d:/altera13.0sp1/nios2eds/bin/gnu/h-i686-mingw32/bin/../lib/gcc/nios2-elf/4.1.2\libgcc.a(_eq_df.o)
 .debug_info    0x0001c81e      0x29d d:/altera13.0sp1/nios2eds/bin/gnu/h-i686-mingw32/bin/../lib/gcc/nios2-elf/4.1.2\libgcc.a(_ne_df.o)
 .debug_info    0x0001cabb      0x29d d:/altera13.0sp1/nios2eds/bin/gnu/h-i686-mingw32/bin/../lib/gcc/nios2-elf/4.1.2\libgcc.a(_gt_df.o)
 .debug_info    0x0001cd58      0x29d d:/altera13.0sp1/nios2eds/bin/gnu/h-i686-mingw32/bin/../lib/gcc/nios2-elf/4.1.2\libgcc.a(_ge_df.o)
 .debug_info    0x0001cff5      0x29d d:/altera13.0sp1/nios2eds/bin/gnu/h-i686-mingw32/bin/../lib/gcc/nios2-elf/4.1.2\libgcc.a(_lt_df.o)
 .debug_info    0x0001d292      0x218 d:/altera13.0sp1/nios2eds/bin/gnu/h-i686-mingw32/bin/../lib/gcc/nios2-elf/4.1.2\libgcc.a(_si_to_df.o)
 .debug_info    0x0001d4aa      0x2cd d:/altera13.0sp1/nios2eds/bin/gnu/h-i686-mingw32/bin/../lib/gcc/nios2-elf/4.1.2\libgcc.a(_df_to_si.o)
 .debug_info    0x0001d777      0x164 d:/altera13.0sp1/nios2eds/bin/gnu/h-i686-mingw32/bin/../lib/gcc/nios2-elf/4.1.2\libgcc.a(_thenan_df.o)
 .debug_info    0x0001d8db      0x213 d:/altera13.0sp1/nios2eds/bin/gnu/h-i686-mingw32/bin/../lib/gcc/nios2-elf/4.1.2\libgcc.a(_usi_to_df.o)
 .debug_info    0x0001daee      0x215 d:/altera13.0sp1/nios2eds/bin/gnu/h-i686-mingw32/bin/../lib/gcc/nios2-elf/4.1.2\libgcc.a(_muldi3.o)
 .debug_info    0x0001dd03       0xc9 d:/altera13.0sp1/nios2eds/bin/gnu/h-i686-mingw32/bin/../lib/gcc/nios2-elf/4.1.2\libgcc.a(_clz.o)
 .debug_info    0x0001ddcc      0x130 d:/altera13.0sp1/nios2eds/bin/gnu/h-i686-mingw32/bin/../lib/gcc/nios2-elf/4.1.2\libgcc.a(_clzsi2.o)
 .debug_info    0x0001defc      0x2fc d:/altera13.0sp1/nios2eds/bin/gnu/h-i686-mingw32/bin/../lib/gcc/nios2-elf/4.1.2\libgcc.a(_pack_df.o)
 .debug_info    0x0001e1f8      0x268 d:/altera13.0sp1/nios2eds/bin/gnu/h-i686-mingw32/bin/../lib/gcc/nios2-elf/4.1.2\libgcc.a(_unpack_df.o)
 .debug_info    0x0001e460      0x21b d:/altera13.0sp1/nios2eds/bin/gnu/h-i686-mingw32/bin/../lib/gcc/nios2-elf/4.1.2\libgcc.a(_fpcmp_parts_df.o)
 .debug_info    0x0001e67b      0x449 ../DE2_115_Audio_bsp/\libhal_bsp.a(alt_close.o)
 .debug_info    0x0001eac4      0x661 ../DE2_115_Audio_bsp/\libhal_bsp.a(alt_dev.o)
 .debug_info    0x0001f125      0x146 ../DE2_115_Audio_bsp/\libhal_bsp.a(alt_errno.o)
 .debug_info    0x0001f26b      0x642 ../DE2_115_Audio_bsp/\libhal_bsp.a(alt_fstat.o)
 .debug_info    0x0001f8ad      0x40c ../DE2_115_Audio_bsp/\libhal_bsp.a(alt_irq_register.o)
 .debug_info    0x0001fcb9      0x149 ../DE2_115_Audio_bsp/\libhal_bsp.a(alt_irq_vars.o)
 .debug_info    0x0001fe02      0x648 ../DE2_115_Audio_bsp/\libhal_bsp.a(alt_isatty.o)
 .debug_info    0x0002044a      0x26f ../DE2_115_Audio_bsp/\libhal_bsp.a(alt_load.o)
 .debug_info    0x000206b9      0x47c ../DE2_115_Audio_bsp/\libhal_bsp.a(alt_lseek.o)
 .debug_info    0x00020b35      0x207 ../DE2_115_Audio_bsp/\libhal_bsp.a(alt_main.o)
 .debug_info    0x00020d3c      0xbfa ../DE2_115_Audio_bsp/\libhal_bsp.a(alt_malloc_lock.o)
 .debug_info    0x00021936      0x507 ../DE2_115_Audio_bsp/\libhal_bsp.a(alt_open.o)
 .debug_info    0x00021e3d      0x66c ../DE2_115_Audio_bsp/\libhal_bsp.a(alt_read.o)
 .debug_info    0x000224a9      0x3d4 ../DE2_115_Audio_bsp/\libhal_bsp.a(alt_release_fd.o)
 .debug_info    0x0002287d      0x299 ../DE2_115_Audio_bsp/\libhal_bsp.a(alt_sbrk.o)
 .debug_info    0x00022b16      0x14a ../DE2_115_Audio_bsp/\libhal_bsp.a(alt_usleep.o)
 .debug_info    0x00022c60      0x675 ../DE2_115_Audio_bsp/\libhal_bsp.a(alt_write.o)
 .debug_info    0x000232d5      0xdeb ../DE2_115_Audio_bsp/\libhal_bsp.a(alt_sys_init.o)
 .debug_info    0x000240c0      0xb2b ../DE2_115_Audio_bsp/\libhal_bsp.a(altera_avalon_cfi_flash.o)
 .debug_info    0x00024beb      0xe17 ../DE2_115_Audio_bsp/\libhal_bsp.a(altera_avalon_cfi_flash_table.o)
 .debug_info    0x00025a02      0x7bb ../DE2_115_Audio_bsp/\libhal_bsp.a(altera_avalon_jtag_uart_fd.o)
 .debug_info    0x000261bd      0x5e3 ../DE2_115_Audio_bsp/\libhal_bsp.a(altera_avalon_jtag_uart_init.o)
 .debug_info    0x000267a0      0x425 ../DE2_115_Audio_bsp/\libhal_bsp.a(altera_avalon_jtag_uart_ioctl.o)
 .debug_info    0x00026bc5      0x528 ../DE2_115_Audio_bsp/\libhal_bsp.a(altera_avalon_jtag_uart_read.o)
 .debug_info    0x000270ed      0x520 ../DE2_115_Audio_bsp/\libhal_bsp.a(altera_avalon_jtag_uart_write.o)
 .debug_info    0x0002760d      0x8d0 ../DE2_115_Audio_bsp/\libhal_bsp.a(altera_avalon_lcd_16207.o)
 .debug_info    0x00027edd      0x6f4 ../DE2_115_Audio_bsp/\libhal_bsp.a(altera_avalon_lcd_16207_fd.o)
 .debug_info    0x000285d1      0x424 ../DE2_115_Audio_bsp/\libhal_bsp.a(alt_alarm_start.o)
 .debug_info    0x000289f5      0x18d ../DE2_115_Audio_bsp/\libhal_bsp.a(alt_busy_sleep.o)
 .debug_info    0x00028b82      0x186 ../DE2_115_Audio_bsp/\libhal_bsp.a(alt_dcache_flush.o)
 .debug_info    0x00028d08      0x151 ../DE2_115_Audio_bsp/\libhal_bsp.a(alt_dcache_flush_all.o)
 .debug_info    0x00028e59      0x299 ../DE2_115_Audio_bsp/\libhal_bsp.a(alt_dev_llist_insert.o)
 .debug_info    0x000290f2       0xf1 ../DE2_115_Audio_bsp/\libhal_bsp.a(alt_do_ctors.o)
 .debug_info    0x000291e3       0xf0 ../DE2_115_Audio_bsp/\libhal_bsp.a(alt_do_dtors.o)
 .debug_info    0x000292d3      0x3fa ../DE2_115_Audio_bsp/\libhal_bsp.a(alt_find_dev.o)
 .debug_info    0x000296cd      0x401 ../DE2_115_Audio_bsp/\libhal_bsp.a(alt_find_file.o)
 .debug_info    0x00029ace      0x57b ../DE2_115_Audio_bsp/\libhal_bsp.a(alt_flash_dev.o)
 .debug_info    0x0002a049      0x442 ../DE2_115_Audio_bsp/\libhal_bsp.a(alt_get_fd.o)
 .debug_info    0x0002a48b      0x13e ../DE2_115_Audio_bsp/\libhal_bsp.a(alt_icache_flush_all.o)
 .debug_info    0x0002a5c9      0x475 ../DE2_115_Audio_bsp/\libhal_bsp.a(alt_iic.o)
 .debug_info    0x0002aa3e      0x2f6 ../DE2_115_Audio_bsp/\libhal_bsp.a(alt_iic_isr_register.o)
 .debug_info    0x0002ad34      0x677 ../DE2_115_Audio_bsp/\libhal_bsp.a(alt_io_redirect.o)
 .debug_info    0x0002b3ab       0x66 ../DE2_115_Audio_bsp/\libhal_bsp.a(alt_irq_entry.o)
 .debug_info    0x0002b411      0x257 ../DE2_115_Audio_bsp/\libhal_bsp.a(alt_irq_handler.o)
 .debug_info    0x0002b668      0x3e0 ../DE2_115_Audio_bsp/\libhal_bsp.a(alt_tick.o)
 .debug_info    0x0002ba48      0x145 ../DE2_115_Audio_bsp/\libhal_bsp.a(altera_nios2_qsys_irq.o)
 .debug_info    0x0002bb8d      0x8cb ../DE2_115_Audio_bsp/\libhal_bsp.a(altera_avalon_cfi_flash_amd.o)
 .debug_info    0x0002c458      0x8c1 ../DE2_115_Audio_bsp/\libhal_bsp.a(altera_avalon_cfi_flash_intel.o)
 .debug_info    0x0002cd19       0x6c ../DE2_115_Audio_bsp/\libhal_bsp.a(alt_exception_entry.o)
 .debug_info    0x0002cd85      0x186 ../DE2_115_Audio_bsp/\libhal_bsp.a(alt_icache_flush.o)
 .debug_info    0x0002cf0b      0x181 d:/altera13.0sp1/nios2eds/bin/gnu/h-i686-mingw32/bin/../lib/gcc/nios2-elf/4.1.2/../../../../nios2-elf/lib\libc.a(lib_a-atexit.o)
 .debug_info    0x0002d08c       0xa0 d:/altera13.0sp1/nios2eds/bin/gnu/h-i686-mingw32/bin/../lib/gcc/nios2-elf/4.1.2/../../../../nios2-elf/lib\libc.a(lib_a-ctype_.o)
 .debug_info    0x0002d12c      0x93f d:/altera13.0sp1/nios2eds/bin/gnu/h-i686-mingw32/bin/../lib/gcc/nios2-elf/4.1.2/../../../../nios2-elf/lib\libc.a(lib_a-exit.o)
 .debug_info    0x0002da6b      0x115 d:/altera13.0sp1/nios2eds/bin/gnu/h-i686-mingw32/bin/../lib/gcc/nios2-elf/4.1.2/../../../../nios2-elf/lib\libc.a(lib_a-memcmp.o)
 .debug_info    0x0002db80      0x99c d:/altera13.0sp1/nios2eds/bin/gnu/h-i686-mingw32/bin/../lib/gcc/nios2-elf/4.1.2/../../../../nios2-elf/lib\libc.a(lib_a-__atexit.o)
 .debug_info    0x0002e51c      0x9e2 d:/altera13.0sp1/nios2eds/bin/gnu/h-i686-mingw32/bin/../lib/gcc/nios2-elf/4.1.2/../../../../nios2-elf/lib\libc.a(lib_a-__call_atexit.o)
 .debug_info    0x0002eefe      0x16f ../DE2_115_Audio_bsp/\libhal_bsp.a(alt_exit.o)

.debug_abbrev   0x00000000     0x99fa
 *(.debug_abbrev)
 .debug_abbrev  0x00000000       0x12 ../DE2_115_Audio_bsp//obj/HAL/src/crt0.o
 .debug_abbrev  0x00000012      0x15e obj/default/AUDIO.o
 .debug_abbrev  0x00000170       0xe2 obj/default/I2C.o
 .debug_abbrev  0x00000252      0x1c1 obj/default/LCD.o
 .debug_abbrev  0x00000413       0xc0 obj/default/LED.o
 .debug_abbrev  0x000004d3       0xdb obj/default/SEG7.o
 .debug_abbrev  0x000005ae       0xfa obj/default/debug.o
 .debug_abbrev  0x000006a8      0x1c3 obj/default/main.o
 .debug_abbrev  0x0000086b       0xe0 d:/altera13.0sp1/nios2eds/bin/gnu/h-i686-mingw32/bin/../lib/gcc/nios2-elf/4.1.2\libgcc.a(lib2-divmod.o)
 .debug_abbrev  0x0000094b      0x1a7 d:/altera13.0sp1/nios2eds/bin/gnu/h-i686-mingw32/bin/../lib/gcc/nios2-elf/4.1.2/../../../../nios2-elf/lib\libc.a(lib_a-fclose.o)
 .debug_abbrev  0x00000af2      0x1c6 d:/altera13.0sp1/nios2eds/bin/gnu/h-i686-mingw32/bin/../lib/gcc/nios2-elf/4.1.2/../../../../nios2-elf/lib\libc.a(lib_a-fflush.o)
 .debug_abbrev  0x00000cb8      0x24c d:/altera13.0sp1/nios2eds/bin/gnu/h-i686-mingw32/bin/../lib/gcc/nios2-elf/4.1.2/../../../../nios2-elf/lib\libc.a(lib_a-findfp.o)
 .debug_abbrev  0x00000f04      0x1b6 d:/altera13.0sp1/nios2eds/bin/gnu/h-i686-mingw32/bin/../lib/gcc/nios2-elf/4.1.2/../../../../nios2-elf/lib\libc.a(lib_a-fopen.o)
 .debug_abbrev  0x000010ba      0x1d9 d:/altera13.0sp1/nios2eds/bin/gnu/h-i686-mingw32/bin/../lib/gcc/nios2-elf/4.1.2/../../../../nios2-elf/lib\libc.a(lib_a-freer.o)
 .debug_abbrev  0x00001293      0x208 d:/altera13.0sp1/nios2eds/bin/gnu/h-i686-mingw32/bin/../lib/gcc/nios2-elf/4.1.2/../../../../nios2-elf/lib\libc.a(lib_a-fseek.o)
 .debug_abbrev  0x0000149b      0x18e d:/altera13.0sp1/nios2eds/bin/gnu/h-i686-mingw32/bin/../lib/gcc/nios2-elf/4.1.2/../../../../nios2-elf/lib\libc.a(lib_a-fstatr.o)
 .debug_abbrev  0x00001629      0x1e3 d:/altera13.0sp1/nios2eds/bin/gnu/h-i686-mingw32/bin/../lib/gcc/nios2-elf/4.1.2/../../../../nios2-elf/lib\libc.a(lib_a-fwalk.o)
 .debug_abbrev  0x0000180c      0x1b1 d:/altera13.0sp1/nios2eds/bin/gnu/h-i686-mingw32/bin/../lib/gcc/nios2-elf/4.1.2/../../../../nios2-elf/lib\libc.a(lib_a-fwrite.o)
 .debug_abbrev  0x000019bd      0x157 d:/altera13.0sp1/nios2eds/bin/gnu/h-i686-mingw32/bin/../lib/gcc/nios2-elf/4.1.2/../../../../nios2-elf/lib\libc.a(lib_a-impure.o)
 .debug_abbrev  0x00001b14       0x3b d:/altera13.0sp1/nios2eds/bin/gnu/h-i686-mingw32/bin/../lib/gcc/nios2-elf/4.1.2/../../../../nios2-elf/lib\libc.a(lib_a-int_errno.o)
 .debug_abbrev  0x00001b4f      0x197 d:/altera13.0sp1/nios2eds/bin/gnu/h-i686-mingw32/bin/../lib/gcc/nios2-elf/4.1.2/../../../../nios2-elf/lib\libc.a(lib_a-makebuf.o)
 .debug_abbrev  0x00001ce6      0x216 d:/altera13.0sp1/nios2eds/bin/gnu/h-i686-mingw32/bin/../lib/gcc/nios2-elf/4.1.2/../../../../nios2-elf/lib\libc.a(lib_a-mallocr.o)
 .debug_abbrev  0x00001efc       0xb8 d:/altera13.0sp1/nios2eds/bin/gnu/h-i686-mingw32/bin/../lib/gcc/nios2-elf/4.1.2/../../../../nios2-elf/lib\libc.a(lib_a-memset.o)
 .debug_abbrev  0x00001fb4      0x18e d:/altera13.0sp1/nios2eds/bin/gnu/h-i686-mingw32/bin/../lib/gcc/nios2-elf/4.1.2/../../../../nios2-elf/lib\libc.a(lib_a-openr.o)
 .debug_abbrev  0x00002142      0x191 d:/altera13.0sp1/nios2eds/bin/gnu/h-i686-mingw32/bin/../lib/gcc/nios2-elf/4.1.2/../../../../nios2-elf/lib\libc.a(lib_a-printf.o)
 .debug_abbrev  0x000022d3      0x1ac d:/altera13.0sp1/nios2eds/bin/gnu/h-i686-mingw32/bin/../lib/gcc/nios2-elf/4.1.2/../../../../nios2-elf/lib\libc.a(lib_a-puts.o)
 .debug_abbrev  0x0000247f      0x187 d:/altera13.0sp1/nios2eds/bin/gnu/h-i686-mingw32/bin/../lib/gcc/nios2-elf/4.1.2/../../../../nios2-elf/lib\libc.a(lib_a-refill.o)
 .debug_abbrev  0x00002606      0x18c d:/altera13.0sp1/nios2eds/bin/gnu/h-i686-mingw32/bin/../lib/gcc/nios2-elf/4.1.2/../../../../nios2-elf/lib\libc.a(lib_a-sbrkr.o)
 .debug_abbrev  0x00002792      0x191 d:/altera13.0sp1/nios2eds/bin/gnu/h-i686-mingw32/bin/../lib/gcc/nios2-elf/4.1.2/../../../../nios2-elf/lib\libc.a(lib_a-sprintf.o)
 .debug_abbrev  0x00002923      0x1c9 d:/altera13.0sp1/nios2eds/bin/gnu/h-i686-mingw32/bin/../lib/gcc/nios2-elf/4.1.2/../../../../nios2-elf/lib\libc.a(lib_a-stdio.o)
 .debug_abbrev  0x00002aec       0x8b d:/altera13.0sp1/nios2eds/bin/gnu/h-i686-mingw32/bin/../lib/gcc/nios2-elf/4.1.2/../../../../nios2-elf/lib\libc.a(lib_a-strlen.o)
 .debug_abbrev  0x00002b77      0x30a d:/altera13.0sp1/nios2eds/bin/gnu/h-i686-mingw32/bin/../lib/gcc/nios2-elf/4.1.2/../../../../nios2-elf/lib\libc.a(lib_a-vfprintf.o)
 .debug_abbrev  0x00002e81      0x1ac d:/altera13.0sp1/nios2eds/bin/gnu/h-i686-mingw32/bin/../lib/gcc/nios2-elf/4.1.2/../../../../nios2-elf/lib\libc.a(lib_a-vsnprintf.o)
 .debug_abbrev  0x0000302d      0x184 d:/altera13.0sp1/nios2eds/bin/gnu/h-i686-mingw32/bin/../lib/gcc/nios2-elf/4.1.2/../../../../nios2-elf/lib\libc.a(lib_a-writer.o)
 .debug_abbrev  0x000031b1      0x170 d:/altera13.0sp1/nios2eds/bin/gnu/h-i686-mingw32/bin/../lib/gcc/nios2-elf/4.1.2/../../../../nios2-elf/lib\libc.a(lib_a-wsetup.o)
 .debug_abbrev  0x00003321      0x17f d:/altera13.0sp1/nios2eds/bin/gnu/h-i686-mingw32/bin/../lib/gcc/nios2-elf/4.1.2/../../../../nios2-elf/lib\libc.a(lib_a-closer.o)
 .debug_abbrev  0x000034a0      0x232 d:/altera13.0sp1/nios2eds/bin/gnu/h-i686-mingw32/bin/../lib/gcc/nios2-elf/4.1.2/../../../../nios2-elf/lib\libc.a(lib_a-dtoa.o)
 .debug_abbrev  0x000036d2      0x17d d:/altera13.0sp1/nios2eds/bin/gnu/h-i686-mingw32/bin/../lib/gcc/nios2-elf/4.1.2/../../../../nios2-elf/lib\libc.a(lib_a-flags.o)
 .debug_abbrev  0x0000384f      0x1a3 d:/altera13.0sp1/nios2eds/bin/gnu/h-i686-mingw32/bin/../lib/gcc/nios2-elf/4.1.2/../../../../nios2-elf/lib\libc.a(lib_a-fvwrite.o)
 .debug_abbrev  0x000039f2      0x17f d:/altera13.0sp1/nios2eds/bin/gnu/h-i686-mingw32/bin/../lib/gcc/nios2-elf/4.1.2/../../../../nios2-elf/lib\libc.a(lib_a-isattyr.o)
 .debug_abbrev  0x00003b71      0x1ed d:/altera13.0sp1/nios2eds/bin/gnu/h-i686-mingw32/bin/../lib/gcc/nios2-elf/4.1.2/../../../../nios2-elf/lib\libc.a(lib_a-locale.o)
 .debug_abbrev  0x00003d5e      0x18e d:/altera13.0sp1/nios2eds/bin/gnu/h-i686-mingw32/bin/../lib/gcc/nios2-elf/4.1.2/../../../../nios2-elf/lib\libc.a(lib_a-lseekr.o)
 .debug_abbrev  0x00003eec       0xb5 d:/altera13.0sp1/nios2eds/bin/gnu/h-i686-mingw32/bin/../lib/gcc/nios2-elf/4.1.2/../../../../nios2-elf/lib\libc.a(lib_a-memchr.o)
 .debug_abbrev  0x00003fa1       0xb5 d:/altera13.0sp1/nios2eds/bin/gnu/h-i686-mingw32/bin/../lib/gcc/nios2-elf/4.1.2/../../../../nios2-elf/lib\libc.a(lib_a-memcpy.o)
 .debug_abbrev  0x00004056       0xb5 d:/altera13.0sp1/nios2eds/bin/gnu/h-i686-mingw32/bin/../lib/gcc/nios2-elf/4.1.2/../../../../nios2-elf/lib\libc.a(lib_a-memmove.o)
 .debug_abbrev  0x0000410b      0x297 d:/altera13.0sp1/nios2eds/bin/gnu/h-i686-mingw32/bin/../lib/gcc/nios2-elf/4.1.2/../../../../nios2-elf/lib\libc.a(lib_a-mprec.o)
 .debug_abbrev  0x000043a2      0x17f d:/altera13.0sp1/nios2eds/bin/gnu/h-i686-mingw32/bin/../lib/gcc/nios2-elf/4.1.2/../../../../nios2-elf/lib\libc.a(lib_a-readr.o)
 .debug_abbrev  0x00004521      0x1c3 d:/altera13.0sp1/nios2eds/bin/gnu/h-i686-mingw32/bin/../lib/gcc/nios2-elf/4.1.2/../../../../nios2-elf/lib\libc.a(lib_a-reallocr.o)
 .debug_abbrev  0x000046e4       0x79 d:/altera13.0sp1/nios2eds/bin/gnu/h-i686-mingw32/bin/../lib/gcc/nios2-elf/4.1.2/../../../../nios2-elf/lib\libc.a(lib_a-s_isinfd.o)
 .debug_abbrev  0x0000475d       0x79 d:/altera13.0sp1/nios2eds/bin/gnu/h-i686-mingw32/bin/../lib/gcc/nios2-elf/4.1.2/../../../../nios2-elf/lib\libc.a(lib_a-s_isnand.o)
 .debug_abbrev  0x000047d6       0x80 d:/altera13.0sp1/nios2eds/bin/gnu/h-i686-mingw32/bin/../lib/gcc/nios2-elf/4.1.2/../../../../nios2-elf/lib\libc.a(lib_a-strcmp.o)
 .debug_abbrev  0x00004856      0x1b8 d:/altera13.0sp1/nios2eds/bin/gnu/h-i686-mingw32/bin/../lib/gcc/nios2-elf/4.1.2/../../../../nios2-elf/lib\libc.a(lib_a-callocr.o)
 .debug_abbrev  0x00004a0e      0x16b d:/altera13.0sp1/nios2eds/bin/gnu/h-i686-mingw32/bin/../lib/gcc/nios2-elf/4.1.2\libgcc.a(_udivdi3.o)
 .debug_abbrev  0x00004b79      0x18e d:/altera13.0sp1/nios2eds/bin/gnu/h-i686-mingw32/bin/../lib/gcc/nios2-elf/4.1.2\libgcc.a(_umoddi3.o)
 .debug_abbrev  0x00004d07      0x1d2 d:/altera13.0sp1/nios2eds/bin/gnu/h-i686-mingw32/bin/../lib/gcc/nios2-elf/4.1.2\libgcc.a(_addsub_df.o)
 .debug_abbrev  0x00004ed9      0x204 d:/altera13.0sp1/nios2eds/bin/gnu/h-i686-mingw32/bin/../lib/gcc/nios2-elf/4.1.2\libgcc.a(_mul_df.o)
 .debug_abbrev  0x000050dd      0x1e3 d:/altera13.0sp1/nios2eds/bin/gnu/h-i686-mingw32/bin/../lib/gcc/nios2-elf/4.1.2\libgcc.a(_div_df.o)
 .debug_abbrev  0x000052c0      0x151 d:/altera13.0sp1/nios2eds/bin/gnu/h-i686-mingw32/bin/../lib/gcc/nios2-elf/4.1.2\libgcc.a(_eq_df.o)
 .debug_abbrev  0x00005411      0x151 d:/altera13.0sp1/nios2eds/bin/gnu/h-i686-mingw32/bin/../lib/gcc/nios2-elf/4.1.2\libgcc.a(_ne_df.o)
 .debug_abbrev  0x00005562      0x151 d:/altera13.0sp1/nios2eds/bin/gnu/h-i686-mingw32/bin/../lib/gcc/nios2-elf/4.1.2\libgcc.a(_gt_df.o)
 .debug_abbrev  0x000056b3      0x151 d:/altera13.0sp1/nios2eds/bin/gnu/h-i686-mingw32/bin/../lib/gcc/nios2-elf/4.1.2\libgcc.a(_ge_df.o)
 .debug_abbrev  0x00005804      0x151 d:/altera13.0sp1/nios2eds/bin/gnu/h-i686-mingw32/bin/../lib/gcc/nios2-elf/4.1.2\libgcc.a(_lt_df.o)
 .debug_abbrev  0x00005955      0x13f d:/altera13.0sp1/nios2eds/bin/gnu/h-i686-mingw32/bin/../lib/gcc/nios2-elf/4.1.2\libgcc.a(_si_to_df.o)
 .debug_abbrev  0x00005a94      0x176 d:/altera13.0sp1/nios2eds/bin/gnu/h-i686-mingw32/bin/../lib/gcc/nios2-elf/4.1.2\libgcc.a(_df_to_si.o)
 .debug_abbrev  0x00005c0a       0xba d:/altera13.0sp1/nios2eds/bin/gnu/h-i686-mingw32/bin/../lib/gcc/nios2-elf/4.1.2\libgcc.a(_thenan_df.o)
 .debug_abbrev  0x00005cc4      0x155 d:/altera13.0sp1/nios2eds/bin/gnu/h-i686-mingw32/bin/../lib/gcc/nios2-elf/4.1.2\libgcc.a(_usi_to_df.o)
 .debug_abbrev  0x00005e19       0xee d:/altera13.0sp1/nios2eds/bin/gnu/h-i686-mingw32/bin/../lib/gcc/nios2-elf/4.1.2\libgcc.a(_muldi3.o)
 .debug_abbrev  0x00005f07       0x61 d:/altera13.0sp1/nios2eds/bin/gnu/h-i686-mingw32/bin/../lib/gcc/nios2-elf/4.1.2\libgcc.a(_clz.o)
 .debug_abbrev  0x00005f68       0xb9 d:/altera13.0sp1/nios2eds/bin/gnu/h-i686-mingw32/bin/../lib/gcc/nios2-elf/4.1.2\libgcc.a(_clzsi2.o)
 .debug_abbrev  0x00006021      0x1b1 d:/altera13.0sp1/nios2eds/bin/gnu/h-i686-mingw32/bin/../lib/gcc/nios2-elf/4.1.2\libgcc.a(_pack_df.o)
 .debug_abbrev  0x000061d2      0x149 d:/altera13.0sp1/nios2eds/bin/gnu/h-i686-mingw32/bin/../lib/gcc/nios2-elf/4.1.2\libgcc.a(_unpack_df.o)
 .debug_abbrev  0x0000631b      0x132 d:/altera13.0sp1/nios2eds/bin/gnu/h-i686-mingw32/bin/../lib/gcc/nios2-elf/4.1.2\libgcc.a(_fpcmp_parts_df.o)
 .debug_abbrev  0x0000644d       0xfb ../DE2_115_Audio_bsp/\libhal_bsp.a(alt_close.o)
 .debug_abbrev  0x00006548       0xc7 ../DE2_115_Audio_bsp/\libhal_bsp.a(alt_dev.o)
 .debug_abbrev  0x0000660f       0x5e ../DE2_115_Audio_bsp/\libhal_bsp.a(alt_errno.o)
 .debug_abbrev  0x0000666d       0xfb ../DE2_115_Audio_bsp/\libhal_bsp.a(alt_fstat.o)
 .debug_abbrev  0x00006768      0x180 ../DE2_115_Audio_bsp/\libhal_bsp.a(alt_irq_register.o)
 .debug_abbrev  0x000068e8       0x44 ../DE2_115_Audio_bsp/\libhal_bsp.a(alt_irq_vars.o)
 .debug_abbrev  0x0000692c       0xfb ../DE2_115_Audio_bsp/\libhal_bsp.a(alt_isatty.o)
 .debug_abbrev  0x00006a27       0x88 ../DE2_115_Audio_bsp/\libhal_bsp.a(alt_load.o)
 .debug_abbrev  0x00006aaf       0xfb ../DE2_115_Audio_bsp/\libhal_bsp.a(alt_lseek.o)
 .debug_abbrev  0x00006baa       0xb7 ../DE2_115_Audio_bsp/\libhal_bsp.a(alt_main.o)
 .debug_abbrev  0x00006c61      0x181 ../DE2_115_Audio_bsp/\libhal_bsp.a(alt_malloc_lock.o)
 .debug_abbrev  0x00006de2      0x112 ../DE2_115_Audio_bsp/\libhal_bsp.a(alt_open.o)
 .debug_abbrev  0x00006ef4       0xfb ../DE2_115_Audio_bsp/\libhal_bsp.a(alt_read.o)
 .debug_abbrev  0x00006fef       0xc1 ../DE2_115_Audio_bsp/\libhal_bsp.a(alt_release_fd.o)
 .debug_abbrev  0x000070b0      0x115 ../DE2_115_Audio_bsp/\libhal_bsp.a(alt_sbrk.o)
 .debug_abbrev  0x000071c5       0x5d ../DE2_115_Audio_bsp/\libhal_bsp.a(alt_usleep.o)
 .debug_abbrev  0x00007222      0x100 ../DE2_115_Audio_bsp/\libhal_bsp.a(alt_write.o)
 .debug_abbrev  0x00007322      0x17d ../DE2_115_Audio_bsp/\libhal_bsp.a(alt_sys_init.o)
 .debug_abbrev  0x0000749f      0x1bf ../DE2_115_Audio_bsp/\libhal_bsp.a(altera_avalon_cfi_flash.o)
 .debug_abbrev  0x0000765e      0x185 ../DE2_115_Audio_bsp/\libhal_bsp.a(altera_avalon_cfi_flash_table.o)
 .debug_abbrev  0x000077e3       0xf7 ../DE2_115_Audio_bsp/\libhal_bsp.a(altera_avalon_jtag_uart_fd.o)
 .debug_abbrev  0x000078da      0x17c ../DE2_115_Audio_bsp/\libhal_bsp.a(altera_avalon_jtag_uart_init.o)
 .debug_abbrev  0x00007a56       0xf0 ../DE2_115_Audio_bsp/\libhal_bsp.a(altera_avalon_jtag_uart_ioctl.o)
 .debug_abbrev  0x00007b46      0x191 ../DE2_115_Audio_bsp/\libhal_bsp.a(altera_avalon_jtag_uart_read.o)
 .debug_abbrev  0x00007cd7      0x18d ../DE2_115_Audio_bsp/\libhal_bsp.a(altera_avalon_jtag_uart_write.o)
 .debug_abbrev  0x00007e64      0x1c3 ../DE2_115_Audio_bsp/\libhal_bsp.a(altera_avalon_lcd_16207.o)
 .debug_abbrev  0x00008027      0x104 ../DE2_115_Audio_bsp/\libhal_bsp.a(altera_avalon_lcd_16207_fd.o)
 .debug_abbrev  0x0000812b      0x172 ../DE2_115_Audio_bsp/\libhal_bsp.a(alt_alarm_start.o)
 .debug_abbrev  0x0000829d       0x6c ../DE2_115_Audio_bsp/\libhal_bsp.a(alt_busy_sleep.o)
 .debug_abbrev  0x00008309       0x7a ../DE2_115_Audio_bsp/\libhal_bsp.a(alt_dcache_flush.o)
 .debug_abbrev  0x00008383       0x57 ../DE2_115_Audio_bsp/\libhal_bsp.a(alt_dcache_flush_all.o)
 .debug_abbrev  0x000083da       0xf6 ../DE2_115_Audio_bsp/\libhal_bsp.a(alt_dev_llist_insert.o)
 .debug_abbrev  0x000084d0       0x76 ../DE2_115_Audio_bsp/\libhal_bsp.a(alt_do_ctors.o)
 .debug_abbrev  0x00008546       0x76 ../DE2_115_Audio_bsp/\libhal_bsp.a(alt_do_dtors.o)
 .debug_abbrev  0x000085bc       0xcf ../DE2_115_Audio_bsp/\libhal_bsp.a(alt_find_dev.o)
 .debug_abbrev  0x0000868b       0xcf ../DE2_115_Audio_bsp/\libhal_bsp.a(alt_find_file.o)
 .debug_abbrev  0x0000875a      0x121 ../DE2_115_Audio_bsp/\libhal_bsp.a(alt_flash_dev.o)
 .debug_abbrev  0x0000887b       0xfb ../DE2_115_Audio_bsp/\libhal_bsp.a(alt_get_fd.o)
 .debug_abbrev  0x00008976       0x3f ../DE2_115_Audio_bsp/\libhal_bsp.a(alt_icache_flush_all.o)
 .debug_abbrev  0x000089b5      0x134 ../DE2_115_Audio_bsp/\libhal_bsp.a(alt_iic.o)
 .debug_abbrev  0x00008ae9      0x14e ../DE2_115_Audio_bsp/\libhal_bsp.a(alt_iic_isr_register.o)
 .debug_abbrev  0x00008c37       0xf0 ../DE2_115_Audio_bsp/\libhal_bsp.a(alt_io_redirect.o)
 .debug_abbrev  0x00008d27       0x12 ../DE2_115_Audio_bsp/\libhal_bsp.a(alt_irq_entry.o)
 .debug_abbrev  0x00008d39      0x10c ../DE2_115_Audio_bsp/\libhal_bsp.a(alt_irq_handler.o)
 .debug_abbrev  0x00008e45      0x150 ../DE2_115_Audio_bsp/\libhal_bsp.a(alt_tick.o)
 .debug_abbrev  0x00008f95       0x3f ../DE2_115_Audio_bsp/\libhal_bsp.a(altera_nios2_qsys_irq.o)
 .debug_abbrev  0x00008fd4      0x14d ../DE2_115_Audio_bsp/\libhal_bsp.a(altera_avalon_cfi_flash_amd.o)
 .debug_abbrev  0x00009121      0x14d ../DE2_115_Audio_bsp/\libhal_bsp.a(altera_avalon_cfi_flash_intel.o)
 .debug_abbrev  0x0000926e       0x12 ../DE2_115_Audio_bsp/\libhal_bsp.a(alt_exception_entry.o)
 .debug_abbrev  0x00009280       0x7a ../DE2_115_Audio_bsp/\libhal_bsp.a(alt_icache_flush.o)
 .debug_abbrev  0x000092fa       0xb7 d:/altera13.0sp1/nios2eds/bin/gnu/h-i686-mingw32/bin/../lib/gcc/nios2-elf/4.1.2/../../../../nios2-elf/lib\libc.a(lib_a-atexit.o)
 .debug_abbrev  0x000093b1       0x61 d:/altera13.0sp1/nios2eds/bin/gnu/h-i686-mingw32/bin/../lib/gcc/nios2-elf/4.1.2/../../../../nios2-elf/lib\libc.a(lib_a-ctype_.o)
 .debug_abbrev  0x00009412      0x16e d:/altera13.0sp1/nios2eds/bin/gnu/h-i686-mingw32/bin/../lib/gcc/nios2-elf/4.1.2/../../../../nios2-elf/lib\libc.a(lib_a-exit.o)
 .debug_abbrev  0x00009580       0x7c d:/altera13.0sp1/nios2eds/bin/gnu/h-i686-mingw32/bin/../lib/gcc/nios2-elf/4.1.2/../../../../nios2-elf/lib\libc.a(lib_a-memcmp.o)
 .debug_abbrev  0x000095fc      0x1ae d:/altera13.0sp1/nios2eds/bin/gnu/h-i686-mingw32/bin/../lib/gcc/nios2-elf/4.1.2/../../../../nios2-elf/lib\libc.a(lib_a-__atexit.o)
 .debug_abbrev  0x000097aa      0x1de d:/altera13.0sp1/nios2eds/bin/gnu/h-i686-mingw32/bin/../lib/gcc/nios2-elf/4.1.2/../../../../nios2-elf/lib\libc.a(lib_a-__call_atexit.o)
 .debug_abbrev  0x00009988       0x72 ../DE2_115_Audio_bsp/\libhal_bsp.a(alt_exit.o)

.debug_line     0x00000000    0x1a01f
 *(.debug_line)
 .debug_line    0x00000000       0x72 ../DE2_115_Audio_bsp//obj/HAL/src/crt0.o
 .debug_line    0x00000072      0x92a obj/default/AUDIO.o
 .debug_line    0x0000099c      0x69f obj/default/I2C.o
 .debug_line    0x0000103b      0x375 obj/default/LCD.o
 .debug_line    0x000013b0      0x345 obj/default/LED.o
 .debug_line    0x000016f5      0x3ee obj/default/SEG7.o
 .debug_line    0x00001ae3      0x36f obj/default/debug.o
 .debug_line    0x00001e52      0xa01 obj/default/main.o
 .debug_line    0x00002853      0x24f d:/altera13.0sp1/nios2eds/bin/gnu/h-i686-mingw32/bin/../lib/gcc/nios2-elf/4.1.2\libgcc.a(lib2-divmod.o)
 .debug_line    0x00002aa2      0x2e8 d:/altera13.0sp1/nios2eds/bin/gnu/h-i686-mingw32/bin/../lib/gcc/nios2-elf/4.1.2/../../../../nios2-elf/lib\libc.a(lib_a-fclose.o)
 .debug_line    0x00002d8a      0x40d d:/altera13.0sp1/nios2eds/bin/gnu/h-i686-mingw32/bin/../lib/gcc/nios2-elf/4.1.2/../../../../nios2-elf/lib\libc.a(lib_a-fflush.o)
 .debug_line    0x00003197      0x601 d:/altera13.0sp1/nios2eds/bin/gnu/h-i686-mingw32/bin/../lib/gcc/nios2-elf/4.1.2/../../../../nios2-elf/lib\libc.a(lib_a-findfp.o)
 .debug_line    0x00003798      0x342 d:/altera13.0sp1/nios2eds/bin/gnu/h-i686-mingw32/bin/../lib/gcc/nios2-elf/4.1.2/../../../../nios2-elf/lib\libc.a(lib_a-fopen.o)
 .debug_line    0x00003ada      0x5eb d:/altera13.0sp1/nios2eds/bin/gnu/h-i686-mingw32/bin/../lib/gcc/nios2-elf/4.1.2/../../../../nios2-elf/lib\libc.a(lib_a-freer.o)
 .debug_line    0x000040c5      0x5ab d:/altera13.0sp1/nios2eds/bin/gnu/h-i686-mingw32/bin/../lib/gcc/nios2-elf/4.1.2/../../../../nios2-elf/lib\libc.a(lib_a-fseek.o)
 .debug_line    0x00004670      0x264 d:/altera13.0sp1/nios2eds/bin/gnu/h-i686-mingw32/bin/../lib/gcc/nios2-elf/4.1.2/../../../../nios2-elf/lib\libc.a(lib_a-fstatr.o)
 .debug_line    0x000048d4      0x34a d:/altera13.0sp1/nios2eds/bin/gnu/h-i686-mingw32/bin/../lib/gcc/nios2-elf/4.1.2/../../../../nios2-elf/lib\libc.a(lib_a-fwalk.o)
 .debug_line    0x00004c1e      0x2d9 d:/altera13.0sp1/nios2eds/bin/gnu/h-i686-mingw32/bin/../lib/gcc/nios2-elf/4.1.2/../../../../nios2-elf/lib\libc.a(lib_a-fwrite.o)
 .debug_line    0x00004ef7      0x22d d:/altera13.0sp1/nios2eds/bin/gnu/h-i686-mingw32/bin/../lib/gcc/nios2-elf/4.1.2/../../../../nios2-elf/lib\libc.a(lib_a-impure.o)
 .debug_line    0x00005124      0x1df d:/altera13.0sp1/nios2eds/bin/gnu/h-i686-mingw32/bin/../lib/gcc/nios2-elf/4.1.2/../../../../nios2-elf/lib\libc.a(lib_a-int_errno.o)
 .debug_line    0x00005303      0x3c3 d:/altera13.0sp1/nios2eds/bin/gnu/h-i686-mingw32/bin/../lib/gcc/nios2-elf/4.1.2/../../../../nios2-elf/lib\libc.a(lib_a-makebuf.o)
 .debug_line    0x000056c6      0x80a d:/altera13.0sp1/nios2eds/bin/gnu/h-i686-mingw32/bin/../lib/gcc/nios2-elf/4.1.2/../../../../nios2-elf/lib\libc.a(lib_a-mallocr.o)
 .debug_line    0x00005ed0      0x301 d:/altera13.0sp1/nios2eds/bin/gnu/h-i686-mingw32/bin/../lib/gcc/nios2-elf/4.1.2/../../../../nios2-elf/lib\libc.a(lib_a-memset.o)
 .debug_line    0x000061d1      0x27b d:/altera13.0sp1/nios2eds/bin/gnu/h-i686-mingw32/bin/../lib/gcc/nios2-elf/4.1.2/../../../../nios2-elf/lib\libc.a(lib_a-openr.o)
 .debug_line    0x0000644c      0x29b d:/altera13.0sp1/nios2eds/bin/gnu/h-i686-mingw32/bin/../lib/gcc/nios2-elf/4.1.2/../../../../nios2-elf/lib\libc.a(lib_a-printf.o)
 .debug_line    0x000066e7      0x2f7 d:/altera13.0sp1/nios2eds/bin/gnu/h-i686-mingw32/bin/../lib/gcc/nios2-elf/4.1.2/../../../../nios2-elf/lib\libc.a(lib_a-puts.o)
 .debug_line    0x000069de      0x3c4 d:/altera13.0sp1/nios2eds/bin/gnu/h-i686-mingw32/bin/../lib/gcc/nios2-elf/4.1.2/../../../../nios2-elf/lib\libc.a(lib_a-refill.o)
 .debug_line    0x00006da2      0x299 d:/altera13.0sp1/nios2eds/bin/gnu/h-i686-mingw32/bin/../lib/gcc/nios2-elf/4.1.2/../../../../nios2-elf/lib\libc.a(lib_a-sbrkr.o)
 .debug_line    0x0000703b      0x322 d:/altera13.0sp1/nios2eds/bin/gnu/h-i686-mingw32/bin/../lib/gcc/nios2-elf/4.1.2/../../../../nios2-elf/lib\libc.a(lib_a-sprintf.o)
 .debug_line    0x0000735d      0x38c d:/altera13.0sp1/nios2eds/bin/gnu/h-i686-mingw32/bin/../lib/gcc/nios2-elf/4.1.2/../../../../nios2-elf/lib\libc.a(lib_a-stdio.o)
 .debug_line    0x000076e9      0x26d d:/altera13.0sp1/nios2eds/bin/gnu/h-i686-mingw32/bin/../lib/gcc/nios2-elf/4.1.2/../../../../nios2-elf/lib\libc.a(lib_a-strlen.o)
 .debug_line    0x00007956     0x110c d:/altera13.0sp1/nios2eds/bin/gnu/h-i686-mingw32/bin/../lib/gcc/nios2-elf/4.1.2/../../../../nios2-elf/lib\libc.a(lib_a-vfprintf.o)
 .debug_line    0x00008a62      0x315 d:/altera13.0sp1/nios2eds/bin/gnu/h-i686-mingw32/bin/../lib/gcc/nios2-elf/4.1.2/../../../../nios2-elf/lib\libc.a(lib_a-vsnprintf.o)
 .debug_line    0x00008d77      0x29a d:/altera13.0sp1/nios2eds/bin/gnu/h-i686-mingw32/bin/../lib/gcc/nios2-elf/4.1.2/../../../../nios2-elf/lib\libc.a(lib_a-writer.o)
 .debug_line    0x00009011      0x2f0 d:/altera13.0sp1/nios2eds/bin/gnu/h-i686-mingw32/bin/../lib/gcc/nios2-elf/4.1.2/../../../../nios2-elf/lib\libc.a(lib_a-wsetup.o)
 .debug_line    0x00009301      0x29a d:/altera13.0sp1/nios2eds/bin/gnu/h-i686-mingw32/bin/../lib/gcc/nios2-elf/4.1.2/../../../../nios2-elf/lib\libc.a(lib_a-closer.o)
 .debug_line    0x0000959b     0x12c6 d:/altera13.0sp1/nios2eds/bin/gnu/h-i686-mingw32/bin/../lib/gcc/nios2-elf/4.1.2/../../../../nios2-elf/lib\libc.a(lib_a-dtoa.o)
 .debug_line    0x0000a861      0x296 d:/altera13.0sp1/nios2eds/bin/gnu/h-i686-mingw32/bin/../lib/gcc/nios2-elf/4.1.2/../../../../nios2-elf/lib\libc.a(lib_a-flags.o)
 .debug_line    0x0000aaf7      0x641 d:/altera13.0sp1/nios2eds/bin/gnu/h-i686-mingw32/bin/../lib/gcc/nios2-elf/4.1.2/../../../../nios2-elf/lib\libc.a(lib_a-fvwrite.o)
 .debug_line    0x0000b138      0x29b d:/altera13.0sp1/nios2eds/bin/gnu/h-i686-mingw32/bin/../lib/gcc/nios2-elf/4.1.2/../../../../nios2-elf/lib\libc.a(lib_a-isattyr.o)
 .debug_line    0x0000b3d3      0x2c8 d:/altera13.0sp1/nios2eds/bin/gnu/h-i686-mingw32/bin/../lib/gcc/nios2-elf/4.1.2/../../../../nios2-elf/lib\libc.a(lib_a-locale.o)
 .debug_line    0x0000b69b      0x29a d:/altera13.0sp1/nios2eds/bin/gnu/h-i686-mingw32/bin/../lib/gcc/nios2-elf/4.1.2/../../../../nios2-elf/lib\libc.a(lib_a-lseekr.o)
 .debug_line    0x0000b935      0x303 d:/altera13.0sp1/nios2eds/bin/gnu/h-i686-mingw32/bin/../lib/gcc/nios2-elf/4.1.2/../../../../nios2-elf/lib\libc.a(lib_a-memchr.o)
 .debug_line    0x0000bc38      0x1ac d:/altera13.0sp1/nios2eds/bin/gnu/h-i686-mingw32/bin/../lib/gcc/nios2-elf/4.1.2/../../../../nios2-elf/lib\libc.a(lib_a-memcpy.o)
 .debug_line    0x0000bde4      0x30a d:/altera13.0sp1/nios2eds/bin/gnu/h-i686-mingw32/bin/../lib/gcc/nios2-elf/4.1.2/../../../../nios2-elf/lib\libc.a(lib_a-memmove.o)
 .debug_line    0x0000c0ee     0x1243 d:/altera13.0sp1/nios2eds/bin/gnu/h-i686-mingw32/bin/../lib/gcc/nios2-elf/4.1.2/../../../../nios2-elf/lib\libc.a(lib_a-mprec.o)
 .debug_line    0x0000d331      0x299 d:/altera13.0sp1/nios2eds/bin/gnu/h-i686-mingw32/bin/../lib/gcc/nios2-elf/4.1.2/../../../../nios2-elf/lib\libc.a(lib_a-readr.o)
 .debug_line    0x0000d5ca      0x58a d:/altera13.0sp1/nios2eds/bin/gnu/h-i686-mingw32/bin/../lib/gcc/nios2-elf/4.1.2/../../../../nios2-elf/lib\libc.a(lib_a-reallocr.o)
 .debug_line    0x0000db54      0x222 d:/altera13.0sp1/nios2eds/bin/gnu/h-i686-mingw32/bin/../lib/gcc/nios2-elf/4.1.2/../../../../nios2-elf/lib\libc.a(lib_a-s_isinfd.o)
 .debug_line    0x0000dd76      0x21a d:/altera13.0sp1/nios2eds/bin/gnu/h-i686-mingw32/bin/../lib/gcc/nios2-elf/4.1.2/../../../../nios2-elf/lib\libc.a(lib_a-s_isnand.o)
 .debug_line    0x0000df90      0x2d5 d:/altera13.0sp1/nios2eds/bin/gnu/h-i686-mingw32/bin/../lib/gcc/nios2-elf/4.1.2/../../../../nios2-elf/lib\libc.a(lib_a-strcmp.o)
 .debug_line    0x0000e265      0x25c d:/altera13.0sp1/nios2eds/bin/gnu/h-i686-mingw32/bin/../lib/gcc/nios2-elf/4.1.2/../../../../nios2-elf/lib\libc.a(lib_a-callocr.o)
 .debug_line    0x0000e4c1      0x2f2 d:/altera13.0sp1/nios2eds/bin/gnu/h-i686-mingw32/bin/../lib/gcc/nios2-elf/4.1.2\libgcc.a(_udivdi3.o)
 .debug_line    0x0000e7b3      0x37d d:/altera13.0sp1/nios2eds/bin/gnu/h-i686-mingw32/bin/../lib/gcc/nios2-elf/4.1.2\libgcc.a(_umoddi3.o)
 .debug_line    0x0000eb30      0x430 d:/altera13.0sp1/nios2eds/bin/gnu/h-i686-mingw32/bin/../lib/gcc/nios2-elf/4.1.2\libgcc.a(_addsub_df.o)
 .debug_line    0x0000ef60      0x3e5 d:/altera13.0sp1/nios2eds/bin/gnu/h-i686-mingw32/bin/../lib/gcc/nios2-elf/4.1.2\libgcc.a(_mul_df.o)
 .debug_line    0x0000f345      0x301 d:/altera13.0sp1/nios2eds/bin/gnu/h-i686-mingw32/bin/../lib/gcc/nios2-elf/4.1.2\libgcc.a(_div_df.o)
 .debug_line    0x0000f646      0x129 d:/altera13.0sp1/nios2eds/bin/gnu/h-i686-mingw32/bin/../lib/gcc/nios2-elf/4.1.2\libgcc.a(_eq_df.o)
 .debug_line    0x0000f76f      0x129 d:/altera13.0sp1/nios2eds/bin/gnu/h-i686-mingw32/bin/../lib/gcc/nios2-elf/4.1.2\libgcc.a(_ne_df.o)
 .debug_line    0x0000f898      0x129 d:/altera13.0sp1/nios2eds/bin/gnu/h-i686-mingw32/bin/../lib/gcc/nios2-elf/4.1.2\libgcc.a(_gt_df.o)
 .debug_line    0x0000f9c1      0x129 d:/altera13.0sp1/nios2eds/bin/gnu/h-i686-mingw32/bin/../lib/gcc/nios2-elf/4.1.2\libgcc.a(_ge_df.o)
 .debug_line    0x0000faea      0x129 d:/altera13.0sp1/nios2eds/bin/gnu/h-i686-mingw32/bin/../lib/gcc/nios2-elf/4.1.2\libgcc.a(_lt_df.o)
 .debug_line    0x0000fc13      0x175 d:/altera13.0sp1/nios2eds/bin/gnu/h-i686-mingw32/bin/../lib/gcc/nios2-elf/4.1.2\libgcc.a(_si_to_df.o)
 .debug_line    0x0000fd88      0x149 d:/altera13.0sp1/nios2eds/bin/gnu/h-i686-mingw32/bin/../lib/gcc/nios2-elf/4.1.2\libgcc.a(_df_to_si.o)
 .debug_line    0x0000fed1       0x94 d:/altera13.0sp1/nios2eds/bin/gnu/h-i686-mingw32/bin/../lib/gcc/nios2-elf/4.1.2\libgcc.a(_thenan_df.o)
 .debug_line    0x0000ff65      0x189 d:/altera13.0sp1/nios2eds/bin/gnu/h-i686-mingw32/bin/../lib/gcc/nios2-elf/4.1.2\libgcc.a(_usi_to_df.o)
 .debug_line    0x000100ee      0x11f d:/altera13.0sp1/nios2eds/bin/gnu/h-i686-mingw32/bin/../lib/gcc/nios2-elf/4.1.2\libgcc.a(_muldi3.o)
 .debug_line    0x0001020d       0xaa d:/altera13.0sp1/nios2eds/bin/gnu/h-i686-mingw32/bin/../lib/gcc/nios2-elf/4.1.2\libgcc.a(_clz.o)
 .debug_line    0x000102b7      0x105 d:/altera13.0sp1/nios2eds/bin/gnu/h-i686-mingw32/bin/../lib/gcc/nios2-elf/4.1.2\libgcc.a(_clzsi2.o)
 .debug_line    0x000103bc      0x222 d:/altera13.0sp1/nios2eds/bin/gnu/h-i686-mingw32/bin/../lib/gcc/nios2-elf/4.1.2\libgcc.a(_pack_df.o)
 .debug_line    0x000105de      0x1e4 d:/altera13.0sp1/nios2eds/bin/gnu/h-i686-mingw32/bin/../lib/gcc/nios2-elf/4.1.2\libgcc.a(_unpack_df.o)
 .debug_line    0x000107c2      0x187 d:/altera13.0sp1/nios2eds/bin/gnu/h-i686-mingw32/bin/../lib/gcc/nios2-elf/4.1.2\libgcc.a(_fpcmp_parts_df.o)
 .debug_line    0x00010949      0x297 ../DE2_115_Audio_bsp/\libhal_bsp.a(alt_close.o)
 .debug_line    0x00010be0      0x252 ../DE2_115_Audio_bsp/\libhal_bsp.a(alt_dev.o)
 .debug_line    0x00010e32      0x1a8 ../DE2_115_Audio_bsp/\libhal_bsp.a(alt_errno.o)
 .debug_line    0x00010fda      0x29f ../DE2_115_Audio_bsp/\libhal_bsp.a(alt_fstat.o)
 .debug_line    0x00011279      0x301 ../DE2_115_Audio_bsp/\libhal_bsp.a(alt_irq_register.o)
 .debug_line    0x0001157a       0x72 ../DE2_115_Audio_bsp/\libhal_bsp.a(alt_irq_vars.o)
 .debug_line    0x000115ec      0x2a0 ../DE2_115_Audio_bsp/\libhal_bsp.a(alt_isatty.o)
 .debug_line    0x0001188c      0x215 ../DE2_115_Audio_bsp/\libhal_bsp.a(alt_load.o)
 .debug_line    0x00011aa1      0x29f ../DE2_115_Audio_bsp/\libhal_bsp.a(alt_lseek.o)
 .debug_line    0x00011d40      0x2c8 ../DE2_115_Audio_bsp/\libhal_bsp.a(alt_main.o)
 .debug_line    0x00012008      0x20c ../DE2_115_Audio_bsp/\libhal_bsp.a(alt_malloc_lock.o)
 .debug_line    0x00012214      0x2fd ../DE2_115_Audio_bsp/\libhal_bsp.a(alt_open.o)
 .debug_line    0x00012511      0x2c6 ../DE2_115_Audio_bsp/\libhal_bsp.a(alt_read.o)
 .debug_line    0x000127d7       0xed ../DE2_115_Audio_bsp/\libhal_bsp.a(alt_release_fd.o)
 .debug_line    0x000128c4      0x25f ../DE2_115_Audio_bsp/\libhal_bsp.a(alt_sbrk.o)
 .debug_line    0x00012b23      0x1ff ../DE2_115_Audio_bsp/\libhal_bsp.a(alt_usleep.o)
 .debug_line    0x00012d22      0x2c7 ../DE2_115_Audio_bsp/\libhal_bsp.a(alt_write.o)
 .debug_line    0x00012fe9      0x336 ../DE2_115_Audio_bsp/\libhal_bsp.a(alt_sys_init.o)
 .debug_line    0x0001331f      0x571 ../DE2_115_Audio_bsp/\libhal_bsp.a(altera_avalon_cfi_flash.o)
 .debug_line    0x00013890      0x977 ../DE2_115_Audio_bsp/\libhal_bsp.a(altera_avalon_cfi_flash_table.o)
 .debug_line    0x00014207      0x216 ../DE2_115_Audio_bsp/\libhal_bsp.a(altera_avalon_jtag_uart_fd.o)
 .debug_line    0x0001441d      0x4a9 ../DE2_115_Audio_bsp/\libhal_bsp.a(altera_avalon_jtag_uart_init.o)
 .debug_line    0x000148c6      0x315 ../DE2_115_Audio_bsp/\libhal_bsp.a(altera_avalon_jtag_uart_ioctl.o)
 .debug_line    0x00014bdb      0x3f5 ../DE2_115_Audio_bsp/\libhal_bsp.a(altera_avalon_jtag_uart_read.o)
 .debug_line    0x00014fd0      0x403 ../DE2_115_Audio_bsp/\libhal_bsp.a(altera_avalon_jtag_uart_write.o)
 .debug_line    0x000153d3      0x8bf ../DE2_115_Audio_bsp/\libhal_bsp.a(altera_avalon_lcd_16207.o)
 .debug_line    0x00015c92      0x1b6 ../DE2_115_Audio_bsp/\libhal_bsp.a(altera_avalon_lcd_16207_fd.o)
 .debug_line    0x00015e48      0x2da ../DE2_115_Audio_bsp/\libhal_bsp.a(alt_alarm_start.o)
 .debug_line    0x00016122      0x259 ../DE2_115_Audio_bsp/\libhal_bsp.a(alt_busy_sleep.o)
 .debug_line    0x0001637b      0x1df ../DE2_115_Audio_bsp/\libhal_bsp.a(alt_dcache_flush.o)
 .debug_line    0x0001655a      0x1cb ../DE2_115_Audio_bsp/\libhal_bsp.a(alt_dcache_flush_all.o)
 .debug_line    0x00016725      0x258 ../DE2_115_Audio_bsp/\libhal_bsp.a(alt_dev_llist_insert.o)
 .debug_line    0x0001697d       0x83 ../DE2_115_Audio_bsp/\libhal_bsp.a(alt_do_ctors.o)
 .debug_line    0x00016a00       0x83 ../DE2_115_Audio_bsp/\libhal_bsp.a(alt_do_dtors.o)
 .debug_line    0x00016a83      0x269 ../DE2_115_Audio_bsp/\libhal_bsp.a(alt_find_dev.o)
 .debug_line    0x00016cec      0x27a ../DE2_115_Audio_bsp/\libhal_bsp.a(alt_find_file.o)
 .debug_line    0x00016f66      0x266 ../DE2_115_Audio_bsp/\libhal_bsp.a(alt_flash_dev.o)
 .debug_line    0x000171cc      0x295 ../DE2_115_Audio_bsp/\libhal_bsp.a(alt_get_fd.o)
 .debug_line    0x00017461      0x1bb ../DE2_115_Audio_bsp/\libhal_bsp.a(alt_icache_flush_all.o)
 .debug_line    0x0001761c      0x2c6 ../DE2_115_Audio_bsp/\libhal_bsp.a(alt_iic.o)
 .debug_line    0x000178e2      0x247 ../DE2_115_Audio_bsp/\libhal_bsp.a(alt_iic_isr_register.o)
 .debug_line    0x00017b29      0x2b2 ../DE2_115_Audio_bsp/\libhal_bsp.a(alt_io_redirect.o)
 .debug_line    0x00017ddb       0x6b ../DE2_115_Audio_bsp/\libhal_bsp.a(alt_irq_entry.o)
 .debug_line    0x00017e46      0x246 ../DE2_115_Audio_bsp/\libhal_bsp.a(alt_irq_handler.o)
 .debug_line    0x0001808c      0x2da ../DE2_115_Audio_bsp/\libhal_bsp.a(alt_tick.o)
 .debug_line    0x00018366      0x1cc ../DE2_115_Audio_bsp/\libhal_bsp.a(altera_nios2_qsys_irq.o)
 .debug_line    0x00018532      0x443 ../DE2_115_Audio_bsp/\libhal_bsp.a(altera_avalon_cfi_flash_amd.o)
 .debug_line    0x00018975      0x435 ../DE2_115_Audio_bsp/\libhal_bsp.a(altera_avalon_cfi_flash_intel.o)
 .debug_line    0x00018daa       0xab ../DE2_115_Audio_bsp/\libhal_bsp.a(alt_exception_entry.o)
 .debug_line    0x00018e55      0x1f7 ../DE2_115_Audio_bsp/\libhal_bsp.a(alt_icache_flush.o)
 .debug_line    0x0001904c      0x200 d:/altera13.0sp1/nios2eds/bin/gnu/h-i686-mingw32/bin/../lib/gcc/nios2-elf/4.1.2/../../../../nios2-elf/lib\libc.a(lib_a-atexit.o)
 .debug_line    0x0001924c       0x7e d:/altera13.0sp1/nios2eds/bin/gnu/h-i686-mingw32/bin/../lib/gcc/nios2-elf/4.1.2/../../../../nios2-elf/lib\libc.a(lib_a-ctype_.o)
 .debug_line    0x000192ca      0x238 d:/altera13.0sp1/nios2eds/bin/gnu/h-i686-mingw32/bin/../lib/gcc/nios2-elf/4.1.2/../../../../nios2-elf/lib\libc.a(lib_a-exit.o)
 .debug_line    0x00019502      0x29f d:/altera13.0sp1/nios2eds/bin/gnu/h-i686-mingw32/bin/../lib/gcc/nios2-elf/4.1.2/../../../../nios2-elf/lib\libc.a(lib_a-memcmp.o)
 .debug_line    0x000197a1      0x313 d:/altera13.0sp1/nios2eds/bin/gnu/h-i686-mingw32/bin/../lib/gcc/nios2-elf/4.1.2/../../../../nios2-elf/lib\libc.a(lib_a-__atexit.o)
 .debug_line    0x00019ab4      0x367 d:/altera13.0sp1/nios2eds/bin/gnu/h-i686-mingw32/bin/../lib/gcc/nios2-elf/4.1.2/../../../../nios2-elf/lib\libc.a(lib_a-__call_atexit.o)
 .debug_line    0x00019e1b      0x204 ../DE2_115_Audio_bsp/\libhal_bsp.a(alt_exit.o)

.debug_frame    0x00000000     0x265c
 *(.debug_frame)
 .debug_frame   0x00000000      0x25c obj/default/AUDIO.o
 .debug_frame   0x0000025c       0xd4 obj/default/I2C.o
 .debug_frame   0x00000330       0x80 obj/default/LCD.o
 .debug_frame   0x000003b0       0x80 obj/default/LED.o
 .debug_frame   0x00000430       0x9c obj/default/SEG7.o
 .debug_frame   0x000004cc       0x84 obj/default/debug.o
 .debug_frame   0x00000550      0x180 obj/default/main.o
 .debug_frame   0x000006d0       0x70 d:/altera13.0sp1/nios2eds/bin/gnu/h-i686-mingw32/bin/../lib/gcc/nios2-elf/4.1.2\libgcc.a(lib2-divmod.o)
 .debug_frame   0x00000740       0x3c d:/altera13.0sp1/nios2eds/bin/gnu/h-i686-mingw32/bin/../lib/gcc/nios2-elf/4.1.2/../../../../nios2-elf/lib\libc.a(lib_a-fclose.o)
 .debug_frame   0x0000077c       0x40 d:/altera13.0sp1/nios2eds/bin/gnu/h-i686-mingw32/bin/../lib/gcc/nios2-elf/4.1.2/../../../../nios2-elf/lib\libc.a(lib_a-fflush.o)
 .debug_frame   0x000007bc      0x118 d:/altera13.0sp1/nios2eds/bin/gnu/h-i686-mingw32/bin/../lib/gcc/nios2-elf/4.1.2/../../../../nios2-elf/lib\libc.a(lib_a-findfp.o)
 .debug_frame   0x000008d4       0x40 d:/altera13.0sp1/nios2eds/bin/gnu/h-i686-mingw32/bin/../lib/gcc/nios2-elf/4.1.2/../../../../nios2-elf/lib\libc.a(lib_a-fopen.o)
 .debug_frame   0x00000914       0x4c d:/altera13.0sp1/nios2eds/bin/gnu/h-i686-mingw32/bin/../lib/gcc/nios2-elf/4.1.2/../../../../nios2-elf/lib\libc.a(lib_a-freer.o)
 .debug_frame   0x00000960       0x48 d:/altera13.0sp1/nios2eds/bin/gnu/h-i686-mingw32/bin/../lib/gcc/nios2-elf/4.1.2/../../../../nios2-elf/lib\libc.a(lib_a-fseek.o)
 .debug_frame   0x000009a8       0x2c d:/altera13.0sp1/nios2eds/bin/gnu/h-i686-mingw32/bin/../lib/gcc/nios2-elf/4.1.2/../../../../nios2-elf/lib\libc.a(lib_a-fstatr.o)
 .debug_frame   0x000009d4       0x60 d:/altera13.0sp1/nios2eds/bin/gnu/h-i686-mingw32/bin/../lib/gcc/nios2-elf/4.1.2/../../../../nios2-elf/lib\libc.a(lib_a-fwalk.o)
 .debug_frame   0x00000a34       0x48 d:/altera13.0sp1/nios2eds/bin/gnu/h-i686-mingw32/bin/../lib/gcc/nios2-elf/4.1.2/../../../../nios2-elf/lib\libc.a(lib_a-fwrite.o)
 .debug_frame   0x00000a7c       0x2c d:/altera13.0sp1/nios2eds/bin/gnu/h-i686-mingw32/bin/../lib/gcc/nios2-elf/4.1.2/../../../../nios2-elf/lib\libc.a(lib_a-makebuf.o)
 .debug_frame   0x00000aa8       0x38 d:/altera13.0sp1/nios2eds/bin/gnu/h-i686-mingw32/bin/../lib/gcc/nios2-elf/4.1.2/../../../../nios2-elf/lib\libc.a(lib_a-mallocr.o)
 .debug_frame   0x00000ae0       0x20 d:/altera13.0sp1/nios2eds/bin/gnu/h-i686-mingw32/bin/../lib/gcc/nios2-elf/4.1.2/../../../../nios2-elf/lib\libc.a(lib_a-memset.o)
 .debug_frame   0x00000b00       0x2c d:/altera13.0sp1/nios2eds/bin/gnu/h-i686-mingw32/bin/../lib/gcc/nios2-elf/4.1.2/../../../../nios2-elf/lib\libc.a(lib_a-openr.o)
 .debug_frame   0x00000b2c       0x40 d:/altera13.0sp1/nios2eds/bin/gnu/h-i686-mingw32/bin/../lib/gcc/nios2-elf/4.1.2/../../../../nios2-elf/lib\libc.a(lib_a-printf.o)
 .debug_frame   0x00000b6c       0x3c d:/altera13.0sp1/nios2eds/bin/gnu/h-i686-mingw32/bin/../lib/gcc/nios2-elf/4.1.2/../../../../nios2-elf/lib\libc.a(lib_a-puts.o)
 .debug_frame   0x00000ba8       0x3c d:/altera13.0sp1/nios2eds/bin/gnu/h-i686-mingw32/bin/../lib/gcc/nios2-elf/4.1.2/../../../../nios2-elf/lib\libc.a(lib_a-refill.o)
 .debug_frame   0x00000be4       0x2c d:/altera13.0sp1/nios2eds/bin/gnu/h-i686-mingw32/bin/../lib/gcc/nios2-elf/4.1.2/../../../../nios2-elf/lib\libc.a(lib_a-sbrkr.o)
 .debug_frame   0x00000c10       0x40 d:/altera13.0sp1/nios2eds/bin/gnu/h-i686-mingw32/bin/../lib/gcc/nios2-elf/4.1.2/../../../../nios2-elf/lib\libc.a(lib_a-sprintf.o)
 .debug_frame   0x00000c50       0x78 d:/altera13.0sp1/nios2eds/bin/gnu/h-i686-mingw32/bin/../lib/gcc/nios2-elf/4.1.2/../../../../nios2-elf/lib\libc.a(lib_a-stdio.o)
 .debug_frame   0x00000cc8       0x20 d:/altera13.0sp1/nios2eds/bin/gnu/h-i686-mingw32/bin/../lib/gcc/nios2-elf/4.1.2/../../../../nios2-elf/lib\libc.a(lib_a-strlen.o)
 .debug_frame   0x00000ce8       0x64 d:/altera13.0sp1/nios2eds/bin/gnu/h-i686-mingw32/bin/../lib/gcc/nios2-elf/4.1.2/../../../../nios2-elf/lib\libc.a(lib_a-vfprintf.o)
 .debug_frame   0x00000d4c       0x44 d:/altera13.0sp1/nios2eds/bin/gnu/h-i686-mingw32/bin/../lib/gcc/nios2-elf/4.1.2/../../../../nios2-elf/lib\libc.a(lib_a-vsnprintf.o)
 .debug_frame   0x00000d90       0x2c d:/altera13.0sp1/nios2eds/bin/gnu/h-i686-mingw32/bin/../lib/gcc/nios2-elf/4.1.2/../../../../nios2-elf/lib\libc.a(lib_a-writer.o)
 .debug_frame   0x00000dbc       0x2c d:/altera13.0sp1/nios2eds/bin/gnu/h-i686-mingw32/bin/../lib/gcc/nios2-elf/4.1.2/../../../../nios2-elf/lib\libc.a(lib_a-wsetup.o)
 .debug_frame   0x00000de8       0x2c d:/altera13.0sp1/nios2eds/bin/gnu/h-i686-mingw32/bin/../lib/gcc/nios2-elf/4.1.2/../../../../nios2-elf/lib\libc.a(lib_a-closer.o)
 .debug_frame   0x00000e14       0x64 d:/altera13.0sp1/nios2eds/bin/gnu/h-i686-mingw32/bin/../lib/gcc/nios2-elf/4.1.2/../../../../nios2-elf/lib\libc.a(lib_a-dtoa.o)
 .debug_frame   0x00000e78       0x20 d:/altera13.0sp1/nios2eds/bin/gnu/h-i686-mingw32/bin/../lib/gcc/nios2-elf/4.1.2/../../../../nios2-elf/lib\libc.a(lib_a-flags.o)
 .debug_frame   0x00000e98       0x38 d:/altera13.0sp1/nios2eds/bin/gnu/h-i686-mingw32/bin/../lib/gcc/nios2-elf/4.1.2/../../../../nios2-elf/lib\libc.a(lib_a-fvwrite.o)
 .debug_frame   0x00000ed0       0x2c d:/altera13.0sp1/nios2eds/bin/gnu/h-i686-mingw32/bin/../lib/gcc/nios2-elf/4.1.2/../../../../nios2-elf/lib\libc.a(lib_a-isattyr.o)
 .debug_frame   0x00000efc       0x70 d:/altera13.0sp1/nios2eds/bin/gnu/h-i686-mingw32/bin/../lib/gcc/nios2-elf/4.1.2/../../../../nios2-elf/lib\libc.a(lib_a-locale.o)
 .debug_frame   0x00000f6c       0x2c d:/altera13.0sp1/nios2eds/bin/gnu/h-i686-mingw32/bin/../lib/gcc/nios2-elf/4.1.2/../../../../nios2-elf/lib\libc.a(lib_a-lseekr.o)
 .debug_frame   0x00000f98       0x20 d:/altera13.0sp1/nios2eds/bin/gnu/h-i686-mingw32/bin/../lib/gcc/nios2-elf/4.1.2/../../../../nios2-elf/lib\libc.a(lib_a-memchr.o)
 .debug_frame   0x00000fb8       0x20 d:/altera13.0sp1/nios2eds/bin/gnu/h-i686-mingw32/bin/../lib/gcc/nios2-elf/4.1.2/../../../../nios2-elf/lib\libc.a(lib_a-memcpy.o)
 .debug_frame   0x00000fd8       0x20 d:/altera13.0sp1/nios2eds/bin/gnu/h-i686-mingw32/bin/../lib/gcc/nios2-elf/4.1.2/../../../../nios2-elf/lib\libc.a(lib_a-memmove.o)
 .debug_frame   0x00000ff8      0x218 d:/altera13.0sp1/nios2eds/bin/gnu/h-i686-mingw32/bin/../lib/gcc/nios2-elf/4.1.2/../../../../nios2-elf/lib\libc.a(lib_a-mprec.o)
 .debug_frame   0x00001210       0x2c d:/altera13.0sp1/nios2eds/bin/gnu/h-i686-mingw32/bin/../lib/gcc/nios2-elf/4.1.2/../../../../nios2-elf/lib\libc.a(lib_a-readr.o)
 .debug_frame   0x0000123c       0x38 d:/altera13.0sp1/nios2eds/bin/gnu/h-i686-mingw32/bin/../lib/gcc/nios2-elf/4.1.2/../../../../nios2-elf/lib\libc.a(lib_a-reallocr.o)
 .debug_frame   0x00001274       0x20 d:/altera13.0sp1/nios2eds/bin/gnu/h-i686-mingw32/bin/../lib/gcc/nios2-elf/4.1.2/../../../../nios2-elf/lib\libc.a(lib_a-s_isinfd.o)
 .debug_frame   0x00001294       0x20 d:/altera13.0sp1/nios2eds/bin/gnu/h-i686-mingw32/bin/../lib/gcc/nios2-elf/4.1.2/../../../../nios2-elf/lib\libc.a(lib_a-s_isnand.o)
 .debug_frame   0x000012b4       0x20 d:/altera13.0sp1/nios2eds/bin/gnu/h-i686-mingw32/bin/../lib/gcc/nios2-elf/4.1.2/../../../../nios2-elf/lib\libc.a(lib_a-strcmp.o)
 .debug_frame   0x000012d4       0x28 d:/altera13.0sp1/nios2eds/bin/gnu/h-i686-mingw32/bin/../lib/gcc/nios2-elf/4.1.2/../../../../nios2-elf/lib\libc.a(lib_a-callocr.o)
 .debug_frame   0x000012fc       0x38 d:/altera13.0sp1/nios2eds/bin/gnu/h-i686-mingw32/bin/../lib/gcc/nios2-elf/4.1.2\libgcc.a(_udivdi3.o)
 .debug_frame   0x00001334       0x38 d:/altera13.0sp1/nios2eds/bin/gnu/h-i686-mingw32/bin/../lib/gcc/nios2-elf/4.1.2\libgcc.a(_umoddi3.o)
 .debug_frame   0x0000136c       0x70 d:/altera13.0sp1/nios2eds/bin/gnu/h-i686-mingw32/bin/../lib/gcc/nios2-elf/4.1.2\libgcc.a(_addsub_df.o)
 .debug_frame   0x000013dc       0x3c d:/altera13.0sp1/nios2eds/bin/gnu/h-i686-mingw32/bin/../lib/gcc/nios2-elf/4.1.2\libgcc.a(_mul_df.o)
 .debug_frame   0x00001418       0x30 d:/altera13.0sp1/nios2eds/bin/gnu/h-i686-mingw32/bin/../lib/gcc/nios2-elf/4.1.2\libgcc.a(_div_df.o)
 .debug_frame   0x00001448       0x2c d:/altera13.0sp1/nios2eds/bin/gnu/h-i686-mingw32/bin/../lib/gcc/nios2-elf/4.1.2\libgcc.a(_eq_df.o)
 .debug_frame   0x00001474       0x2c d:/altera13.0sp1/nios2eds/bin/gnu/h-i686-mingw32/bin/../lib/gcc/nios2-elf/4.1.2\libgcc.a(_ne_df.o)
 .debug_frame   0x000014a0       0x2c d:/altera13.0sp1/nios2eds/bin/gnu/h-i686-mingw32/bin/../lib/gcc/nios2-elf/4.1.2\libgcc.a(_gt_df.o)
 .debug_frame   0x000014cc       0x2c d:/altera13.0sp1/nios2eds/bin/gnu/h-i686-mingw32/bin/../lib/gcc/nios2-elf/4.1.2\libgcc.a(_ge_df.o)
 .debug_frame   0x000014f8       0x2c d:/altera13.0sp1/nios2eds/bin/gnu/h-i686-mingw32/bin/../lib/gcc/nios2-elf/4.1.2\libgcc.a(_lt_df.o)
 .debug_frame   0x00001524       0x30 d:/altera13.0sp1/nios2eds/bin/gnu/h-i686-mingw32/bin/../lib/gcc/nios2-elf/4.1.2\libgcc.a(_si_to_df.o)
 .debug_frame   0x00001554       0x28 d:/altera13.0sp1/nios2eds/bin/gnu/h-i686-mingw32/bin/../lib/gcc/nios2-elf/4.1.2\libgcc.a(_df_to_si.o)
 .debug_frame   0x0000157c       0x38 d:/altera13.0sp1/nios2eds/bin/gnu/h-i686-mingw32/bin/../lib/gcc/nios2-elf/4.1.2\libgcc.a(_usi_to_df.o)
 .debug_frame   0x000015b4       0x2c d:/altera13.0sp1/nios2eds/bin/gnu/h-i686-mingw32/bin/../lib/gcc/nios2-elf/4.1.2\libgcc.a(_muldi3.o)
 .debug_frame   0x000015e0       0x20 d:/altera13.0sp1/nios2eds/bin/gnu/h-i686-mingw32/bin/../lib/gcc/nios2-elf/4.1.2\libgcc.a(_clzsi2.o)
 .debug_frame   0x00001600       0x2c d:/altera13.0sp1/nios2eds/bin/gnu/h-i686-mingw32/bin/../lib/gcc/nios2-elf/4.1.2\libgcc.a(_pack_df.o)
 .debug_frame   0x0000162c       0x20 d:/altera13.0sp1/nios2eds/bin/gnu/h-i686-mingw32/bin/../lib/gcc/nios2-elf/4.1.2\libgcc.a(_unpack_df.o)
 .debug_frame   0x0000164c       0x20 d:/altera13.0sp1/nios2eds/bin/gnu/h-i686-mingw32/bin/../lib/gcc/nios2-elf/4.1.2\libgcc.a(_fpcmp_parts_df.o)
 .debug_frame   0x0000166c       0x48 ../DE2_115_Audio_bsp/\libhal_bsp.a(alt_close.o)
 .debug_frame   0x000016b4       0x2c ../DE2_115_Audio_bsp/\libhal_bsp.a(alt_dev.o)
 .debug_frame   0x000016e0       0x48 ../DE2_115_Audio_bsp/\libhal_bsp.a(alt_fstat.o)
 .debug_frame   0x00001728       0x2c ../DE2_115_Audio_bsp/\libhal_bsp.a(alt_irq_register.o)
 .debug_frame   0x00001754       0x48 ../DE2_115_Audio_bsp/\libhal_bsp.a(alt_isatty.o)
 .debug_frame   0x0000179c       0x48 ../DE2_115_Audio_bsp/\libhal_bsp.a(alt_load.o)
 .debug_frame   0x000017e4       0x48 ../DE2_115_Audio_bsp/\libhal_bsp.a(alt_lseek.o)
 .debug_frame   0x0000182c       0x2c ../DE2_115_Audio_bsp/\libhal_bsp.a(alt_main.o)
 .debug_frame   0x00001858       0x48 ../DE2_115_Audio_bsp/\libhal_bsp.a(alt_malloc_lock.o)
 .debug_frame   0x000018a0       0x64 ../DE2_115_Audio_bsp/\libhal_bsp.a(alt_open.o)
 .debug_frame   0x00001904       0x48 ../DE2_115_Audio_bsp/\libhal_bsp.a(alt_read.o)
 .debug_frame   0x0000194c       0x2c ../DE2_115_Audio_bsp/\libhal_bsp.a(alt_release_fd.o)
 .debug_frame   0x00001978       0x2c ../DE2_115_Audio_bsp/\libhal_bsp.a(alt_sbrk.o)
 .debug_frame   0x000019a4       0x2c ../DE2_115_Audio_bsp/\libhal_bsp.a(alt_usleep.o)
 .debug_frame   0x000019d0       0x48 ../DE2_115_Audio_bsp/\libhal_bsp.a(alt_write.o)
 .debug_frame   0x00001a18       0x64 ../DE2_115_Audio_bsp/\libhal_bsp.a(alt_sys_init.o)
 .debug_frame   0x00001a7c       0xd4 ../DE2_115_Audio_bsp/\libhal_bsp.a(altera_avalon_cfi_flash.o)
 .debug_frame   0x00001b50      0x210 ../DE2_115_Audio_bsp/\libhal_bsp.a(altera_avalon_cfi_flash_table.o)
 .debug_frame   0x00001d60       0x80 ../DE2_115_Audio_bsp/\libhal_bsp.a(altera_avalon_jtag_uart_fd.o)
 .debug_frame   0x00001de0       0x80 ../DE2_115_Audio_bsp/\libhal_bsp.a(altera_avalon_jtag_uart_init.o)
 .debug_frame   0x00001e60       0x2c ../DE2_115_Audio_bsp/\libhal_bsp.a(altera_avalon_jtag_uart_ioctl.o)
 .debug_frame   0x00001e8c       0x2c ../DE2_115_Audio_bsp/\libhal_bsp.a(altera_avalon_jtag_uart_read.o)
 .debug_frame   0x00001eb8       0x2c ../DE2_115_Audio_bsp/\libhal_bsp.a(altera_avalon_jtag_uart_write.o)
 .debug_frame   0x00001ee4      0x114 ../DE2_115_Audio_bsp/\libhal_bsp.a(altera_avalon_lcd_16207.o)
 .debug_frame   0x00001ff8       0x2c ../DE2_115_Audio_bsp/\libhal_bsp.a(altera_avalon_lcd_16207_fd.o)
 .debug_frame   0x00002024       0x2c ../DE2_115_Audio_bsp/\libhal_bsp.a(alt_alarm_start.o)
 .debug_frame   0x00002050       0x2c ../DE2_115_Audio_bsp/\libhal_bsp.a(alt_busy_sleep.o)
 .debug_frame   0x0000207c       0x2c ../DE2_115_Audio_bsp/\libhal_bsp.a(alt_dcache_flush.o)
 .debug_frame   0x000020a8       0x2c ../DE2_115_Audio_bsp/\libhal_bsp.a(alt_dcache_flush_all.o)
 .debug_frame   0x000020d4       0x48 ../DE2_115_Audio_bsp/\libhal_bsp.a(alt_dev_llist_insert.o)
 .debug_frame   0x0000211c       0x2c ../DE2_115_Audio_bsp/\libhal_bsp.a(alt_do_ctors.o)
 .debug_frame   0x00002148       0x2c ../DE2_115_Audio_bsp/\libhal_bsp.a(alt_do_dtors.o)
 .debug_frame   0x00002174       0x2c ../DE2_115_Audio_bsp/\libhal_bsp.a(alt_find_dev.o)
 .debug_frame   0x000021a0       0x2c ../DE2_115_Audio_bsp/\libhal_bsp.a(alt_find_file.o)
 .debug_frame   0x000021cc       0x48 ../DE2_115_Audio_bsp/\libhal_bsp.a(alt_flash_dev.o)
 .debug_frame   0x00002214       0x2c ../DE2_115_Audio_bsp/\libhal_bsp.a(alt_get_fd.o)
 .debug_frame   0x00002240       0x2c ../DE2_115_Audio_bsp/\libhal_bsp.a(alt_icache_flush_all.o)
 .debug_frame   0x0000226c       0x80 ../DE2_115_Audio_bsp/\libhal_bsp.a(alt_iic.o)
 .debug_frame   0x000022ec       0x2c ../DE2_115_Audio_bsp/\libhal_bsp.a(alt_iic_isr_register.o)
 .debug_frame   0x00002318       0x48 ../DE2_115_Audio_bsp/\libhal_bsp.a(alt_io_redirect.o)
 .debug_frame   0x00002360       0x2c ../DE2_115_Audio_bsp/\libhal_bsp.a(alt_irq_handler.o)
 .debug_frame   0x0000238c       0x48 ../DE2_115_Audio_bsp/\libhal_bsp.a(alt_tick.o)
 .debug_frame   0x000023d4       0x2c ../DE2_115_Audio_bsp/\libhal_bsp.a(altera_nios2_qsys_irq.o)
 .debug_frame   0x00002400       0x80 ../DE2_115_Audio_bsp/\libhal_bsp.a(altera_avalon_cfi_flash_amd.o)
 .debug_frame   0x00002480       0x80 ../DE2_115_Audio_bsp/\libhal_bsp.a(altera_avalon_cfi_flash_intel.o)
 .debug_frame   0x00002500       0x2c ../DE2_115_Audio_bsp/\libhal_bsp.a(alt_icache_flush.o)
 .debug_frame   0x0000252c       0x20 d:/altera13.0sp1/nios2eds/bin/gnu/h-i686-mingw32/bin/../lib/gcc/nios2-elf/4.1.2/../../../../nios2-elf/lib\libc.a(lib_a-atexit.o)
 .debug_frame   0x0000254c       0x28 d:/altera13.0sp1/nios2eds/bin/gnu/h-i686-mingw32/bin/../lib/gcc/nios2-elf/4.1.2/../../../../nios2-elf/lib\libc.a(lib_a-exit.o)
 .debug_frame   0x00002574       0x20 d:/altera13.0sp1/nios2eds/bin/gnu/h-i686-mingw32/bin/../lib/gcc/nios2-elf/4.1.2/../../../../nios2-elf/lib\libc.a(lib_a-memcmp.o)
 .debug_frame   0x00002594       0x34 d:/altera13.0sp1/nios2eds/bin/gnu/h-i686-mingw32/bin/../lib/gcc/nios2-elf/4.1.2/../../../../nios2-elf/lib\libc.a(lib_a-__atexit.o)
 .debug_frame   0x000025c8       0x4c d:/altera13.0sp1/nios2eds/bin/gnu/h-i686-mingw32/bin/../lib/gcc/nios2-elf/4.1.2/../../../../nios2-elf/lib\libc.a(lib_a-__call_atexit.o)
 .debug_frame   0x00002614       0x48 ../DE2_115_Audio_bsp/\libhal_bsp.a(alt_exit.o)

.debug_str      0x00000000     0x2895
 *(.debug_str)
 .debug_str     0x00000000       0x44 obj/default/AUDIO.o
 .debug_str     0x00000044       0x45 obj/default/I2C.o
 .debug_str     0x00000089       0x20 obj/default/LCD.o
 .debug_str     0x000000a9       0x12 obj/default/LED.o
 .debug_str     0x000000bb       0x26 obj/default/SEG7.o
 .debug_str     0x000000e1       0x19 obj/default/debug.o
 .debug_str     0x000000fa       0x48 obj/default/main.o
 .debug_str     0x00000142      0x167 d:/altera13.0sp1/nios2eds/bin/gnu/h-i686-mingw32/bin/../lib/gcc/nios2-elf/4.1.2\libgcc.a(lib2-divmod.o)
                                0x1b4 (size before relaxing)
 .debug_str     0x000002a9      0x43c d:/altera13.0sp1/nios2eds/bin/gnu/h-i686-mingw32/bin/../lib/gcc/nios2-elf/4.1.2/../../../../nios2-elf/lib\libc.a(lib_a-fclose.o)
                                0x516 (size before relaxing)
 .debug_str     0x000006e5       0x65 d:/altera13.0sp1/nios2eds/bin/gnu/h-i686-mingw32/bin/../lib/gcc/nios2-elf/4.1.2/../../../../nios2-elf/lib\libc.a(lib_a-fflush.o)
                                0x532 (size before relaxing)
 .debug_str     0x0000074a      0x102 d:/altera13.0sp1/nios2eds/bin/gnu/h-i686-mingw32/bin/../lib/gcc/nios2-elf/4.1.2/../../../../nios2-elf/lib\libc.a(lib_a-findfp.o)
                                0x5f4 (size before relaxing)
 .debug_str     0x0000084c       0x4f d:/altera13.0sp1/nios2eds/bin/gnu/h-i686-mingw32/bin/../lib/gcc/nios2-elf/4.1.2/../../../../nios2-elf/lib\libc.a(lib_a-fopen.o)
                                0x525 (size before relaxing)
 .debug_str     0x0000089b      0x1e7 d:/altera13.0sp1/nios2eds/bin/gnu/h-i686-mingw32/bin/../lib/gcc/nios2-elf/4.1.2/../../../../nios2-elf/lib\libc.a(lib_a-freer.o)
                                0x643 (size before relaxing)
 .debug_str     0x00000a82      0x13a d:/altera13.0sp1/nios2eds/bin/gnu/h-i686-mingw32/bin/../lib/gcc/nios2-elf/4.1.2/../../../../nios2-elf/lib\libc.a(lib_a-fseek.o)
                                0x632 (size before relaxing)
 .debug_str     0x00000bbc       0xd4 d:/altera13.0sp1/nios2eds/bin/gnu/h-i686-mingw32/bin/../lib/gcc/nios2-elf/4.1.2/../../../../nios2-elf/lib\libc.a(lib_a-fstatr.o)
                                0x5f1 (size before relaxing)
 .debug_str     0x00000c90       0x5e d:/altera13.0sp1/nios2eds/bin/gnu/h-i686-mingw32/bin/../lib/gcc/nios2-elf/4.1.2/../../../../nios2-elf/lib\libc.a(lib_a-fwalk.o)
                                0x535 (size before relaxing)
 .debug_str     0x00000cee       0x87 d:/altera13.0sp1/nios2eds/bin/gnu/h-i686-mingw32/bin/../lib/gcc/nios2-elf/4.1.2/../../../../nios2-elf/lib\libc.a(lib_a-fwrite.o)
                                0x55f (size before relaxing)
 .debug_str     0x00000d75       0x46 d:/altera13.0sp1/nios2eds/bin/gnu/h-i686-mingw32/bin/../lib/gcc/nios2-elf/4.1.2/../../../../nios2-elf/lib\libc.a(lib_a-impure.o)
                                0x51a (size before relaxing)
 .debug_str     0x00000dbb       0x3d d:/altera13.0sp1/nios2eds/bin/gnu/h-i686-mingw32/bin/../lib/gcc/nios2-elf/4.1.2/../../../../nios2-elf/lib\libc.a(lib_a-int_errno.o)
                                0x163 (size before relaxing)
 .debug_str     0x00000df8       0x53 d:/altera13.0sp1/nios2eds/bin/gnu/h-i686-mingw32/bin/../lib/gcc/nios2-elf/4.1.2/../../../../nios2-elf/lib\libc.a(lib_a-makebuf.o)
                                0x606 (size before relaxing)
 .debug_str     0x00000e4b       0xef d:/altera13.0sp1/nios2eds/bin/gnu/h-i686-mingw32/bin/../lib/gcc/nios2-elf/4.1.2/../../../../nios2-elf/lib\libc.a(lib_a-mallocr.o)
                                0x6f1 (size before relaxing)
 .debug_str     0x00000f3a       0xe2 d:/altera13.0sp1/nios2eds/bin/gnu/h-i686-mingw32/bin/../lib/gcc/nios2-elf/4.1.2/../../../../nios2-elf/lib\libc.a(lib_a-memset.o)
                                0x17e (size before relaxing)
 .debug_str     0x0000101c       0x41 d:/altera13.0sp1/nios2eds/bin/gnu/h-i686-mingw32/bin/../lib/gcc/nios2-elf/4.1.2/../../../../nios2-elf/lib\libc.a(lib_a-openr.o)
                                0x50c (size before relaxing)
 .debug_str     0x0000105d       0x53 d:/altera13.0sp1/nios2eds/bin/gnu/h-i686-mingw32/bin/../lib/gcc/nios2-elf/4.1.2/../../../../nios2-elf/lib\libc.a(lib_a-printf.o)
                                0x523 (size before relaxing)
 .debug_str     0x000010b0       0x45 d:/altera13.0sp1/nios2eds/bin/gnu/h-i686-mingw32/bin/../lib/gcc/nios2-elf/4.1.2/../../../../nios2-elf/lib\libc.a(lib_a-puts.o)
                                0x549 (size before relaxing)
 .debug_str     0x000010f5       0x4d d:/altera13.0sp1/nios2eds/bin/gnu/h-i686-mingw32/bin/../lib/gcc/nios2-elf/4.1.2/../../../../nios2-elf/lib\libc.a(lib_a-refill.o)
                                0x51a (size before relaxing)
 .debug_str     0x00001142       0x50 d:/altera13.0sp1/nios2eds/bin/gnu/h-i686-mingw32/bin/../lib/gcc/nios2-elf/4.1.2/../../../../nios2-elf/lib\libc.a(lib_a-sbrkr.o)
                                0x50b (size before relaxing)
 .debug_str     0x00001192       0x4e d:/altera13.0sp1/nios2eds/bin/gnu/h-i686-mingw32/bin/../lib/gcc/nios2-elf/4.1.2/../../../../nios2-elf/lib\libc.a(lib_a-sprintf.o)
                                0x52b (size before relaxing)
 .debug_str     0x000011e0       0x5b d:/altera13.0sp1/nios2eds/bin/gnu/h-i686-mingw32/bin/../lib/gcc/nios2-elf/4.1.2/../../../../nios2-elf/lib\libc.a(lib_a-stdio.o)
                                0x531 (size before relaxing)
 .debug_str     0x0000123b       0x42 d:/altera13.0sp1/nios2eds/bin/gnu/h-i686-mingw32/bin/../lib/gcc/nios2-elf/4.1.2/../../../../nios2-elf/lib\libc.a(lib_a-strlen.o)
                                0x17d (size before relaxing)
 .debug_str     0x0000127d      0x180 d:/altera13.0sp1/nios2eds/bin/gnu/h-i686-mingw32/bin/../lib/gcc/nios2-elf/4.1.2/../../../../nios2-elf/lib\libc.a(lib_a-vfprintf.o)
                                0x6f8 (size before relaxing)
 .debug_str     0x000013fd       0x54 d:/altera13.0sp1/nios2eds/bin/gnu/h-i686-mingw32/bin/../lib/gcc/nios2-elf/4.1.2/../../../../nios2-elf/lib\libc.a(lib_a-vsnprintf.o)
                                0x53d (size before relaxing)
 .debug_str     0x00001451       0x4c d:/altera13.0sp1/nios2eds/bin/gnu/h-i686-mingw32/bin/../lib/gcc/nios2-elf/4.1.2/../../../../nios2-elf/lib\libc.a(lib_a-writer.o)
                                0x50e (size before relaxing)
 .debug_str     0x0000149d       0x46 d:/altera13.0sp1/nios2eds/bin/gnu/h-i686-mingw32/bin/../lib/gcc/nios2-elf/4.1.2/../../../../nios2-elf/lib\libc.a(lib_a-wsetup.o)
                                0x50c (size before relaxing)
 .debug_str     0x000014e3       0x43 d:/altera13.0sp1/nios2eds/bin/gnu/h-i686-mingw32/bin/../lib/gcc/nios2-elf/4.1.2/../../../../nios2-elf/lib\libc.a(lib_a-closer.o)
                                0x4fe (size before relaxing)
 .debug_str     0x00001526      0x102 d:/altera13.0sp1/nios2eds/bin/gnu/h-i686-mingw32/bin/../lib/gcc/nios2-elf/4.1.2/../../../../nios2-elf/lib\libc.a(lib_a-dtoa.o)
                                0x601 (size before relaxing)
 .debug_str     0x00001628       0x47 d:/altera13.0sp1/nios2eds/bin/gnu/h-i686-mingw32/bin/../lib/gcc/nios2-elf/4.1.2/../../../../nios2-elf/lib\libc.a(lib_a-flags.o)
                                0x501 (size before relaxing)
 .debug_str     0x0000166f       0x66 d:/altera13.0sp1/nios2eds/bin/gnu/h-i686-mingw32/bin/../lib/gcc/nios2-elf/4.1.2/../../../../nios2-elf/lib\libc.a(lib_a-fvwrite.o)
                                0x563 (size before relaxing)
 .debug_str     0x000016d5       0x45 d:/altera13.0sp1/nios2eds/bin/gnu/h-i686-mingw32/bin/../lib/gcc/nios2-elf/4.1.2/../../../../nios2-elf/lib\libc.a(lib_a-isattyr.o)
                                0x500 (size before relaxing)
 .debug_str     0x0000171a      0x225 d:/altera13.0sp1/nios2eds/bin/gnu/h-i686-mingw32/bin/../lib/gcc/nios2-elf/4.1.2/../../../../nios2-elf/lib\libc.a(lib_a-locale.o)
                                0x6a9 (size before relaxing)
 .debug_str     0x0000193f       0x43 d:/altera13.0sp1/nios2eds/bin/gnu/h-i686-mingw32/bin/../lib/gcc/nios2-elf/4.1.2/../../../../nios2-elf/lib\libc.a(lib_a-lseekr.o)
                                0x50c (size before relaxing)
 .debug_str     0x00001982       0x55 d:/altera13.0sp1/nios2eds/bin/gnu/h-i686-mingw32/bin/../lib/gcc/nios2-elf/4.1.2/../../../../nios2-elf/lib\libc.a(lib_a-memchr.o)
                                0x18b (size before relaxing)
 .debug_str     0x000019d7       0x69 d:/altera13.0sp1/nios2eds/bin/gnu/h-i686-mingw32/bin/../lib/gcc/nios2-elf/4.1.2/../../../../nios2-elf/lib\libc.a(lib_a-memcpy.o)
                                0x128 (size before relaxing)
 .debug_str     0x00001a40       0x4d d:/altera13.0sp1/nios2eds/bin/gnu/h-i686-mingw32/bin/../lib/gcc/nios2-elf/4.1.2/../../../../nios2-elf/lib\libc.a(lib_a-memmove.o)
                                0x19d (size before relaxing)
 .debug_str     0x00001a8d       0xf8 d:/altera13.0sp1/nios2eds/bin/gnu/h-i686-mingw32/bin/../lib/gcc/nios2-elf/4.1.2/../../../../nios2-elf/lib\libc.a(lib_a-mprec.o)
                                0x60e (size before relaxing)
 .debug_str     0x00001b85       0x41 d:/altera13.0sp1/nios2eds/bin/gnu/h-i686-mingw32/bin/../lib/gcc/nios2-elf/4.1.2/../../../../nios2-elf/lib\libc.a(lib_a-readr.o)
                                0x50c (size before relaxing)
 .debug_str     0x00001bc6       0x59 d:/altera13.0sp1/nios2eds/bin/gnu/h-i686-mingw32/bin/../lib/gcc/nios2-elf/4.1.2/../../../../nios2-elf/lib\libc.a(lib_a-reallocr.o)
                                0x5c3 (size before relaxing)
 .debug_str     0x00001c1f       0xdc d:/altera13.0sp1/nios2eds/bin/gnu/h-i686-mingw32/bin/../lib/gcc/nios2-elf/4.1.2/../../../../nios2-elf/lib\libc.a(lib_a-s_isinfd.o)
                                0x18a (size before relaxing)
 .debug_str     0x00001cfb       0x46 d:/altera13.0sp1/nios2eds/bin/gnu/h-i686-mingw32/bin/../lib/gcc/nios2-elf/4.1.2/../../../../nios2-elf/lib\libc.a(lib_a-s_isnand.o)
                                0x18a (size before relaxing)
 .debug_str     0x00001d41       0x42 d:/altera13.0sp1/nios2eds/bin/gnu/h-i686-mingw32/bin/../lib/gcc/nios2-elf/4.1.2/../../../../nios2-elf/lib\libc.a(lib_a-strcmp.o)
                                0x163 (size before relaxing)
 .debug_str     0x00001d83       0x19 d:/altera13.0sp1/nios2eds/bin/gnu/h-i686-mingw32/bin/../lib/gcc/nios2-elf/4.1.2/../../../../nios2-elf/lib\libc.a(lib_a-callocr.o)
                                0x542 (size before relaxing)
 .debug_str     0x00001d9c       0xb2 d:/altera13.0sp1/nios2eds/bin/gnu/h-i686-mingw32/bin/../lib/gcc/nios2-elf/4.1.2\libgcc.a(_udivdi3.o)
                                0x1f7 (size before relaxing)
 .debug_str     0x00001e4e        0xa d:/altera13.0sp1/nios2eds/bin/gnu/h-i686-mingw32/bin/../lib/gcc/nios2-elf/4.1.2\libgcc.a(_umoddi3.o)
                                0x1f7 (size before relaxing)
 .debug_str     0x00001e58      0x137 d:/altera13.0sp1/nios2eds/bin/gnu/h-i686-mingw32/bin/../lib/gcc/nios2-elf/4.1.2\libgcc.a(_addsub_df.o)
                                0x26f (size before relaxing)
 .debug_str     0x00001f8f       0x40 d:/altera13.0sp1/nios2eds/bin/gnu/h-i686-mingw32/bin/../lib/gcc/nios2-elf/4.1.2\libgcc.a(_mul_df.o)
                                0x241 (size before relaxing)
 .debug_str     0x00001fcf       0x35 d:/altera13.0sp1/nios2eds/bin/gnu/h-i686-mingw32/bin/../lib/gcc/nios2-elf/4.1.2\libgcc.a(_div_df.o)
                                0x231 (size before relaxing)
 .debug_str     0x00002004        0x8 d:/altera13.0sp1/nios2eds/bin/gnu/h-i686-mingw32/bin/../lib/gcc/nios2-elf/4.1.2\libgcc.a(_eq_df.o)
                                0x1fe (size before relaxing)
 .debug_str     0x0000200c        0x8 d:/altera13.0sp1/nios2eds/bin/gnu/h-i686-mingw32/bin/../lib/gcc/nios2-elf/4.1.2\libgcc.a(_ne_df.o)
                                0x1fe (size before relaxing)
 .debug_str     0x00002014        0x8 d:/altera13.0sp1/nios2eds/bin/gnu/h-i686-mingw32/bin/../lib/gcc/nios2-elf/4.1.2\libgcc.a(_gt_df.o)
                                0x1fe (size before relaxing)
 .debug_str     0x0000201c        0x8 d:/altera13.0sp1/nios2eds/bin/gnu/h-i686-mingw32/bin/../lib/gcc/nios2-elf/4.1.2\libgcc.a(_ge_df.o)
                                0x1fe (size before relaxing)
 .debug_str     0x00002024        0x8 d:/altera13.0sp1/nios2eds/bin/gnu/h-i686-mingw32/bin/../lib/gcc/nios2-elf/4.1.2\libgcc.a(_lt_df.o)
                                0x1fe (size before relaxing)
 .debug_str     0x0000202c       0x18 d:/altera13.0sp1/nios2eds/bin/gnu/h-i686-mingw32/bin/../lib/gcc/nios2-elf/4.1.2\libgcc.a(_si_to_df.o)
                                0x1de (size before relaxing)
 .debug_str     0x00002044        0xa d:/altera13.0sp1/nios2eds/bin/gnu/h-i686-mingw32/bin/../lib/gcc/nios2-elf/4.1.2\libgcc.a(_df_to_si.o)
                                0x207 (size before relaxing)
 .debug_str     0x00000000      0x1a3 d:/altera13.0sp1/nios2eds/bin/gnu/h-i686-mingw32/bin/../lib/gcc/nios2-elf/4.1.2\libgcc.a(_thenan_df.o)
 .debug_str     0x0000204e       0x14 d:/altera13.0sp1/nios2eds/bin/gnu/h-i686-mingw32/bin/../lib/gcc/nios2-elf/4.1.2\libgcc.a(_usi_to_df.o)
                                0x1da (size before relaxing)
 .debug_str     0x00002062        0x9 d:/altera13.0sp1/nios2eds/bin/gnu/h-i686-mingw32/bin/../lib/gcc/nios2-elf/4.1.2\libgcc.a(_muldi3.o)
                                0x1ac (size before relaxing)
 .debug_str     0x00000000      0x161 d:/altera13.0sp1/nios2eds/bin/gnu/h-i686-mingw32/bin/../lib/gcc/nios2-elf/4.1.2\libgcc.a(_clz.o)
 .debug_str     0x0000206b        0x9 d:/altera13.0sp1/nios2eds/bin/gnu/h-i686-mingw32/bin/../lib/gcc/nios2-elf/4.1.2\libgcc.a(_clzsi2.o)
                                0x17e (size before relaxing)
 .debug_str     0x00002074       0x10 d:/altera13.0sp1/nios2eds/bin/gnu/h-i686-mingw32/bin/../lib/gcc/nios2-elf/4.1.2\libgcc.a(_pack_df.o)
                                0x206 (size before relaxing)
 .debug_str     0x00002084        0xb d:/altera13.0sp1/nios2eds/bin/gnu/h-i686-mingw32/bin/../lib/gcc/nios2-elf/4.1.2\libgcc.a(_unpack_df.o)
                                0x1e8 (size before relaxing)
 .debug_str     0x0000208f       0x10 d:/altera13.0sp1/nios2eds/bin/gnu/h-i686-mingw32/bin/../lib/gcc/nios2-elf/4.1.2\libgcc.a(_fpcmp_parts_df.o)
                                0x1c6 (size before relaxing)
 .debug_str     0x0000209f       0x12 ../DE2_115_Audio_bsp/\libhal_bsp.a(alt_close.o)
 .debug_str     0x000020b1       0x12 ../DE2_115_Audio_bsp/\libhal_bsp.a(alt_dev.o)
 .debug_str     0x000020c3       0x12 ../DE2_115_Audio_bsp/\libhal_bsp.a(alt_errno.o)
 .debug_str     0x000020d5       0x12 ../DE2_115_Audio_bsp/\libhal_bsp.a(alt_fstat.o)
 .debug_str     0x000020e7       0x21 ../DE2_115_Audio_bsp/\libhal_bsp.a(alt_irq_register.o)
 .debug_str     0x00002108       0x12 ../DE2_115_Audio_bsp/\libhal_bsp.a(alt_isatty.o)
 .debug_str     0x0000211a       0x12 ../DE2_115_Audio_bsp/\libhal_bsp.a(alt_load.o)
 .debug_str     0x0000212c       0x12 ../DE2_115_Audio_bsp/\libhal_bsp.a(alt_lseek.o)
 .debug_str     0x0000213e       0x12 ../DE2_115_Audio_bsp/\libhal_bsp.a(alt_main.o)
 .debug_str     0x00002150       0x20 ../DE2_115_Audio_bsp/\libhal_bsp.a(alt_malloc_lock.o)
 .debug_str     0x00002170       0x12 ../DE2_115_Audio_bsp/\libhal_bsp.a(alt_open.o)
 .debug_str     0x00002182       0x12 ../DE2_115_Audio_bsp/\libhal_bsp.a(alt_read.o)
 .debug_str     0x00002194       0x1a ../DE2_115_Audio_bsp/\libhal_bsp.a(alt_sbrk.o)
 .debug_str     0x000021ae       0x12 ../DE2_115_Audio_bsp/\libhal_bsp.a(alt_usleep.o)
 .debug_str     0x000021c0       0x12 ../DE2_115_Audio_bsp/\libhal_bsp.a(alt_write.o)
 .debug_str     0x000021d2       0x3f ../DE2_115_Audio_bsp/\libhal_bsp.a(alt_sys_init.o)
 .debug_str     0x00002211       0x82 ../DE2_115_Audio_bsp/\libhal_bsp.a(altera_avalon_cfi_flash.o)
 .debug_str     0x00002293       0x6d ../DE2_115_Audio_bsp/\libhal_bsp.a(altera_avalon_cfi_flash_table.o)
 .debug_str     0x00002300       0x12 ../DE2_115_Audio_bsp/\libhal_bsp.a(altera_avalon_jtag_uart_fd.o)
 .debug_str     0x00002312       0x1a ../DE2_115_Audio_bsp/\libhal_bsp.a(altera_avalon_jtag_uart_init.o)
 .debug_str     0x0000232c       0x12 ../DE2_115_Audio_bsp/\libhal_bsp.a(altera_avalon_jtag_uart_ioctl.o)
 .debug_str     0x0000233e       0x1a ../DE2_115_Audio_bsp/\libhal_bsp.a(altera_avalon_jtag_uart_read.o)
 .debug_str     0x00002358       0x1a ../DE2_115_Audio_bsp/\libhal_bsp.a(altera_avalon_jtag_uart_write.o)
 .debug_str     0x00002372       0x25 ../DE2_115_Audio_bsp/\libhal_bsp.a(altera_avalon_lcd_16207.o)
 .debug_str     0x00002397       0x12 ../DE2_115_Audio_bsp/\libhal_bsp.a(altera_avalon_lcd_16207_fd.o)
 .debug_str     0x000023a9       0x23 ../DE2_115_Audio_bsp/\libhal_bsp.a(alt_alarm_start.o)
 .debug_str     0x000023cc       0x12 ../DE2_115_Audio_bsp/\libhal_bsp.a(alt_busy_sleep.o)
 .debug_str     0x000023de       0x12 ../DE2_115_Audio_bsp/\libhal_bsp.a(alt_dcache_flush.o)
 .debug_str     0x000023f0       0x12 ../DE2_115_Audio_bsp/\libhal_bsp.a(alt_dcache_flush_all.o)
 .debug_str     0x00002402       0x12 ../DE2_115_Audio_bsp/\libhal_bsp.a(alt_dev_llist_insert.o)
 .debug_str     0x00002414       0x12 ../DE2_115_Audio_bsp/\libhal_bsp.a(alt_find_dev.o)
 .debug_str     0x00002426       0x12 ../DE2_115_Audio_bsp/\libhal_bsp.a(alt_find_file.o)
 .debug_str     0x00002438       0x2d ../DE2_115_Audio_bsp/\libhal_bsp.a(alt_flash_dev.o)
 .debug_str     0x00002465       0x12 ../DE2_115_Audio_bsp/\libhal_bsp.a(alt_get_fd.o)
 .debug_str     0x00002477       0x12 ../DE2_115_Audio_bsp/\libhal_bsp.a(alt_icache_flush_all.o)
 .debug_str     0x00002489       0x18 ../DE2_115_Audio_bsp/\libhal_bsp.a(alt_iic.o)
 .debug_str     0x000024a1       0x1a ../DE2_115_Audio_bsp/\libhal_bsp.a(alt_iic_isr_register.o)
 .debug_str     0x000024bb       0x12 ../DE2_115_Audio_bsp/\libhal_bsp.a(alt_io_redirect.o)
 .debug_str     0x000024cd       0x12 ../DE2_115_Audio_bsp/\libhal_bsp.a(alt_irq_handler.o)
 .debug_str     0x000024df       0x1a ../DE2_115_Audio_bsp/\libhal_bsp.a(alt_tick.o)
 .debug_str     0x000024f9       0x12 ../DE2_115_Audio_bsp/\libhal_bsp.a(altera_nios2_qsys_irq.o)
 .debug_str     0x0000250b       0x76 ../DE2_115_Audio_bsp/\libhal_bsp.a(altera_avalon_cfi_flash_amd.o)
 .debug_str     0x00002581       0x7d ../DE2_115_Audio_bsp/\libhal_bsp.a(altera_avalon_cfi_flash_intel.o)
 .debug_str     0x000025fe       0x12 ../DE2_115_Audio_bsp/\libhal_bsp.a(alt_icache_flush.o)
 .debug_str     0x00002610       0x3b d:/altera13.0sp1/nios2eds/bin/gnu/h-i686-mingw32/bin/../lib/gcc/nios2-elf/4.1.2/../../../../nios2-elf/lib\libc.a(lib_a-atexit.o)
                                0x1bf (size before relaxing)
 .debug_str     0x0000264b       0xe2 d:/altera13.0sp1/nios2eds/bin/gnu/h-i686-mingw32/bin/../lib/gcc/nios2-elf/4.1.2/../../../../nios2-elf/lib\libc.a(lib_a-ctype_.o)
                                0x105 (size before relaxing)
 .debug_str     0x0000272d       0x3e d:/altera13.0sp1/nios2eds/bin/gnu/h-i686-mingw32/bin/../lib/gcc/nios2-elf/4.1.2/../../../../nios2-elf/lib\libc.a(lib_a-exit.o)
                                0x50c (size before relaxing)
 .debug_str     0x0000276b       0x42 d:/altera13.0sp1/nios2eds/bin/gnu/h-i686-mingw32/bin/../lib/gcc/nios2-elf/4.1.2/../../../../nios2-elf/lib\libc.a(lib_a-memcmp.o)
                                0x16a (size before relaxing)
 .debug_str     0x000027ad       0x51 d:/altera13.0sp1/nios2eds/bin/gnu/h-i686-mingw32/bin/../lib/gcc/nios2-elf/4.1.2/../../../../nios2-elf/lib\libc.a(lib_a-__atexit.o)
                                0x524 (size before relaxing)
 .debug_str     0x000027fe       0x7b d:/altera13.0sp1/nios2eds/bin/gnu/h-i686-mingw32/bin/../lib/gcc/nios2-elf/4.1.2/../../../../nios2-elf/lib\libc.a(lib_a-__call_atexit.o)
                                0x54e (size before relaxing)
 .debug_str     0x00002879       0x1c ../DE2_115_Audio_bsp/\libhal_bsp.a(alt_exit.o)

.debug_loc      0x00000000     0xd9cb
 *(.debug_loc)
 .debug_loc     0x00000000      0x387 obj/default/AUDIO.o
 .debug_loc     0x00000387      0x12d obj/default/I2C.o
 .debug_loc     0x000004b4       0xac obj/default/LCD.o
 .debug_loc     0x00000560       0xac obj/default/LED.o
 .debug_loc     0x0000060c       0xd7 obj/default/SEG7.o
 .debug_loc     0x000006e3       0xad obj/default/debug.o
 .debug_loc     0x00000790      0x230 obj/default/main.o
 .debug_loc     0x000009c0      0x1d2 d:/altera13.0sp1/nios2eds/bin/gnu/h-i686-mingw32/bin/../lib/gcc/nios2-elf/4.1.2\libgcc.a(lib2-divmod.o)
 .debug_loc     0x00000b92       0xe4 d:/altera13.0sp1/nios2eds/bin/gnu/h-i686-mingw32/bin/../lib/gcc/nios2-elf/4.1.2/../../../../nios2-elf/lib\libc.a(lib_a-fclose.o)
 .debug_loc     0x00000c76      0x1f6 d:/altera13.0sp1/nios2eds/bin/gnu/h-i686-mingw32/bin/../lib/gcc/nios2-elf/4.1.2/../../../../nios2-elf/lib\libc.a(lib_a-fflush.o)
 .debug_loc     0x00000e6c      0x19f d:/altera13.0sp1/nios2eds/bin/gnu/h-i686-mingw32/bin/../lib/gcc/nios2-elf/4.1.2/../../../../nios2-elf/lib\libc.a(lib_a-findfp.o)
 .debug_loc     0x0000100b      0x1c9 d:/altera13.0sp1/nios2eds/bin/gnu/h-i686-mingw32/bin/../lib/gcc/nios2-elf/4.1.2/../../../../nios2-elf/lib\libc.a(lib_a-fopen.o)
 .debug_loc     0x000011d4      0x4a7 d:/altera13.0sp1/nios2eds/bin/gnu/h-i686-mingw32/bin/../lib/gcc/nios2-elf/4.1.2/../../../../nios2-elf/lib\libc.a(lib_a-freer.o)
 .debug_loc     0x0000167b      0x348 d:/altera13.0sp1/nios2eds/bin/gnu/h-i686-mingw32/bin/../lib/gcc/nios2-elf/4.1.2/../../../../nios2-elf/lib\libc.a(lib_a-fseek.o)
 .debug_loc     0x000019c3       0x79 d:/altera13.0sp1/nios2eds/bin/gnu/h-i686-mingw32/bin/../lib/gcc/nios2-elf/4.1.2/../../../../nios2-elf/lib\libc.a(lib_a-fstatr.o)
 .debug_loc     0x00001a3c      0x1d2 d:/altera13.0sp1/nios2eds/bin/gnu/h-i686-mingw32/bin/../lib/gcc/nios2-elf/4.1.2/../../../../nios2-elf/lib\libc.a(lib_a-fwalk.o)
 .debug_loc     0x00001c0e      0x18e d:/altera13.0sp1/nios2eds/bin/gnu/h-i686-mingw32/bin/../lib/gcc/nios2-elf/4.1.2/../../../../nios2-elf/lib\libc.a(lib_a-fwrite.o)
 .debug_loc     0x00001d9c      0x11c d:/altera13.0sp1/nios2eds/bin/gnu/h-i686-mingw32/bin/../lib/gcc/nios2-elf/4.1.2/../../../../nios2-elf/lib\libc.a(lib_a-makebuf.o)
 .debug_loc     0x00001eb8      0xaeb d:/altera13.0sp1/nios2eds/bin/gnu/h-i686-mingw32/bin/../lib/gcc/nios2-elf/4.1.2/../../../../nios2-elf/lib\libc.a(lib_a-mallocr.o)
 .debug_loc     0x000029a3       0xa1 d:/altera13.0sp1/nios2eds/bin/gnu/h-i686-mingw32/bin/../lib/gcc/nios2-elf/4.1.2/../../../../nios2-elf/lib\libc.a(lib_a-memset.o)
 .debug_loc     0x00002a44       0x97 d:/altera13.0sp1/nios2eds/bin/gnu/h-i686-mingw32/bin/../lib/gcc/nios2-elf/4.1.2/../../../../nios2-elf/lib\libc.a(lib_a-openr.o)
 .debug_loc     0x00002adb       0xcb d:/altera13.0sp1/nios2eds/bin/gnu/h-i686-mingw32/bin/../lib/gcc/nios2-elf/4.1.2/../../../../nios2-elf/lib\libc.a(lib_a-printf.o)
 .debug_loc     0x00002ba6       0xa2 d:/altera13.0sp1/nios2eds/bin/gnu/h-i686-mingw32/bin/../lib/gcc/nios2-elf/4.1.2/../../../../nios2-elf/lib\libc.a(lib_a-puts.o)
 .debug_loc     0x00002c48       0xd1 d:/altera13.0sp1/nios2eds/bin/gnu/h-i686-mingw32/bin/../lib/gcc/nios2-elf/4.1.2/../../../../nios2-elf/lib\libc.a(lib_a-refill.o)
 .debug_loc     0x00002d19       0x5b d:/altera13.0sp1/nios2eds/bin/gnu/h-i686-mingw32/bin/../lib/gcc/nios2-elf/4.1.2/../../../../nios2-elf/lib\libc.a(lib_a-sbrkr.o)
 .debug_loc     0x00002d74       0xc0 d:/altera13.0sp1/nios2eds/bin/gnu/h-i686-mingw32/bin/../lib/gcc/nios2-elf/4.1.2/../../../../nios2-elf/lib\libc.a(lib_a-sprintf.o)
 .debug_loc     0x00002e34      0x21f d:/altera13.0sp1/nios2eds/bin/gnu/h-i686-mingw32/bin/../lib/gcc/nios2-elf/4.1.2/../../../../nios2-elf/lib\libc.a(lib_a-stdio.o)
 .debug_loc     0x00003053       0x3c d:/altera13.0sp1/nios2eds/bin/gnu/h-i686-mingw32/bin/../lib/gcc/nios2-elf/4.1.2/../../../../nios2-elf/lib\libc.a(lib_a-strlen.o)
 .debug_loc     0x0000308f     0x1e0d d:/altera13.0sp1/nios2eds/bin/gnu/h-i686-mingw32/bin/../lib/gcc/nios2-elf/4.1.2/../../../../nios2-elf/lib\libc.a(lib_a-vfprintf.o)
 .debug_loc     0x00004e9c      0x1a5 d:/altera13.0sp1/nios2eds/bin/gnu/h-i686-mingw32/bin/../lib/gcc/nios2-elf/4.1.2/../../../../nios2-elf/lib\libc.a(lib_a-vsnprintf.o)
 .debug_loc     0x00005041       0x97 d:/altera13.0sp1/nios2eds/bin/gnu/h-i686-mingw32/bin/../lib/gcc/nios2-elf/4.1.2/../../../../nios2-elf/lib\libc.a(lib_a-writer.o)
 .debug_loc     0x000050d8       0x7c d:/altera13.0sp1/nios2eds/bin/gnu/h-i686-mingw32/bin/../lib/gcc/nios2-elf/4.1.2/../../../../nios2-elf/lib\libc.a(lib_a-wsetup.o)
 .debug_loc     0x00005154       0x5b d:/altera13.0sp1/nios2eds/bin/gnu/h-i686-mingw32/bin/../lib/gcc/nios2-elf/4.1.2/../../../../nios2-elf/lib\libc.a(lib_a-closer.o)
 .debug_loc     0x000051af     0x1dfa d:/altera13.0sp1/nios2eds/bin/gnu/h-i686-mingw32/bin/../lib/gcc/nios2-elf/4.1.2/../../../../nios2-elf/lib\libc.a(lib_a-dtoa.o)
 .debug_loc     0x00006fa9       0xa4 d:/altera13.0sp1/nios2eds/bin/gnu/h-i686-mingw32/bin/../lib/gcc/nios2-elf/4.1.2/../../../../nios2-elf/lib\libc.a(lib_a-flags.o)
 .debug_loc     0x0000704d      0x4e4 d:/altera13.0sp1/nios2eds/bin/gnu/h-i686-mingw32/bin/../lib/gcc/nios2-elf/4.1.2/../../../../nios2-elf/lib\libc.a(lib_a-fvwrite.o)
 .debug_loc     0x00007531       0x5b d:/altera13.0sp1/nios2eds/bin/gnu/h-i686-mingw32/bin/../lib/gcc/nios2-elf/4.1.2/../../../../nios2-elf/lib\libc.a(lib_a-isattyr.o)
 .debug_loc     0x0000758c       0xe1 d:/altera13.0sp1/nios2eds/bin/gnu/h-i686-mingw32/bin/../lib/gcc/nios2-elf/4.1.2/../../../../nios2-elf/lib\libc.a(lib_a-locale.o)
 .debug_loc     0x0000766d       0x97 d:/altera13.0sp1/nios2eds/bin/gnu/h-i686-mingw32/bin/../lib/gcc/nios2-elf/4.1.2/../../../../nios2-elf/lib\libc.a(lib_a-lseekr.o)
 .debug_loc     0x00007704      0x106 d:/altera13.0sp1/nios2eds/bin/gnu/h-i686-mingw32/bin/../lib/gcc/nios2-elf/4.1.2/../../../../nios2-elf/lib\libc.a(lib_a-memchr.o)
 .debug_loc     0x0000780a       0xca d:/altera13.0sp1/nios2eds/bin/gnu/h-i686-mingw32/bin/../lib/gcc/nios2-elf/4.1.2/../../../../nios2-elf/lib\libc.a(lib_a-memcpy.o)
 .debug_loc     0x000078d4      0x117 d:/altera13.0sp1/nios2eds/bin/gnu/h-i686-mingw32/bin/../lib/gcc/nios2-elf/4.1.2/../../../../nios2-elf/lib\libc.a(lib_a-memmove.o)
 .debug_loc     0x000079eb     0x14d6 d:/altera13.0sp1/nios2eds/bin/gnu/h-i686-mingw32/bin/../lib/gcc/nios2-elf/4.1.2/../../../../nios2-elf/lib\libc.a(lib_a-mprec.o)
 .debug_loc     0x00008ec1       0x97 d:/altera13.0sp1/nios2eds/bin/gnu/h-i686-mingw32/bin/../lib/gcc/nios2-elf/4.1.2/../../../../nios2-elf/lib\libc.a(lib_a-readr.o)
 .debug_loc     0x00008f58      0x8c0 d:/altera13.0sp1/nios2eds/bin/gnu/h-i686-mingw32/bin/../lib/gcc/nios2-elf/4.1.2/../../../../nios2-elf/lib\libc.a(lib_a-reallocr.o)
 .debug_loc     0x00009818       0x36 d:/altera13.0sp1/nios2eds/bin/gnu/h-i686-mingw32/bin/../lib/gcc/nios2-elf/4.1.2/../../../../nios2-elf/lib\libc.a(lib_a-s_isinfd.o)
 .debug_loc     0x0000984e       0x18 d:/altera13.0sp1/nios2eds/bin/gnu/h-i686-mingw32/bin/../lib/gcc/nios2-elf/4.1.2/../../../../nios2-elf/lib\libc.a(lib_a-s_isnand.o)
 .debug_loc     0x00009866       0x65 d:/altera13.0sp1/nios2eds/bin/gnu/h-i686-mingw32/bin/../lib/gcc/nios2-elf/4.1.2/../../../../nios2-elf/lib\libc.a(lib_a-strcmp.o)
 .debug_loc     0x000098cb       0xe9 d:/altera13.0sp1/nios2eds/bin/gnu/h-i686-mingw32/bin/../lib/gcc/nios2-elf/4.1.2/../../../../nios2-elf/lib\libc.a(lib_a-callocr.o)
 .debug_loc     0x000099b4      0xc12 d:/altera13.0sp1/nios2eds/bin/gnu/h-i686-mingw32/bin/../lib/gcc/nios2-elf/4.1.2\libgcc.a(_udivdi3.o)
 .debug_loc     0x0000a5c6      0xc26 d:/altera13.0sp1/nios2eds/bin/gnu/h-i686-mingw32/bin/../lib/gcc/nios2-elf/4.1.2\libgcc.a(_umoddi3.o)
 .debug_loc     0x0000b1ec      0x47a d:/altera13.0sp1/nios2eds/bin/gnu/h-i686-mingw32/bin/../lib/gcc/nios2-elf/4.1.2\libgcc.a(_addsub_df.o)
 .debug_loc     0x0000b666      0x3b4 d:/altera13.0sp1/nios2eds/bin/gnu/h-i686-mingw32/bin/../lib/gcc/nios2-elf/4.1.2\libgcc.a(_mul_df.o)
 .debug_loc     0x0000ba1a      0x1df d:/altera13.0sp1/nios2eds/bin/gnu/h-i686-mingw32/bin/../lib/gcc/nios2-elf/4.1.2\libgcc.a(_div_df.o)
 .debug_loc     0x0000bbf9       0x70 d:/altera13.0sp1/nios2eds/bin/gnu/h-i686-mingw32/bin/../lib/gcc/nios2-elf/4.1.2\libgcc.a(_eq_df.o)
 .debug_loc     0x0000bc69       0x70 d:/altera13.0sp1/nios2eds/bin/gnu/h-i686-mingw32/bin/../lib/gcc/nios2-elf/4.1.2\libgcc.a(_ne_df.o)
 .debug_loc     0x0000bcd9       0x70 d:/altera13.0sp1/nios2eds/bin/gnu/h-i686-mingw32/bin/../lib/gcc/nios2-elf/4.1.2\libgcc.a(_gt_df.o)
 .debug_loc     0x0000bd49       0x70 d:/altera13.0sp1/nios2eds/bin/gnu/h-i686-mingw32/bin/../lib/gcc/nios2-elf/4.1.2\libgcc.a(_ge_df.o)
 .debug_loc     0x0000bdb9       0x70 d:/altera13.0sp1/nios2eds/bin/gnu/h-i686-mingw32/bin/../lib/gcc/nios2-elf/4.1.2\libgcc.a(_lt_df.o)
 .debug_loc     0x0000be29       0x9a d:/altera13.0sp1/nios2eds/bin/gnu/h-i686-mingw32/bin/../lib/gcc/nios2-elf/4.1.2\libgcc.a(_si_to_df.o)
 .debug_loc     0x0000bec3       0x8b d:/altera13.0sp1/nios2eds/bin/gnu/h-i686-mingw32/bin/../lib/gcc/nios2-elf/4.1.2\libgcc.a(_df_to_si.o)
 .debug_loc     0x0000bf4e       0x5b d:/altera13.0sp1/nios2eds/bin/gnu/h-i686-mingw32/bin/../lib/gcc/nios2-elf/4.1.2\libgcc.a(_usi_to_df.o)
 .debug_loc     0x0000bfa9       0xc4 d:/altera13.0sp1/nios2eds/bin/gnu/h-i686-mingw32/bin/../lib/gcc/nios2-elf/4.1.2\libgcc.a(_muldi3.o)
 .debug_loc     0x0000c06d       0x1e d:/altera13.0sp1/nios2eds/bin/gnu/h-i686-mingw32/bin/../lib/gcc/nios2-elf/4.1.2\libgcc.a(_clzsi2.o)
 .debug_loc     0x0000c08b      0x184 d:/altera13.0sp1/nios2eds/bin/gnu/h-i686-mingw32/bin/../lib/gcc/nios2-elf/4.1.2\libgcc.a(_pack_df.o)
 .debug_loc     0x0000c20f       0xe5 d:/altera13.0sp1/nios2eds/bin/gnu/h-i686-mingw32/bin/../lib/gcc/nios2-elf/4.1.2\libgcc.a(_unpack_df.o)
 .debug_loc     0x0000c2f4       0x56 ../DE2_115_Audio_bsp/\libhal_bsp.a(alt_close.o)
 .debug_loc     0x0000c34a       0x2b ../DE2_115_Audio_bsp/\libhal_bsp.a(alt_dev.o)
 .debug_loc     0x0000c375       0x56 ../DE2_115_Audio_bsp/\libhal_bsp.a(alt_fstat.o)
 .debug_loc     0x0000c3cb       0x2c ../DE2_115_Audio_bsp/\libhal_bsp.a(alt_irq_register.o)
 .debug_loc     0x0000c3f7       0x57 ../DE2_115_Audio_bsp/\libhal_bsp.a(alt_isatty.o)
 .debug_loc     0x0000c44e       0x56 ../DE2_115_Audio_bsp/\libhal_bsp.a(alt_load.o)
 .debug_loc     0x0000c4a4       0x56 ../DE2_115_Audio_bsp/\libhal_bsp.a(alt_lseek.o)
 .debug_loc     0x0000c4fa       0x2b ../DE2_115_Audio_bsp/\libhal_bsp.a(alt_main.o)
 .debug_loc     0x0000c525       0x56 ../DE2_115_Audio_bsp/\libhal_bsp.a(alt_malloc_lock.o)
 .debug_loc     0x0000c57b       0x81 ../DE2_115_Audio_bsp/\libhal_bsp.a(alt_open.o)
 .debug_loc     0x0000c5fc       0x56 ../DE2_115_Audio_bsp/\libhal_bsp.a(alt_read.o)
 .debug_loc     0x0000c652       0x2b ../DE2_115_Audio_bsp/\libhal_bsp.a(alt_release_fd.o)
 .debug_loc     0x0000c67d       0x2b ../DE2_115_Audio_bsp/\libhal_bsp.a(alt_sbrk.o)
 .debug_loc     0x0000c6a8       0x2b ../DE2_115_Audio_bsp/\libhal_bsp.a(alt_usleep.o)
 .debug_loc     0x0000c6d3       0x56 ../DE2_115_Audio_bsp/\libhal_bsp.a(alt_write.o)
 .debug_loc     0x0000c729       0x81 ../DE2_115_Audio_bsp/\libhal_bsp.a(alt_sys_init.o)
 .debug_loc     0x0000c7aa      0x12e ../DE2_115_Audio_bsp/\libhal_bsp.a(altera_avalon_cfi_flash.o)
 .debug_loc     0x0000c8d8      0x306 ../DE2_115_Audio_bsp/\libhal_bsp.a(altera_avalon_cfi_flash_table.o)
 .debug_loc     0x0000cbde       0xac ../DE2_115_Audio_bsp/\libhal_bsp.a(altera_avalon_jtag_uart_fd.o)
 .debug_loc     0x0000cc8a       0xac ../DE2_115_Audio_bsp/\libhal_bsp.a(altera_avalon_jtag_uart_init.o)
 .debug_loc     0x0000cd36       0x2b ../DE2_115_Audio_bsp/\libhal_bsp.a(altera_avalon_jtag_uart_ioctl.o)
 .debug_loc     0x0000cd61       0x2b ../DE2_115_Audio_bsp/\libhal_bsp.a(altera_avalon_jtag_uart_read.o)
 .debug_loc     0x0000cd8c       0x2b ../DE2_115_Audio_bsp/\libhal_bsp.a(altera_avalon_jtag_uart_write.o)
 .debug_loc     0x0000cdb7      0x183 ../DE2_115_Audio_bsp/\libhal_bsp.a(altera_avalon_lcd_16207.o)
 .debug_loc     0x0000cf3a       0x2b ../DE2_115_Audio_bsp/\libhal_bsp.a(altera_avalon_lcd_16207_fd.o)
 .debug_loc     0x0000cf65       0x2b ../DE2_115_Audio_bsp/\libhal_bsp.a(alt_alarm_start.o)
 .debug_loc     0x0000cf90       0x2b ../DE2_115_Audio_bsp/\libhal_bsp.a(alt_busy_sleep.o)
 .debug_loc     0x0000cfbb       0x2b ../DE2_115_Audio_bsp/\libhal_bsp.a(alt_dcache_flush.o)
 .debug_loc     0x0000cfe6       0x2b ../DE2_115_Audio_bsp/\libhal_bsp.a(alt_dcache_flush_all.o)
 .debug_loc     0x0000d011       0x56 ../DE2_115_Audio_bsp/\libhal_bsp.a(alt_dev_llist_insert.o)
 .debug_loc     0x0000d067       0x2b ../DE2_115_Audio_bsp/\libhal_bsp.a(alt_do_ctors.o)
 .debug_loc     0x0000d092       0x2b ../DE2_115_Audio_bsp/\libhal_bsp.a(alt_do_dtors.o)
 .debug_loc     0x0000d0bd       0x2b ../DE2_115_Audio_bsp/\libhal_bsp.a(alt_find_dev.o)
 .debug_loc     0x0000d0e8       0x2b ../DE2_115_Audio_bsp/\libhal_bsp.a(alt_find_file.o)
 .debug_loc     0x0000d113       0x56 ../DE2_115_Audio_bsp/\libhal_bsp.a(alt_flash_dev.o)
 .debug_loc     0x0000d169       0x2b ../DE2_115_Audio_bsp/\libhal_bsp.a(alt_get_fd.o)
 .debug_loc     0x0000d194       0x2b ../DE2_115_Audio_bsp/\libhal_bsp.a(alt_icache_flush_all.o)
 .debug_loc     0x0000d1bf       0xac ../DE2_115_Audio_bsp/\libhal_bsp.a(alt_iic.o)
 .debug_loc     0x0000d26b       0x2b ../DE2_115_Audio_bsp/\libhal_bsp.a(alt_iic_isr_register.o)
 .debug_loc     0x0000d296       0x56 ../DE2_115_Audio_bsp/\libhal_bsp.a(alt_io_redirect.o)
 .debug_loc     0x0000d2ec       0x2b ../DE2_115_Audio_bsp/\libhal_bsp.a(alt_irq_handler.o)
 .debug_loc     0x0000d317       0x56 ../DE2_115_Audio_bsp/\libhal_bsp.a(alt_tick.o)
 .debug_loc     0x0000d36d       0x2b ../DE2_115_Audio_bsp/\libhal_bsp.a(altera_nios2_qsys_irq.o)
 .debug_loc     0x0000d398       0xac ../DE2_115_Audio_bsp/\libhal_bsp.a(altera_avalon_cfi_flash_amd.o)
 .debug_loc     0x0000d444       0xac ../DE2_115_Audio_bsp/\libhal_bsp.a(altera_avalon_cfi_flash_intel.o)
 .debug_loc     0x0000d4f0       0x2b ../DE2_115_Audio_bsp/\libhal_bsp.a(alt_icache_flush.o)
 .debug_loc     0x0000d51b       0x1e d:/altera13.0sp1/nios2eds/bin/gnu/h-i686-mingw32/bin/../lib/gcc/nios2-elf/4.1.2/../../../../nios2-elf/lib\libc.a(lib_a-atexit.o)
 .debug_loc     0x0000d539       0x3d d:/altera13.0sp1/nios2eds/bin/gnu/h-i686-mingw32/bin/../lib/gcc/nios2-elf/4.1.2/../../../../nios2-elf/lib\libc.a(lib_a-exit.o)
 .debug_loc     0x0000d576      0x114 d:/altera13.0sp1/nios2eds/bin/gnu/h-i686-mingw32/bin/../lib/gcc/nios2-elf/4.1.2/../../../../nios2-elf/lib\libc.a(lib_a-memcmp.o)
 .debug_loc     0x0000d68a      0x120 d:/altera13.0sp1/nios2eds/bin/gnu/h-i686-mingw32/bin/../lib/gcc/nios2-elf/4.1.2/../../../../nios2-elf/lib\libc.a(lib_a-__atexit.o)
 .debug_loc     0x0000d7aa      0x1cb d:/altera13.0sp1/nios2eds/bin/gnu/h-i686-mingw32/bin/../lib/gcc/nios2-elf/4.1.2/../../../../nios2-elf/lib\libc.a(lib_a-__call_atexit.o)
 .debug_loc     0x0000d975       0x56 ../DE2_115_Audio_bsp/\libhal_bsp.a(alt_exit.o)

.debug_macinfo
 *(.debug_macinfo)

.debug_weaknames
 *(.debug_weaknames)

.debug_funcnames
 *(.debug_funcnames)

.debug_typenames
 *(.debug_typenames)

.debug_varnames
 *(.debug_varnames)

.debug_alt_sim_info
                0x00000000       0x60
 *(.debug_alt_sim_info)
 .debug_alt_sim_info
                0x00000000       0x30 ../DE2_115_Audio_bsp//obj/HAL/src/crt0.o
 .debug_alt_sim_info
                0x00000030       0x30 ../DE2_115_Audio_bsp/\libhal_bsp.a(alt_busy_sleep.o)
                0x0a900000                __alt_data_end = 0xa900000
                0x0a900000                PROVIDE (__alt_stack_pointer, __alt_data_end)
                0x0a817db0                PROVIDE (__alt_stack_limit, __alt_stack_base)
                0x0a817db0                PROVIDE (__alt_heap_start, end)
                0x0a900000                PROVIDE (__alt_heap_limit, 0xa900000)
OUTPUT(DE2_115_Audio.elf elf32-littlenios2)

.debug_ranges   0x00000000      0x990
 .debug_ranges  0x00000000       0x20 ../DE2_115_Audio_bsp//obj/HAL/src/crt0.o
 .debug_ranges  0x00000020       0x20 d:/altera13.0sp1/nios2eds/bin/gnu/h-i686-mingw32/bin/../lib/gcc/nios2-elf/4.1.2/../../../../nios2-elf/lib\libc.a(lib_a-fflush.o)
 .debug_ranges  0x00000040       0xa0 d:/altera13.0sp1/nios2eds/bin/gnu/h-i686-mingw32/bin/../lib/gcc/nios2-elf/4.1.2/../../../../nios2-elf/lib\libc.a(lib_a-fwalk.o)
 .debug_ranges  0x000000e0       0x70 d:/altera13.0sp1/nios2eds/bin/gnu/h-i686-mingw32/bin/../lib/gcc/nios2-elf/4.1.2/../../../../nios2-elf/lib\libc.a(lib_a-mallocr.o)
 .debug_ranges  0x00000150      0x168 d:/altera13.0sp1/nios2eds/bin/gnu/h-i686-mingw32/bin/../lib/gcc/nios2-elf/4.1.2/../../../../nios2-elf/lib\libc.a(lib_a-vfprintf.o)
 .debug_ranges  0x000002b8       0x28 d:/altera13.0sp1/nios2eds/bin/gnu/h-i686-mingw32/bin/../lib/gcc/nios2-elf/4.1.2/../../../../nios2-elf/lib\libc.a(lib_a-fvwrite.o)
 .debug_ranges  0x000002e0      0x110 d:/altera13.0sp1/nios2eds/bin/gnu/h-i686-mingw32/bin/../lib/gcc/nios2-elf/4.1.2/../../../../nios2-elf/lib\libc.a(lib_a-reallocr.o)
 .debug_ranges  0x000003f0       0x38 d:/altera13.0sp1/nios2eds/bin/gnu/h-i686-mingw32/bin/../lib/gcc/nios2-elf/4.1.2/../../../../nios2-elf/lib\libc.a(lib_a-callocr.o)
 .debug_ranges  0x00000428      0x188 d:/altera13.0sp1/nios2eds/bin/gnu/h-i686-mingw32/bin/../lib/gcc/nios2-elf/4.1.2\libgcc.a(_udivdi3.o)
 .debug_ranges  0x000005b0      0x198 d:/altera13.0sp1/nios2eds/bin/gnu/h-i686-mingw32/bin/../lib/gcc/nios2-elf/4.1.2\libgcc.a(_umoddi3.o)
 .debug_ranges  0x00000748       0x30 d:/altera13.0sp1/nios2eds/bin/gnu/h-i686-mingw32/bin/../lib/gcc/nios2-elf/4.1.2\libgcc.a(_addsub_df.o)
 .debug_ranges  0x00000778       0x88 d:/altera13.0sp1/nios2eds/bin/gnu/h-i686-mingw32/bin/../lib/gcc/nios2-elf/4.1.2\libgcc.a(_mul_df.o)
 .debug_ranges  0x00000800       0x50 d:/altera13.0sp1/nios2eds/bin/gnu/h-i686-mingw32/bin/../lib/gcc/nios2-elf/4.1.2\libgcc.a(_div_df.o)
 .debug_ranges  0x00000850       0x18 d:/altera13.0sp1/nios2eds/bin/gnu/h-i686-mingw32/bin/../lib/gcc/nios2-elf/4.1.2\libgcc.a(_usi_to_df.o)
 .debug_ranges  0x00000868       0x68 d:/altera13.0sp1/nios2eds/bin/gnu/h-i686-mingw32/bin/../lib/gcc/nios2-elf/4.1.2\libgcc.a(_muldi3.o)
 .debug_ranges  0x000008d0       0x28 d:/altera13.0sp1/nios2eds/bin/gnu/h-i686-mingw32/bin/../lib/gcc/nios2-elf/4.1.2\libgcc.a(_clzsi2.o)
 .debug_ranges  0x000008f8       0x28 d:/altera13.0sp1/nios2eds/bin/gnu/h-i686-mingw32/bin/../lib/gcc/nios2-elf/4.1.2\libgcc.a(_pack_df.o)
 .debug_ranges  0x00000920       0x28 ../DE2_115_Audio_bsp/\libhal_bsp.a(alt_irq_entry.o)
 .debug_ranges  0x00000948       0x30 ../DE2_115_Audio_bsp/\libhal_bsp.a(alt_exception_entry.o)
 .debug_ranges  0x00000978       0x18 d:/altera13.0sp1/nios2eds/bin/gnu/h-i686-mingw32/bin/../lib/gcc/nios2-elf/4.1.2/../../../../nios2-elf/lib\libc.a(lib_a-__call_atexit.o)
